
NMSIS_DS_CNN_S.adx:     file format elf32-littleriscv
NMSIS_DS_CNN_S.adx
architecture: riscv:rv32, flags 0x00000112:
EXEC_P, HAS_SYMS, D_PAGED
start address 0x20000000

Program Header:
    LOAD off    0x00001000 vaddr 0x20000000 paddr 0x20000000 align 2**12
         filesz 0x0000018a memsz 0x0000018a flags r-x
    LOAD off    0x00002000 vaddr 0x00000000 paddr 0x20000190 align 2**12
         filesz 0x000001bc memsz 0x000001bc flags rwx
    LOAD off    0x00002200 vaddr 0x00000200 paddr 0x20000350 align 2**12
         filesz 0x0000ab44 memsz 0x0000ab44 flags r-x
    LOAD off    0x0000d000 vaddr 0x00080000 paddr 0x2000ae98 align 2**12
         filesz 0x00007518 memsz 0x00007550 flags rw-
    LOAD off    0x000153d0 vaddr 0x0008b3d0 paddr 0x200123b0 align 2**12
         filesz 0x00000022 memsz 0x00000022 flags rw-
    LOAD off    0x00015550 vaddr 0x00087550 paddr 0x200123e8 align 2**12
         filesz 0x00000000 memsz 0x00003e80 flags rw-
0x70000000 off    0x00023415 vaddr 0x00000000 paddr 0x00000000 align 2**0
         filesz 0x00000040 memsz 0x00000000 flags r--

Sections:
Idx Name          Size      VMA       LMA       File off  Algn
  0 .vectors      0000018a  20000000  20000000  00001000  2**2
                  CONTENTS, ALLOC, LOAD, READONLY, CODE
  1 .retention_reset 00000154  00000000  20000190  00002000  2**2
                  CONTENTS, ALLOC, LOAD, READONLY, CODE
  2 .retention_data 00000064  00000158  200002e8  00002158  2**2
                  CONTENTS, ALLOC, LOAD, DATA
  3 .ram_code     0000ab44  00000200  20000350  00002200  2**8
                  CONTENTS, ALLOC, LOAD, READONLY, CODE
  4 .data         00007518  00080000  2000ae98  0000d000  2**3
                  CONTENTS, ALLOC, LOAD, DATA
  5 .sbss         00000038  00087518  200123b0  00014518  2**2
                  ALLOC
  6 .bss          00003e80  00087550  200123e8  00015550  2**2
                  ALLOC
  7 .sdk_version  00000022  0008b3d0  200123b0  000153d0  2**2
                  CONTENTS, ALLOC, LOAD, DATA
  8 .debug_info   00005256  00000000  00000000  000153f2  2**0
                  CONTENTS, READONLY, DEBUGGING
  9 .debug_abbrev 00000a01  00000000  00000000  0001a648  2**0
                  CONTENTS, READONLY, DEBUGGING
 10 .debug_loc    000013d0  00000000  00000000  0001b049  2**0
                  CONTENTS, READONLY, DEBUGGING
 11 .debug_aranges 00000198  00000000  00000000  0001c420  2**3
                  CONTENTS, READONLY, DEBUGGING
 12 .debug_ranges 000008c8  00000000  00000000  0001c5b8  2**3
                  CONTENTS, READONLY, DEBUGGING
 13 .debug_line   00003731  00000000  00000000  0001ce80  2**0
                  CONTENTS, READONLY, DEBUGGING
 14 .debug_str    00002e1b  00000000  00000000  000205b1  2**0
                  CONTENTS, READONLY, DEBUGGING
 15 .comment      00000049  00000000  00000000  000233cc  2**0
                  CONTENTS, READONLY
 16 .riscv.attributes 00000040  00000000  00000000  00023415  2**0
                  CONTENTS, READONLY
 17 .debug_frame  0000045c  00000000  00000000  00023458  2**2
                  CONTENTS, READONLY, DEBUGGING
SYMBOL TABLE:
20000000 l    d  .vectors	00000000 .vectors
00000000 l    d  .retention_reset	00000000 .retention_reset
00000158 l    d  .retention_data	00000000 .retention_data
00000200 l    d  .ram_code	00000000 .ram_code
00080000 l    d  .data	00000000 .data
00087518 l    d  .sbss	00000000 .sbss
00087550 l    d  .bss	00000000 .bss
0008b3d0 l    d  .sdk_version	00000000 .sdk_version
00000000 l    d  .debug_info	00000000 .debug_info
00000000 l    d  .debug_abbrev	00000000 .debug_abbrev
00000000 l    d  .debug_loc	00000000 .debug_loc
00000000 l    d  .debug_aranges	00000000 .debug_aranges
00000000 l    d  .debug_ranges	00000000 .debug_ranges
00000000 l    d  .debug_line	00000000 .debug_line
00000000 l    d  .debug_str	00000000 .debug_str
00000000 l    d  .comment	00000000 .comment
00000000 l    d  .riscv.attributes	00000000 .riscv.attributes
00000000 l    d  .debug_frame	00000000 .debug_frame
00000000 l    df *ABS*	00000000 ./boot/cstartup_flash.o
20000028 l       .vectors	00000000 _START
2000008e l       .vectors	00000000 _RETENTION_RESET_INIT
200000a6 l       .vectors	00000000 _RETENTION_RESET_BEGIN
200000b8 l       .vectors	00000000 _RETENTION_DATA_INIT
200000cc l       .vectors	00000000 _RETENTION_DATA_INIT_BEGIN
200000de l       .vectors	00000000 _RAMCODE_INIT
200000f6 l       .vectors	00000000 _RAMCODE_INIT_BEGIN
20000108 l       .vectors	00000000 _DATA_INIT
20000120 l       .vectors	00000000 _DATA_INIT_BEGIN
20000132 l       .vectors	00000000 _ZERO_BSS
20000146 l       .vectors	00000000 _ZERO_BSS_BEGIN
20000152 l       .vectors	00000000 _ZERO_AES
20000166 l       .vectors	00000000 _ZERO_AES_BEGIN
20000172 l       .vectors	00000000 _FILL_STK
20000172 l       .vectors	00000000 _MAIN_FUNC
20000188 l       .vectors	00000000 _END
00000022 l       .retention_reset	00000000 _ISTART
0000002a l       .retention_reset	00000000 _ISWS_USB_DIS
00000088 l       .retention_reset	00000000 _WAKEUP_FLASH
000000a2 l       .retention_reset	00000000 _MSPI_WAIT
000000bc l       .retention_reset	00000000 _WAIT_EFUSE_LOAD_AND_FLASH_WAKEUP_FINISH
000000c2 l       .retention_reset	00000000 _MULTI_ADDRESS_BEGIN
000000d2 l       .retention_reset	00000000 _IZERO_BSS
000000e6 l       .retention_reset	00000000 _IZERO_BSS_BEGIN
000000f2 l       .retention_reset	00000000 _IZERO_AES
00000106 l       .retention_reset	00000000 _IZERO_AES_BEGIN
00000112 l       .retention_reset	00000000 _IFILL_STK
00000112 l       .retention_reset	00000000 _IDATA_INIT
0000012a l       .retention_reset	00000000 _IDATA_INIT_BEGIN
0000013c l       .retention_reset	00000000 _IMAIN_FUNC
00000152 l       .retention_reset	00000000 _IEND
00000040 l       *ABS*	00000000 irqno
00000000 l    df *ABS*	00000000 
00000200 l     F .ram_code	00000020 delay_ms.constprop.12
0000140c l     F .ram_code	000000fc user_calib_adc_vref.constprop.9
00000220 l     F .ram_code	00000044 flash_send_addr
00000264 l     F .ram_code	00000048 flash_send_cmd
000002ac l     F .ram_code	00000060 clock_set_32k_tick
0000030c l     F .ram_code	0000004c analog_read_reg32.constprop.4
00000358 l     F .ram_code	00000024 clock_get_32k_tick
0000037c l     F .ram_code	00000094 pm_stimer_recover
00000410 l     F .ram_code	00000058 plic_exit_critical_sec
00000468 l     F .ram_code	00000060 plic_enter_critical_sec
000004c8 l     F .ram_code	00000180 flash_mspi_read_ram
00001204 l     F .ram_code	00000028 flash_read_uid.constprop.6
0000122c l     F .ram_code	00000028 flash_read_mid
00001254 l     F .ram_code	00000168 flash_read_mid_uid_with_check
00000648 l     F .ram_code	0000014c flash_mspi_read_ram.constprop.7
000013bc l     F .ram_code	00000020 flash_dread
00000794 l     F .ram_code	00000044 analog_write_reg8
000007d8 l     F .ram_code	0000004c analog_read_reg8
00000824 l     F .ram_code	00000140 clock_init_ram.constprop.11
000013dc l     F .ram_code	00000018 clock_init.constprop.10
00001508 l     F .ram_code	00000054 user_calib_freq_offset.constprop.8
00000964 l     F .ram_code	000000b4 pm_wait_bbpll_done
00000a18 l     F .ram_code	00000194 pm_sleep_start
00000bac l     F .ram_code	00000120 dr_putchar
00001560 l     F .ram_code	00000018 gpio_input_dis
00000ccc l     F .ram_code	0000030c pm_sleep_wakeup_ram.constprop.3
000013f4 l     F .ram_code	00000016 pm_sleep_wakeup.constprop.2
00087550 l     O .bss	00003e80 in_out_buf_main
0008085c l     O .data	00000a00 ds_cnn_s_layer_1_conv_2d_weights
00081a9c l     O .data	00001000 ds_cnn_s_layer_3_conv_2d_weights
000832dc l     O .data	00001000 ds_cnn_s_layer_5_conv_2d_weights
00084b1c l     O .data	00001000 ds_cnn_s_layer_7_conv_2d_weights
0008635c l     O .data	00001000 ds_cnn_s_layer_9_conv_2d_weights
00000158 l     O .retention_data	00000004 flash_read_page
0000015c l     O .retention_data	00000001 g_pm_long_suspend
00000160 l     O .retention_data	00000004 g_pm_tick_cur
00000164 l     O .retention_data	00000029 pmcd
00000190 l     O .retention_data	00000004 g_pm_tick_32k_calib
00000194 l     O .retention_data	00000001 g_plic_preempt_en
00000198 l     O .retention_data	00000002 s_flash_preempt_config
0000019a l     O .retention_data	00000001 g_pm_suspend_power_cfg
0000019c l     O .retention_data	00000008 g_pm_early_wakeup_time_us
000001a4 l     O .retention_data	00000004 g_pm_tick_32k_cur
000001a8 l     O .retention_data	00000001 g_pm_tick_update_en
000001ac l     O .retention_data	00000004 g_pm_r_delay_cycle
000001b0 l     O .retention_data	00000008 g_pm_longsleep_early_wakeup_time_us
00080040 l     O .data	000001ea ds_cnn_s_input
0008022c l     O .data	00000030 ds_cnn_s_layer_12_fully_connected_bias
0008025c l     O .data	00000300 ds_cnn_s_layer_12_fully_connected_weights
0008055c l     O .data	00000100 ds_cnn_s_layer_1_conv_2d_bias
0008065c l     O .data	00000100 ds_cnn_s_layer_1_conv_2d_output_mult
0008075c l     O .data	00000100 ds_cnn_s_layer_1_conv_2d_output_shift
0008125c l     O .data	00000100 ds_cnn_s_layer_2_depthwise_conv_2d_bias
0008135c l     O .data	00000100 ds_cnn_s_layer_2_depthwise_conv_2d_output_mult
0008145c l     O .data	00000100 ds_cnn_s_layer_2_depthwise_conv_2d_output_shift
0008155c l     O .data	00000240 ds_cnn_s_layer_2_depthwise_conv_2d_weights
0008179c l     O .data	00000100 ds_cnn_s_layer_3_conv_2d_bias
0008189c l     O .data	00000100 ds_cnn_s_layer_3_conv_2d_output_mult
0008199c l     O .data	00000100 ds_cnn_s_layer_3_conv_2d_output_shift
00082a9c l     O .data	00000100 ds_cnn_s_layer_4_depthwise_conv_2d_bias
00082b9c l     O .data	00000100 ds_cnn_s_layer_4_depthwise_conv_2d_output_mult
00082c9c l     O .data	00000100 ds_cnn_s_layer_4_depthwise_conv_2d_output_shift
00082d9c l     O .data	00000240 ds_cnn_s_layer_4_depthwise_conv_2d_weights
00082fdc l     O .data	00000100 ds_cnn_s_layer_5_conv_2d_bias
000830dc l     O .data	00000100 ds_cnn_s_layer_5_conv_2d_output_mult
000831dc l     O .data	00000100 ds_cnn_s_layer_5_conv_2d_output_shift
000842dc l     O .data	00000100 ds_cnn_s_layer_6_depthwise_conv_2d_bias
000843dc l     O .data	00000100 ds_cnn_s_layer_6_depthwise_conv_2d_output_mult
000844dc l     O .data	00000100 ds_cnn_s_layer_6_depthwise_conv_2d_output_shift
000845dc l     O .data	00000240 ds_cnn_s_layer_6_depthwise_conv_2d_weights
0008481c l     O .data	00000100 ds_cnn_s_layer_7_conv_2d_bias
0008491c l     O .data	00000100 ds_cnn_s_layer_7_conv_2d_output_mult
00084a1c l     O .data	00000100 ds_cnn_s_layer_7_conv_2d_output_shift
00085b1c l     O .data	00000100 ds_cnn_s_layer_8_depthwise_conv_2d_bias
00085c1c l     O .data	00000100 ds_cnn_s_layer_8_depthwise_conv_2d_output_mult
00085d1c l     O .data	00000100 ds_cnn_s_layer_8_depthwise_conv_2d_output_shift
00085e1c l     O .data	00000240 ds_cnn_s_layer_8_depthwise_conv_2d_weights
0008605c l     O .data	00000100 ds_cnn_s_layer_9_conv_2d_bias
0008615c l     O .data	00000100 ds_cnn_s_layer_9_conv_2d_output_mult
0008625c l     O .data	00000100 ds_cnn_s_layer_9_conv_2d_output_shift
00087518 l     O .sbss	00000004 exception_mcause
0008751c l     O .sbss	00000004 exception_mdcause
00087520 l     O .sbss	00000004 exception_mepc
00087524 l     O .sbss	00000004 exception_mstatus
00087528 l     O .sbss	00000004 exception_mtval
0008752c l     O .sbss	00000004 g_chip_version
00087530 l     O .sbss	00000004 g_pm_status_info
00087508 l     O .data	00000001 init_flag.4915
0008750c l     O .data	00000006 sys_clk
0008b3d0 l     O .sdk_version	00000022 sdk_version
00000000 l    df *ABS*	00000000 riscv_convolve_wrapper_s8.c.o
0000213c l       .ram_code	00000000 $x
00000000 l    df *ABS*	00000000 riscv_convolve_1x1_s8_fast.c.o
00002288 l       .ram_code	00000000 $x
00000000 l    df *ABS*	00000000 riscv_convolve_s8.c.o
00002300 l       .ram_code	00000000 $x
00000000 l    df *ABS*	00000000 riscv_nn_mat_mult_kernel_s8_s16.c.o
00002908 l       .ram_code	00000000 $x
00000000 l    df *ABS*	00000000 riscv_convolve_get_buffer_sizes_s8.c.o
00002ddc l       .ram_code	00000000 $x
00000000 l    df *ABS*	00000000 riscv_depthwise_conv_get_buffer_sizes_s8.c.o
00002e58 l       .ram_code	00000000 $x
00002e6c l       .ram_code	00000000 $x
00000000 l    df *ABS*	00000000 riscv_nn_mat_mult_kernel_row_offset_s8_s16.c.o
00002ec0 l       .ram_code	00000000 $x
00000000 l    df *ABS*	00000000 riscv_convolve_1x1_s8.c.o
000033a4 l       .ram_code	00000000 $x
00000000 l    df *ABS*	00000000 riscv_depthwise_conv_wrapper_s8.c.o
000034c8 l       .ram_code	00000000 $x
00000000 l    df *ABS*	00000000 riscv_convolve_1_x_n_s8.c.o
000035a0 l       .ram_code	00000000 $x
00000000 l    df *ABS*	00000000 riscv_softmax_s8.c.o
000035e8 l       .ram_code	00000000 $x
00000000 l    df *ABS*	00000000 riscv_nn_softmax_common_s8.c.o
000035f0 l       .ram_code	00000000 $x
00000000 l    df *ABS*	00000000 riscv_nn_mat_mult_nt_t_s8.c.o
00005404 l       .ram_code	00000000 $x
00000000 l    df *ABS*	00000000 riscv_s8_to_s16_unordered_with_offset.c.o
00006148 l       .ram_code	00000000 $x
00000000 l    df *ABS*	00000000 riscv_avgpool_s8.c.o
000061cc l       .ram_code	00000000 $x
00000000 l    df *ABS*	00000000 riscv_fully_connected_s8.c.o
00006424 l       .ram_code	00000000 $x
00000000 l    df *ABS*	00000000 riscv_depthwise_conv_s8.c.o
000064c8 l       .ram_code	00000000 $x
00000000 l    df *ABS*	00000000 riscv_depthwise_conv_s8_opt.c.o
00006c70 l       .ram_code	00000000 $x
00000000 l    df *ABS*	00000000 riscv_depthwise_conv_3x3_s8.c.o
00007350 l       .ram_code	00000000 $x
00000000 l    df *ABS*	00000000 riscv_nn_vec_mat_mult_t_s8.c.o
00008b38 l       .ram_code	00000000 $x
00000000 l    df *ABS*	00000000 riscv_q7_to_q15_with_offset.c.o
00009c98 l       .ram_code	00000000 $x
00000000 l    df *ABS*	00000000 riscv_avgpool_get_buffer_sizes_s8.c.o
00009d20 l       .ram_code	00000000 $x
00000000 l    df *ABS*	00000000 memcpy.c
00000000 l    df *ABS*	00000000 malloc.c
00000000 l    df *ABS*	00000000 nano-mallocr.c
00000000 l    df *ABS*	00000000 nano-mallocr.c
00000000 l    df *ABS*	00000000 printf.c
00000000 l    df *ABS*	00000000 puts.c
00000000 l    df *ABS*	00000000 strlen.c
00000000 l    df *ABS*	00000000 vprintf.c
0000a0e0 l     F .ram_code	0000003a __vprintf_help
0008753c l     O .sbss	00000004 __vprintf_buf
00087540 l     O .sbss	00000004 __vprintf_buf_len
00000000 l    df *ABS*	00000000 printf_impl.c
00000000 l    df *ABS*	00000000 printf_impl_float.c
00000000 l    df *ABS*	00000000 strcpy.c
00000000 l    df *ABS*	00000000 strnlen.c
00000000 l    df *ABS*	00000000 _sbrk.c
0008754c l     O .sbss	00000004 heap_end.2408
00000000 l    df *ABS*	00000000 libgcc2.c
00000000 l    df *ABS*	00000000 libgcc2.c
00000000 l    df *ABS*	00000000 printf_data.c
00000000 l    df *ABS*	00000000 impure.c
0008b3d0 l     O .bss	00000000 impure_data
00002134  w      .ram_code	00000000 entry_irq55
00002134  w      .ram_code	00000000 entry_irq13
0000aacc g     F .ram_code	0000007c strcpy
00002134  w      .ram_code	00000000 entry_irq15
0000abbc g     F .ram_code	0000002e .hidden __ashldi3
00002134  w      .ram_code	00000000 entry_irq27
00002134  w      .ram_code	00000000 entry_irq60
00002134  w      .ram_code	00000000 entry_irq1
00002134  w      .ram_code	00000000 entry_irq52
00002134  w      .ram_code	00000000 entry_irq50
00002134  w      .ram_code	00000000 entry_irq62
0000a02c g     F .ram_code	0000001e printf
00080800 g       .data	00000000 __global_pointer$
0000abf4 g       .ram_code	00000000 .hidden __riscv_save_8
00002134  w      .ram_code	00000000 entry_irq58
0000ac40 g       .ram_code	00000000 .hidden __riscv_restore_3
00009c98 g     F .ram_code	00000088 riscv_q7_to_q15_with_offset
000001bc g       .retention_data	00000000 _RETENTION_DATA_VMA_END
0000ac2c g       .ram_code	00000000 .hidden __riscv_restore_10
0000abf4 g       .ram_code	00000000 .hidden __riscv_save_11
0000a166 g     F .ram_code	00000048 __print_integral
00000000 g       .retention_reset	00000000 _RETENTION_RESET_VMA_START
00002134  w      .ram_code	00000000 entry_irq10
00002134  w      .ram_code	00000000 entry_irq21
00000158 g       .retention_data	00000000 _AES_VMA_START
00002134  w      .ram_code	00000000 entry_irq48
0000ac40 g       .ram_code	00000000 .hidden __riscv_restore_2
00002134  w      .ram_code	00000000 entry_irq8
00002134  w      .ram_code	00000000 entry_irq33
0008b3d0 g       .bss	00000000 _BSS_VMA_END
00009d28 g     F .ram_code	000000fa memcpy
20000190 g       *ABS*	00000000 _RETENTION_RESET_LMA_START
0000a1ae g     F .ram_code	00000470 __printf_impl
00002134  w      .ram_code	00000000 entry_irq12
0000a04a g     F .ram_code	00000034 puts
0000213c g     F .ram_code	0000014a riscv_convolve_wrapper_s8
00009ecc g     F .ram_code	00000010 malloc
00002134  w      .ram_code	00000000 entry_irq14
000035f0 g     F .ram_code	00001e14 riscv_nn_softmax_common_s8
0000abec g       .ram_code	00000000 .hidden __riscv_save_12
00002134  w      .ram_code	00000000 entry_irq2
00002134  w      .ram_code	00000000 entry_irq51
0000ac2c g       .ram_code	00000000 .hidden __riscv_restore_11
000061cc g     F .ram_code	00000258 riscv_avgpool_s8
00002134  w      .ram_code	00000000 entry_irq28
00002134  w      .ram_code	00000000 entry_irq43
0000ac1c g       .ram_code	00000000 .hidden __riscv_save_1
0000ac40 g       .ram_code	00000000 .hidden __riscv_restore_0
00002134  w      .ram_code	00000000 entry_irq20
0000ac02 g       .ram_code	00000000 .hidden __riscv_save_7
00087518 g       .sbss	00000000 _BSS_VMA_START
00002134  w      .ram_code	00000000 entry_irq63
00087518 g       .data	00000000 _DATA_VMA_END
00002134  w      .ram_code	00000000 entry_irq46
00002134  w      .ram_code	00000000 entry_irq31
00002134  w      .ram_code	00000000 entry_irq16
00100000 g       *ABS*	00000000 FLASH_SIZE
0000ac36 g       .ram_code	00000000 .hidden __riscv_restore_5
00080000 g       .data	00000000 _DATA_VMA_START
000034c8 g     F .ram_code	000000d8 riscv_depthwise_conv_wrapper_s8
0000ab62  w    F .ram_code	00000028 _sbrk
00002134  w      .ram_code	00000000 entry_irq53
00002134  w      .ram_code	00000000 entry_irq11
00000154 g       .retention_reset	00000000 _RETENTION_RESET_VMA_END
0000ab4a g     F .ram_code	00000018 strnlen
0000ac36 g       .ram_code	00000000 .hidden __riscv_restore_6
00002134  w      .ram_code	00000000 entry_irq5
00002134  w      .ram_code	00000000 entry_irq23
00002136  w      .ram_code	00000000 trap_handler
00002134  w      .ram_code	00000000 entry_irq34
0000ab8c g     F .ram_code	0000002e .hidden __lshrdi3
00002134  w      .ram_code	00000000 entry_irq36
00006424 g     F .ram_code	000000a2 riscv_fully_connected_s8
0000abf4 g       .ram_code	00000000 .hidden __riscv_save_9
00002134  w      .ram_code	00000000 entry_irq44
00005404 g     F .ram_code	00000d44 riscv_nn_mat_mult_nt_t_s8
0000a11a g     F .ram_code	0000004c vprintf
00002134  w      .ram_code	00000000 entry_irq45
00002134  w      .ram_code	00000000 entry_irq26
0000ac02 g       .ram_code	00000000 .hidden __riscv_save_4
00002134  w      .ram_code	00000000 entry_irq41
000064c8 g     F .ram_code	000007a6 riscv_depthwise_conv_s8
00007350 g     F .ram_code	000017e6 riscv_depthwise_conv_3x3_s8
00002134  w      .ram_code	00000000 entry_irq61
20000000 g       .vectors	00000000 BIN_BEGIN
00009eec g     F .ram_code	00000090 _free_r
00002ec0 g     F .ram_code	000004e4 riscv_nn_mat_mult_kernel_row_offset_s8_s16
0000ac1c g       .ram_code	00000000 .hidden __riscv_save_3
000033a4 g     F .ram_code	00000124 riscv_convolve_1x1_s8
00002134  w      .ram_code	00000000 entry_irq38
00001100 g       .ram_code	00000000 __vectors
000123d2 g       *ABS*	00000000 BIN_SIZE
000874f0 g     O .data	00000010 __digits
20000350 g       *ABS*	00000000 _RAMCODE_LMA_START
00002ddc g     F .ram_code	0000007a riscv_convolve_wrapper_s8_get_buffer_size
000035a0 g     F .ram_code	00000048 riscv_convolve_1_x_n_s8
00087548 g     O .sbss	00000004 __printf_count
00002134  w      .ram_code	00000000 entry_irq59
00002134  w      .ram_code	00000000 entry_irq6
0000abf4 g       .ram_code	00000000 .hidden __riscv_save_10
00087544 g     O .sbss	00000004 __mculib_REENT_errno
2000ae98 g       *ABS*	00000000 _DATA_LMA_START
0000a63c g     F .ram_code	00000090 __print_integral_poly
20000000 g       *ABS*	00000000 NDS_SAG_LMA_FLASH
0000ac36 g       .ram_code	00000000 .hidden __riscv_restore_4
0000ac2c g       .ram_code	00000000 .hidden __riscv_restore_8
0000ac02 g       .ram_code	00000000 .hidden __riscv_save_6
00002e58 g     F .ram_code	00000012 riscv_depthwise_conv_s8_opt_get_buffer_size
20000000  w      .vectors	00000000 _RELAX_END_
0000a6cc g     F .ram_code	000003fe __printf_float_impl
00009e22 g     F .ram_code	000000aa memset
0000ac2c g       .ram_code	00000000 .hidden __riscv_restore_9
0000ac36 g       .ram_code	00000000 .hidden __riscv_restore_7
000015c4 g     F .ram_code	00000b6e main
00002134 g       .ram_code	00000000 default_irq_entry
00002134  w      .ram_code	00000000 entry_irq3
00000fd8 g     F .ram_code	00000100 trap_entry
00000158 g       .retention_data	00000000 _AES_VMA_END
00006148 g     F .ram_code	00000084 riscv_s8_to_s16_unordered_with_offset
00002134  w      .ram_code	00000000 entry_irq39
00002134  w      .ram_code	00000000 entry_irq49
00009f7c g     F .ram_code	000000b0 _malloc_r
00002e6c g     F .ram_code	00000054 riscv_depthwise_conv_wrapper_s8_get_buffer_size
00002134  w      .ram_code	00000000 entry_irq57
00002134  w      .ram_code	00000000 entry_irq47
200002e8 g       *ABS*	00000000 _RETENTION_DATA_LMA_START
20000000 g     F .vectors	00000000 _RESET_ENTRY
00000158 g       .retention_data	00000000 _RETENTION_DATA_VMA_START
00008b38 g     F .ram_code	0000115e riscv_nn_vec_mat_mult_t_s8
00002134  w      .ram_code	00000000 entry_irq4
000a0000 g       *ABS*	00000000 _STACK_TOP
00002134  w      .ram_code	00000000 entry_irq22
00002134  w      .ram_code	00000000 entry_irq30
00087514 g     O .data	00000004 _impure_ptr
00009d20 g     F .ram_code	00000006 riscv_avgpool_s8_get_buffer_size
00002134  w      .ram_code	00000000 entry_irq42
00002134  w      .ram_code	00000000 entry_irq24
00002908 g     F .ram_code	000004d4 riscv_nn_mat_mult_kernel_s8_s16
0000ac1c g       .ram_code	00000000 .hidden __riscv_save_2
0000ad44 g       .ram_code	00000000 _RAMCODE_VMA_END
00000000  w      *ABS*	00000000 _ITB_BASE_
0000ac02 g       .ram_code	00000000 .hidden __riscv_save_5
00002134  w      .ram_code	00000000 entry_irq19
0000157c g     F .ram_code	00000048 _write
0008b3f8 g       .sdk_version	00000000 _end
00002134  w      .ram_code	00000000 entry_irq17
00002134  w      .ram_code	00000000 entry_irq9
00006c70 g     F .ram_code	000006e0 riscv_depthwise_conv_s8_opt
00002134  w      .ram_code	00000000 entry_irq56
00002134  w      .ram_code	00000000 entry_irq35
00002134  w      .ram_code	00000000 entry_irq37
000001b8 g     O .retention_data	00000004 g_pm_mspi_cfg
00002134  w      .ram_code	00000000 entry_irq54
00002134  w      .ram_code	00000000 entry_irq40
0000ac28 g       .ram_code	00000000 .hidden __riscv_restore_12
00000200 g       .ram_code	00000000 _RAMCODE_VMA_START
0000ac1c g       .ram_code	00000000 .hidden __riscv_save_0
0000a080 g     F .ram_code	0000005e strlen
00002134  w      .ram_code	00000000 entry_irq29
00087538 g     O .sbss	00000004 __malloc_sbrk_start
00002300 g     F .ram_code	00000608 riscv_convolve_s8
00087534 g     O .sbss	00000004 __malloc_free_list
0000ac40 g       .ram_code	00000000 .hidden __riscv_restore_1
000035e8 g     F .ram_code	00000006 riscv_softmax_s8
00002288 g     F .ram_code	00000078 riscv_convolve_1x1_s8_fast
00002134  w      .ram_code	00000000 entry_irq7
00002134  w      .ram_code	00000000 entry_irq32
00000000 g     F .retention_reset	00000000 _IRESET_ENTRY
00002134  w      .ram_code	00000000 entry_irq18
0000a61e g     F .ram_code	0000001e __int_to_poly
00009edc g     F .ram_code	00000010 free
00002134  w      .ram_code	00000000 entry_irq25



Disassembly of section .vectors:

20000000 <_RESET_ENTRY>:
20000000:	a025                	c.j	20000028 <_START>
	...
20000016:	0000                	unimp
20000018:	23d2                	c.fldsp	ft7,272(sp)
2000001a:	0001                	c.nop
2000001c:	0000                	unimp
2000001e:	0000                	unimp
20000020:	544c4e4b          	fnmsub.h	ft8,fs8,ft4,fa0,rmm
20000024:	0000                	unimp
20000026:	          	sllw	a4,zero,zero

20000028 <_START>:
20000028:	e0080197          	auipc	gp,0xe0080
2000002c:	7d818193          	addi	gp,gp,2008 # 80800 <__global_pointer$>
20000030:	801002b7          	lui	t0,0x80100
20000034:	70028293          	addi	t0,t0,1792 # 80100700 <_DATA_LMA_START+0x600f5868>
20000038:	04000313          	li	t1,64
2000003c:	506280a3          	sb	t1,1281(t0)
20000040:	e00a0297          	auipc	t0,0xe00a0
20000044:	fc028293          	addi	t0,t0,-64 # a0000 <_STACK_TOP>
20000048:	8116                	c.mv	sp,t0
2000004a:	e0000297          	auipc	t0,0xe0000
2000004e:	fb628293          	addi	t0,t0,-74 # 0 <_ITB_BASE_>
20000052:	80029073          	csrw	uitb,t0
20000056:	6299                	c.lui	t0,0x6
20000058:	3002a2f3          	csrrs	t0,mstatus,t0
2000005c:	00301073          	fssr	zero
20000060:	e0001297          	auipc	t0,0xe0001
20000064:	0a028293          	addi	t0,t0,160 # 1100 <__vectors>
20000068:	30529073          	csrw	mtvec,t0
2000006c:	7d016073          	csrsi	mmisc_ctl,2
20000070:	e40002b7          	lui	t0,0xe4000
20000074:	4309                	c.li	t1,2
20000076:	0062a023          	sw	t1,0(t0) # e4000000 <_DATA_LMA_START+0xc3ff5168>
2000007a:	7ca022f3          	csrr	t0,mcache_ctl
2000007e:	0012e293          	ori	t0,t0,1
20000082:	0022e293          	ori	t0,t0,2
20000086:	7ca29073          	csrw	mcache_ctl,t0
2000008a:	0000100f          	fence.i

2000008e <_RETENTION_RESET_INIT>:
2000008e:	00000317          	auipc	t1,0x0
20000092:	10230313          	addi	t1,t1,258 # 20000190 <_RETENTION_RESET_LMA_START>
20000096:	e0000397          	auipc	t2,0xe0000
2000009a:	f6a38393          	addi	t2,t2,-150 # 0 <_ITB_BASE_>
2000009e:	e0000e17          	auipc	t3,0xe0000
200000a2:	0b6e0e13          	addi	t3,t3,182 # 154 <_RETENTION_RESET_VMA_END>

200000a6 <_RETENTION_RESET_BEGIN>:
200000a6:	01c3f963          	bgeu	t2,t3,200000b8 <_RETENTION_DATA_INIT>
200000aa:	00032283          	lw	t0,0(t1)
200000ae:	0053a023          	sw	t0,0(t2)
200000b2:	0311                	c.addi	t1,4
200000b4:	0391                	c.addi	t2,4
200000b6:	bfc5                	c.j	200000a6 <_RETENTION_RESET_BEGIN>

200000b8 <_RETENTION_DATA_INIT>:
200000b8:	00000317          	auipc	t1,0x0
200000bc:	23030313          	addi	t1,t1,560 # 200002e8 <_RETENTION_DATA_LMA_START>
200000c0:	15800393          	li	t2,344
200000c4:	e0000e17          	auipc	t3,0xe0000
200000c8:	0f8e0e13          	addi	t3,t3,248 # 1bc <_RETENTION_DATA_VMA_END>

200000cc <_RETENTION_DATA_INIT_BEGIN>:
200000cc:	01c3f963          	bgeu	t2,t3,200000de <_RAMCODE_INIT>
200000d0:	00032283          	lw	t0,0(t1)
200000d4:	0053a023          	sw	t0,0(t2)
200000d8:	0311                	c.addi	t1,4
200000da:	0391                	c.addi	t2,4
200000dc:	bfc5                	c.j	200000cc <_RETENTION_DATA_INIT_BEGIN>

200000de <_RAMCODE_INIT>:
200000de:	00000317          	auipc	t1,0x0
200000e2:	27230313          	addi	t1,t1,626 # 20000350 <_RAMCODE_LMA_START>
200000e6:	e0000397          	auipc	t2,0xe0000
200000ea:	11a38393          	addi	t2,t2,282 # 200 <delay_ms.constprop.12>
200000ee:	e000be17          	auipc	t3,0xe000b
200000f2:	c56e0e13          	addi	t3,t3,-938 # ad44 <_RAMCODE_VMA_END>

200000f6 <_RAMCODE_INIT_BEGIN>:
200000f6:	01c3f963          	bgeu	t2,t3,20000108 <_DATA_INIT>
200000fa:	00032283          	lw	t0,0(t1)
200000fe:	0053a023          	sw	t0,0(t2)
20000102:	0311                	c.addi	t1,4
20000104:	0391                	c.addi	t2,4
20000106:	bfc5                	c.j	200000f6 <_RAMCODE_INIT_BEGIN>

20000108 <_DATA_INIT>:
20000108:	0000b317          	auipc	t1,0xb
2000010c:	d9030313          	addi	t1,t1,-624 # 2000ae98 <_DATA_LMA_START>
20000110:	e0080397          	auipc	t2,0xe0080
20000114:	ef038393          	addi	t2,t2,-272 # 80000 <_DATA_VMA_START>
20000118:	e0087e17          	auipc	t3,0xe0087
2000011c:	400e0e13          	addi	t3,t3,1024 # 87518 <_DATA_VMA_END>

20000120 <_DATA_INIT_BEGIN>:
20000120:	01c3f963          	bgeu	t2,t3,20000132 <_ZERO_BSS>
20000124:	00032283          	lw	t0,0(t1)
20000128:	0053a023          	sw	t0,0(t2)
2000012c:	0311                	c.addi	t1,4
2000012e:	0391                	c.addi	t2,4
20000130:	bfc5                	c.j	20000120 <_DATA_INIT_BEGIN>

20000132 <_ZERO_BSS>:
20000132:	000002b7          	lui	t0,0x0
20000136:	e0087397          	auipc	t2,0xe0087
2000013a:	3e238393          	addi	t2,t2,994 # 87518 <_DATA_VMA_END>
2000013e:	e008be17          	auipc	t3,0xe008b
20000142:	292e0e13          	addi	t3,t3,658 # 8b3d0 <_BSS_VMA_END>

20000146 <_ZERO_BSS_BEGIN>:
20000146:	01c3f663          	bgeu	t2,t3,20000152 <_ZERO_AES>
2000014a:	0053a023          	sw	t0,0(t2)
2000014e:	0391                	c.addi	t2,4
20000150:	bfdd                	c.j	20000146 <_ZERO_BSS_BEGIN>

20000152 <_ZERO_AES>:
20000152:	000002b7          	lui	t0,0x0
20000156:	e0000397          	auipc	t2,0xe0000
2000015a:	00238393          	addi	t2,t2,2 # 158 <_AES_VMA_END>
2000015e:	e0000e17          	auipc	t3,0xe0000
20000162:	ffae0e13          	addi	t3,t3,-6 # 158 <_AES_VMA_END>

20000166 <_ZERO_AES_BEGIN>:
20000166:	01c3f663          	bgeu	t2,t3,20000172 <_FILL_STK>
2000016a:	0053a023          	sw	t0,0(t2)
2000016e:	0391                	c.addi	t2,4
20000170:	bfdd                	c.j	20000166 <_ZERO_AES_BEGIN>

20000172 <_FILL_STK>:
20000172:	0001                	c.nop
20000174:	e0001297          	auipc	t0,0xe0001
20000178:	45028293          	addi	t0,t0,1104 # 15c4 <main>
2000017c:	9282                	c.jalr	t0
2000017e:	0001                	c.nop
20000180:	0001                	c.nop
20000182:	0001                	c.nop
20000184:	0001                	c.nop
20000186:	0001                	c.nop

20000188 <_END>:
20000188:	a001                	c.j	20000188 <_END>

Disassembly of section .retention_reset:

00000000 <_IRESET_ENTRY>:
   0:	a00d                	c.j	22 <_ISTART>
	...

00000022 <_ISTART>:
  22:	00080197          	auipc	gp,0x80
  26:	7de18193          	addi	gp,gp,2014 # 80800 <__global_pointer$>

0000002a <_ISWS_USB_DIS>:
  2a:	801002b7          	lui	t0,0x80100
  2e:	70028293          	addi	t0,t0,1792 # 80100700 <_DATA_LMA_START+0x600f5868>
  32:	04000313          	li	t1,64
  36:	506280a3          	sb	t1,1281(t0)
  3a:	000a0297          	auipc	t0,0xa0
  3e:	fc628293          	addi	t0,t0,-58 # a0000 <_STACK_TOP>
  42:	8116                	c.mv	sp,t0
  44:	00000297          	auipc	t0,0x0
  48:	fbc28293          	addi	t0,t0,-68 # 0 <_IRESET_ENTRY>
  4c:	80029073          	csrw	uitb,t0
  50:	6299                	c.lui	t0,0x6
  52:	3002a2f3          	csrrs	t0,mstatus,t0
  56:	00301073          	fssr	zero
  5a:	00001297          	auipc	t0,0x1
  5e:	0a628293          	addi	t0,t0,166 # 1100 <__vectors>
  62:	30529073          	csrw	mtvec,t0
  66:	7d016073          	csrsi	mmisc_ctl,2
  6a:	e40002b7          	lui	t0,0xe4000
  6e:	4309                	c.li	t1,2
  70:	0062a023          	sw	t1,0(t0) # e4000000 <_DATA_LMA_START+0xc3ff5168>
  74:	7ca022f3          	csrr	t0,mcache_ctl
  78:	0012e293          	ori	t0,t0,1
  7c:	0022e293          	ori	t0,t0,2
  80:	7ca29073          	csrw	mcache_ctl,t0
  84:	0000100f          	fence.i

00000088 <_WAKEUP_FLASH>:
  88:	801402b7          	lui	t0,0x80140
  8c:	0ff00313          	li	t1,255
  90:	4381                	c.li	t2,0
  92:	0ab00e13          	li	t3,171
  96:	326284a3          	sb	t1,809(t0) # 80140329 <_DATA_LMA_START+0x60135491>
  9a:	107280a3          	sb	t2,257(t0)
  9e:	11c28023          	sb	t3,256(t0)

000000a2 <_MSPI_WAIT>:
  a2:	801402b7          	lui	t0,0x80140
  a6:	10228383          	lb	t2,258(t0) # 80140102 <_DATA_LMA_START+0x6013526a>
  aa:	4e05                	c.li	t3,1
  ac:	4ec1                	c.li	t4,16
  ae:	fe7e0ae3          	beq	t3,t2,a2 <_MSPI_WAIT>
  b2:	11d280a3          	sb	t4,257(t0)
  b6:	4281                	c.li	t0,0
  b8:	14000313          	li	t1,320

000000bc <_WAIT_EFUSE_LOAD_AND_FLASH_WAKEUP_FINISH>:
  bc:	0285                	c.addi	t0,1
  be:	fe537fe3          	bgeu	t1,t0,bc <_WAIT_EFUSE_LOAD_AND_FLASH_WAKEUP_FINISH>

000000c2 <_MULTI_ADDRESS_BEGIN>:
  c2:	801402b7          	lui	t0,0x80140
  c6:	1b800313          	li	t1,440
  ca:	00032383          	lw	t2,0(t1)
  ce:	1072a223          	sw	t2,260(t0) # 80140104 <_DATA_LMA_START+0x6013526c>

000000d2 <_IZERO_BSS>:
  d2:	000002b7          	lui	t0,0x0
  d6:	00087397          	auipc	t2,0x87
  da:	44238393          	addi	t2,t2,1090 # 87518 <_DATA_VMA_END>
  de:	0008be17          	auipc	t3,0x8b
  e2:	2f2e0e13          	addi	t3,t3,754 # 8b3d0 <_BSS_VMA_END>

000000e6 <_IZERO_BSS_BEGIN>:
  e6:	01c3f663          	bgeu	t2,t3,f2 <_IZERO_AES>
  ea:	0053a023          	sw	t0,0(t2)
  ee:	0391                	c.addi	t2,4
  f0:	bfdd                	c.j	e6 <_IZERO_BSS_BEGIN>

000000f2 <_IZERO_AES>:
  f2:	000002b7          	lui	t0,0x0
  f6:	00000397          	auipc	t2,0x0
  fa:	06238393          	addi	t2,t2,98 # 158 <_AES_VMA_END>
  fe:	00000e17          	auipc	t3,0x0
 102:	05ae0e13          	addi	t3,t3,90 # 158 <_AES_VMA_END>

00000106 <_IZERO_AES_BEGIN>:
 106:	01c3f663          	bgeu	t2,t3,112 <_IDATA_INIT>
 10a:	0053a023          	sw	t0,0(t2)
 10e:	0391                	c.addi	t2,4
 110:	bfdd                	c.j	106 <_IZERO_AES_BEGIN>

00000112 <_IDATA_INIT>:
 112:	2000b317          	auipc	t1,0x2000b
 116:	d8630313          	addi	t1,t1,-634 # 2000ae98 <_DATA_LMA_START>
 11a:	00080397          	auipc	t2,0x80
 11e:	ee638393          	addi	t2,t2,-282 # 80000 <_DATA_VMA_START>
 122:	00087e17          	auipc	t3,0x87
 126:	3f6e0e13          	addi	t3,t3,1014 # 87518 <_DATA_VMA_END>

0000012a <_IDATA_INIT_BEGIN>:
 12a:	01c3f963          	bgeu	t2,t3,13c <_IMAIN_FUNC>
 12e:	00032283          	lw	t0,0(t1)
 132:	0053a023          	sw	t0,0(t2)
 136:	0311                	c.addi	t1,4
 138:	0391                	c.addi	t2,4
 13a:	bfc5                	c.j	12a <_IDATA_INIT_BEGIN>

0000013c <_IMAIN_FUNC>:
 13c:	0001                	c.nop
 13e:	00001297          	auipc	t0,0x1
 142:	48628293          	addi	t0,t0,1158 # 15c4 <main>
 146:	9282                	c.jalr	t0
 148:	0001                	c.nop
 14a:	0001                	c.nop
 14c:	0001                	c.nop
 14e:	0001                	c.nop
 150:	0001                	c.nop

00000152 <_IEND>:
 152:	a001                	c.j	152 <_IEND>

Disassembly of section .ram_code:

00000200 <delay_ms.constprop.12>:
     200:	801407b7          	lui	a5,0x80140
     204:	0004e737          	lui	a4,0x4e
     208:	2007a603          	lw	a2,512(a5) # 80140200 <_DATA_LMA_START+0x60135368>
     20c:	801406b7          	lui	a3,0x80140
     210:	20070713          	addi	a4,a4,512 # 4e200 <BIN_SIZE+0x3be2e>
     214:	2006a783          	lw	a5,512(a3) # 80140200 <_DATA_LMA_START+0x60135368>
     218:	8f91                	c.sub	a5,a2
     21a:	fef77de3          	bgeu	a4,a5,214 <delay_ms.constprop.12+0x14>
     21e:	8082                	c.jr	ra

00000220 <flash_send_addr>:
     220:	5d05275b          	bfoz	a4,a0,23,16
     224:	801407b7          	lui	a5,0x80140
     228:	801406b7          	lui	a3,0x80140
     22c:	10e78023          	sb	a4,256(a5) # 80140100 <_DATA_LMA_START+0x60135268>
     230:	10268783          	lb	a5,258(a3) # 80140102 <_DATA_LMA_START+0x6013526a>
     234:	fe07fe5b          	bbs	a5,0,230 <flash_send_addr+0x10>
     238:	3c8527db          	bfoz	a5,a0,15,8
     23c:	80140737          	lui	a4,0x80140
     240:	10f68023          	sb	a5,256(a3)
     244:	10270783          	lb	a5,258(a4) # 80140102 <_DATA_LMA_START+0x6013526a>
     248:	fe07fe5b          	bbs	a5,0,244 <flash_send_addr+0x24>
     24c:	0ff57513          	andi	a0,a0,255
     250:	801406b7          	lui	a3,0x80140
     254:	10a70023          	sb	a0,256(a4)
     258:	10268783          	lb	a5,258(a3) # 80140102 <_DATA_LMA_START+0x6013526a>
     25c:	fe07fe5b          	bbs	a5,0,258 <flash_send_addr+0x38>
     260:	00008067          	ret

00000264 <flash_send_cmd>:
     264:	801407b7          	lui	a5,0x80140
     268:	10178703          	lb	a4,257(a5) # 80140101 <_DATA_LMA_START+0x60135269>
     26c:	0ff77713          	andi	a4,a4,255
     270:	01076713          	ori	a4,a4,16
     274:	10e780a3          	sb	a4,257(a5)
     278:	0001                	c.nop
     27a:	0001                	c.nop
     27c:	0001                	c.nop
     27e:	0001                	c.nop
     280:	0001                	c.nop
     282:	0001                	c.nop
     284:	0001                	c.nop
     286:	0001                	c.nop
     288:	0001                	c.nop
     28a:	0001                	c.nop
     28c:	10178683          	lb	a3,257(a5)
     290:	80140737          	lui	a4,0x80140
     294:	0ef6f693          	andi	a3,a3,239
     298:	10d780a3          	sb	a3,257(a5)
     29c:	10a78023          	sb	a0,256(a5)
     2a0:	10270783          	lb	a5,258(a4) # 80140102 <_DATA_LMA_START+0x6013526a>
     2a4:	fe07fe5b          	bbs	a5,0,2a0 <flash_send_cmd+0x3c>
     2a8:	00008067          	ret

000002ac <clock_set_32k_tick>:
     2ac:	801406b7          	lui	a3,0x80140
     2b0:	20a68783          	lb	a5,522(a3) # 8014020a <_DATA_LMA_START+0x60135372>
     2b4:	80140737          	lui	a4,0x80140
     2b8:	0ff7f793          	andi	a5,a5,255
     2bc:	0017e793          	ori	a5,a5,1
     2c0:	20f68523          	sb	a5,522(a3)
     2c4:	20b70683          	lb	a3,523(a4) # 8014020b <_DATA_LMA_START+0x60135373>
     2c8:	20b70793          	addi	a5,a4,523
     2cc:	fe66fc5b          	bbs	a3,6,2c4 <clock_set_32k_tick+0x18>
     2d0:	20a72623          	sw	a0,524(a4)
     2d4:	4721                	c.li	a4,8
     2d6:	00e78023          	sb	a4,0(a5)
     2da:	0001                	c.nop
     2dc:	0001                	c.nop
     2de:	0001                	c.nop
     2e0:	0001                	c.nop
     2e2:	0001                	c.nop
     2e4:	0001                	c.nop
     2e6:	0001                	c.nop
     2e8:	0001                	c.nop
     2ea:	0001                	c.nop
     2ec:	0001                	c.nop
     2ee:	0001                	c.nop
     2f0:	0001                	c.nop
     2f2:	0001                	c.nop
     2f4:	0001                	c.nop
     2f6:	0001                	c.nop
     2f8:	00000013          	nop
     2fc:	801407b7          	lui	a5,0x80140
     300:	20b78703          	lb	a4,523(a5) # 8014020b <_DATA_LMA_START+0x60135373>
     304:	fe377e5b          	bbs	a4,3,300 <clock_set_32k_tick+0x54>
     308:	00008067          	ret

0000030c <analog_read_reg32.constprop.4>:
     30c:	300027f3          	csrr	a5,mstatus
     310:	8ba1                	c.andi	a5,8
     312:	c789                	c.beqz	a5,31c <analog_read_reg32.constprop.4+0x10>
     314:	30047773          	csrrci	a4,mstatus,8
     318:	0ff0000f          	fence
     31c:	80140737          	lui	a4,0x80140
     320:	00400693          	li	a3,4
     324:	18d701a3          	sb	a3,387(a4) # 80140183 <_DATA_LMA_START+0x601352eb>
     328:	06000693          	li	a3,96
     32c:	18d70023          	sb	a3,384(a4)
     330:	04000613          	li	a2,64
     334:	801406b7          	lui	a3,0x80140
     338:	18c70123          	sb	a2,386(a4)
     33c:	18268703          	lb	a4,386(a3) # 80140182 <_DATA_LMA_START+0x601352ea>
     340:	fe777e5b          	bbs	a4,7,33c <analog_read_reg32.constprop.4+0x30>
     344:	1846a503          	lw	a0,388(a3)
     348:	00078663          	beqz	a5,354 <analog_read_reg32.constprop.4+0x48>
     34c:	3007a7f3          	csrrs	a5,mstatus,a5
     350:	0ff0000f          	fence
     354:	00008067          	ret

00000358 <clock_get_32k_tick>:
     358:	1141                	c.addi	sp,-16
     35a:	c422                	c.swsp	s0,8(sp)
     35c:	c606                	c.swsp	ra,12(sp)
     35e:	377d                	c.jal	30c <analog_read_reg32.constprop.4>
     360:	00a00433          	add	s0,zero,a0
     364:	fa9ff0ef          	jal	ra,30c <analog_read_reg32.constprop.4>
     368:	40850733          	sub	a4,a0,s0
     36c:	842a                	c.mv	s0,a0
     36e:	be176b5b          	bnec	a4,1,364 <clock_get_32k_tick+0xc>
     372:	40b2                	c.lwsp	ra,12(sp)
     374:	4422                	c.lwsp	s0,8(sp)
     376:	0141                	c.addi	sp,16
     378:	00008067          	ret

0000037c <pm_stimer_recover>:
     37c:	1141                	c.addi	sp,-16
     37e:	80140737          	lui	a4,0x80140
     382:	c606                	c.swsp	ra,12(sp)
     384:	4789                	c.li	a5,2
     386:	20f70c23          	sb	a5,536(a4) # 80140218 <_DATA_LMA_START+0x60135380>
     38a:	20a70783          	lb	a5,522(a4)
     38e:	0ff7f793          	andi	a5,a5,255
     392:	00c7e793          	ori	a5,a5,12
     396:	20f70523          	sb	a5,522(a4)
     39a:	3f7d                	c.jal	358 <clock_get_32k_tick>
     39c:	000007b7          	lui	a5,0x0
     3a0:	15878713          	addi	a4,a5,344 # 158 <_AES_VMA_END>
     3a4:	00474703          	lbu	a4,4(a4)
     3a8:	15878793          	addi	a5,a5,344
     3ac:	cf01                	c.beqz	a4,3c4 <pm_stimer_recover+0x48>
     3ae:	4b98                	c.lw	a4,16(a5)
     3b0:	5f90                	c.lw	a2,56(a5)
     3b2:	40e50733          	sub	a4,a0,a4
     3b6:	47d4                	c.lw	a3,12(a5)
     3b8:	0705                	c.addi	a4,1
     3ba:	8315                	c.srli	a4,0x5
     3bc:	c4c716ff          	maddr32	a3,a4,a2
     3c0:	c794                	c.sw	a3,8(a5)
     3c2:	a829                	c.j	3dc <pm_stimer_recover+0x60>
     3c4:	4b98                	c.lw	a4,16(a5)
     3c6:	5f94                	c.lw	a3,56(a5)
     3c8:	40e50733          	sub	a4,a0,a4
     3cc:	0705                	c.addi	a4,1
     3ce:	02d70733          	mul	a4,a4,a3
     3d2:	47d4                	c.lw	a3,12(a5)
     3d4:	8315                	c.srli	a4,0x5
     3d6:	9736                	c.add	a4,a3
     3d8:	00e7a423          	sw	a4,8(a5)
     3dc:	4b98                	c.lw	a4,16(a5)
     3de:	4794                	c.lw	a3,8(a5)
     3e0:	40e50733          	sub	a4,a0,a4
     3e4:	0705                	c.addi	a4,1
     3e6:	0505                	c.addi	a0,1
     3e8:	0685                	c.addi	a3,1
     3ea:	d788                	c.sw	a0,40(a5)
     3ec:	02e7a223          	sw	a4,36(a5)
     3f0:	80140637          	lui	a2,0x80140
     3f4:	801407b7          	lui	a5,0x80140
     3f8:	20d7a023          	sw	a3,512(a5) # 80140200 <_DATA_LMA_START+0x60135368>
     3fc:	20b60783          	lb	a5,523(a2) # 8014020b <_DATA_LMA_START+0x60135373>
     400:	be77fe5b          	bbc	a5,7,3fc <pm_stimer_recover+0x80>
     404:	20060c23          	sb	zero,536(a2)
     408:	40b2                	c.lwsp	ra,12(sp)
     40a:	0141                	c.addi	sp,16
     40c:	00008067          	ret

00000410 <plic_exit_critical_sec>:
     410:	000007b7          	lui	a5,0x0
     414:	15878793          	addi	a5,a5,344 # 158 <_AES_VMA_END>
     418:	03c78783          	lb	a5,60(a5)
     41c:	0ff7f793          	andi	a5,a5,255
     420:	c795                	c.beqz	a5,44c <plic_exit_critical_sec+0x3c>
     422:	c50d                	c.beqz	a0,44c <plic_exit_critical_sec+0x3c>
     424:	300027f3          	csrr	a5,mstatus
     428:	8ba1                	c.andi	a5,8
     42a:	0ff5f593          	andi	a1,a1,255
     42e:	c78d                	c.beqz	a5,458 <plic_exit_critical_sec+0x48>
     430:	30047773          	csrrci	a4,mstatus,8
     434:	0ff0000f          	fence
     438:	e4200737          	lui	a4,0xe4200
     43c:	c30c                	c.sw	a1,0(a4)
     43e:	0ff0000f          	fence
     442:	3007a7f3          	csrrs	a5,mstatus,a5
     446:	0ff0000f          	fence
     44a:	8082                	c.jr	ra
     44c:	cd81                	c.beqz	a1,464 <plic_exit_critical_sec+0x54>
     44e:	3005a5f3          	csrrs	a1,mstatus,a1
     452:	0ff0000f          	fence
     456:	8082                	c.jr	ra
     458:	e42007b7          	lui	a5,0xe4200
     45c:	00b7a023          	sw	a1,0(a5) # e4200000 <_DATA_LMA_START+0xc41f5168>
     460:	0ff0000f          	fence
     464:	00008067          	ret

00000468 <plic_enter_critical_sec>:
     468:	000007b7          	lui	a5,0x0
     46c:	15878793          	addi	a5,a5,344 # 158 <_AES_VMA_END>
     470:	03c78783          	lb	a5,60(a5)
     474:	0ff7f793          	andi	a5,a5,255
     478:	cb85                	c.beqz	a5,4a8 <plic_enter_critical_sec+0x40>
     47a:	c51d                	c.beqz	a0,4a8 <plic_enter_critical_sec+0x40>
     47c:	e4200737          	lui	a4,0xe4200
     480:	4308                	c.lw	a0,0(a4)
     482:	04b57163          	bgeu	a0,a1,4c4 <plic_enter_critical_sec+0x5c>
     486:	300027f3          	csrr	a5,mstatus
     48a:	8ba1                	c.andi	a5,8
     48c:	cb85                	c.beqz	a5,4bc <plic_enter_critical_sec+0x54>
     48e:	300476f3          	csrrci	a3,mstatus,8
     492:	0ff0000f          	fence
     496:	c30c                	c.sw	a1,0(a4)
     498:	0ff0000f          	fence
     49c:	3007a7f3          	csrrs	a5,mstatus,a5
     4a0:	0ff0000f          	fence
     4a4:	00008067          	ret
     4a8:	30002573          	csrr	a0,mstatus
     4ac:	8921                	c.andi	a0,8
     4ae:	c919                	c.beqz	a0,4c4 <plic_enter_critical_sec+0x5c>
     4b0:	300477f3          	csrrci	a5,mstatus,8
     4b4:	0ff0000f          	fence
     4b8:	00008067          	ret
     4bc:	00b72023          	sw	a1,0(a4) # e4200000 <_DATA_LMA_START+0xc41f5168>
     4c0:	0ff0000f          	fence
     4c4:	00008067          	ret

000004c8 <flash_mspi_read_ram>:
     4c8:	7179                	c.addi16sp	sp,-48
     4ca:	d226                	c.swsp	s1,36(sp)
     4cc:	000004b7          	lui	s1,0x0
     4d0:	15848493          	addi	s1,s1,344 # 158 <_AES_VMA_END>
     4d4:	d04a                	c.swsp	s2,32(sp)
     4d6:	c65e                	c.swsp	s7,12(sp)
     4d8:	892a                	c.mv	s2,a0
     4da:	8bae                	c.mv	s7,a1
     4dc:	0404c503          	lbu	a0,64(s1)
     4e0:	0414c583          	lbu	a1,65(s1)
     4e4:	d422                	c.swsp	s0,40(sp)
     4e6:	ce4e                	c.swsp	s3,28(sp)
     4e8:	cc52                	c.swsp	s4,24(sp)
     4ea:	ca56                	c.swsp	s5,20(sp)
     4ec:	c85a                	c.swsp	s6,16(sp)
     4ee:	d606                	c.swsp	ra,44(sp)
     4f0:	8b32                	c.mv	s6,a2
     4f2:	8ab6                	c.mv	s5,a3
     4f4:	843a                	c.mv	s0,a4
     4f6:	8a3e                	c.mv	s4,a5
     4f8:	f71ff0ef          	jal	ra,468 <plic_enter_critical_sec>
     4fc:	80140637          	lui	a2,0x80140
     500:	00a009b3          	add	s3,zero,a0
     504:	10260783          	lb	a5,258(a2) # 80140102 <_DATA_LMA_START+0x6013526a>
     508:	fe07fe5b          	bbs	a5,0,504 <flash_mspi_read_ram+0x3c>
     50c:	10160783          	lb	a5,257(a2)
     510:	80140737          	lui	a4,0x80140
     514:	0ff7f793          	andi	a5,a5,255
     518:	0107e793          	ori	a5,a5,16
     51c:	10f600a3          	sb	a5,257(a2)
     520:	32870783          	lb	a5,808(a4) # 80140328 <_DATA_LMA_START+0x60135490>
     524:	be37fe5b          	bbc	a5,3,520 <flash_mspi_read_ram+0x58>
     528:	10170783          	lb	a5,257(a4)
     52c:	854a                	c.mv	a0,s2
     52e:	0fd7f793          	andi	a5,a5,253
     532:	10f700a3          	sb	a5,257(a4)
     536:	10170783          	lb	a5,257(a4)
     53a:	0f37f793          	andi	a5,a5,243
     53e:	10f700a3          	sb	a5,257(a4)
     542:	330d                	c.jal	264 <flash_send_cmd>
     544:	0e0b1e63          	bnez	s6,640 <flash_mspi_read_ram+0x178>
     548:	020a8063          	beqz	s5,568 <flash_mspi_read_ram+0xa0>
     54c:	00000713          	li	a4,0
     550:	80140637          	lui	a2,0x80140
     554:	10060023          	sb	zero,256(a2) # 80140100 <_DATA_LMA_START+0x60135268>
     558:	10260783          	lb	a5,258(a2)
     55c:	fe07fe5b          	bbs	a5,0,558 <flash_mspi_read_ram+0x90>
     560:	00170713          	addi	a4,a4,1
     564:	ff5718e3          	bne	a4,s5,554 <flash_mspi_read_ram+0x8c>
     568:	01b96cdb          	bnec	s2,59,580 <flash_mspi_read_ram+0xb8>
     56c:	80140737          	lui	a4,0x80140
     570:	10170783          	lb	a5,257(a4) # 80140101 <_DATA_LMA_START+0x60135269>
     574:	0f37f793          	andi	a5,a5,243
     578:	0047e793          	ori	a5,a5,4
     57c:	10f700a3          	sb	a5,257(a4)
     580:	801406b7          	lui	a3,0x80140
     584:	10168783          	lb	a5,257(a3) # 80140101 <_DATA_LMA_START+0x60135269>
     588:	80140737          	lui	a4,0x80140
     58c:	0ff7f793          	andi	a5,a5,255
     590:	0027e793          	ori	a5,a5,2
     594:	10f680a3          	sb	a5,257(a3)
     598:	10068023          	sb	zero,256(a3)
     59c:	10270783          	lb	a5,258(a4) # 80140102 <_DATA_LMA_START+0x6013526a>
     5a0:	fe07fe5b          	bbs	a5,0,59c <flash_mspi_read_ram+0xd4>
     5a4:	10170783          	lb	a5,257(a4)
     5a8:	801406b7          	lui	a3,0x80140
     5ac:	0ff7f793          	andi	a5,a5,255
     5b0:	0017e793          	ori	a5,a5,1
     5b4:	10f700a3          	sb	a5,257(a4)
     5b8:	10268783          	lb	a5,258(a3) # 80140102 <_DATA_LMA_START+0x6013526a>
     5bc:	fe07fe5b          	bbs	a5,0,5b8 <flash_mspi_read_ram+0xf0>
     5c0:	020a0263          	beqz	s4,5e4 <flash_mspi_read_ram+0x11c>
     5c4:	008a0a33          	add	s4,s4,s0
     5c8:	801406b7          	lui	a3,0x80140
     5cc:	10068783          	lb	a5,256(a3) # 80140100 <_DATA_LMA_START+0x60135268>
     5d0:	00140413          	addi	s0,s0,1
     5d4:	fef40fa3          	sb	a5,-1(s0)
     5d8:	10268783          	lb	a5,258(a3)
     5dc:	fe07fe5b          	bbs	a5,0,5d8 <flash_mspi_read_ram+0x110>
     5e0:	ff4416e3          	bne	s0,s4,5cc <flash_mspi_read_ram+0x104>
     5e4:	801407b7          	lui	a5,0x80140
     5e8:	10178703          	lb	a4,257(a5) # 80140101 <_DATA_LMA_START+0x60135269>
     5ec:	0fe77713          	andi	a4,a4,254
     5f0:	10e780a3          	sb	a4,257(a5)
     5f4:	01b968db          	bnec	s2,59,604 <flash_mspi_read_ram+0x13c>
     5f8:	10178703          	lb	a4,257(a5)
     5fc:	0f377713          	andi	a4,a4,243
     600:	10e780a3          	sb	a4,257(a5)
     604:	80140737          	lui	a4,0x80140
     608:	10170783          	lb	a5,257(a4) # 80140101 <_DATA_LMA_START+0x60135269>
     60c:	0ff7f793          	andi	a5,a5,255
     610:	0107e793          	ori	a5,a5,16
     614:	10f700a3          	sb	a5,257(a4)
     618:	0001                	c.nop
     61a:	0001                	c.nop
     61c:	0001                	c.nop
     61e:	0001                	c.nop
     620:	0001                	c.nop
     622:	5422                	c.lwsp	s0,40(sp)
     624:	0404c503          	lbu	a0,64(s1)
     628:	50b2                	c.lwsp	ra,44(sp)
     62a:	5492                	c.lwsp	s1,36(sp)
     62c:	5902                	c.lwsp	s2,32(sp)
     62e:	4a62                	c.lwsp	s4,24(sp)
     630:	4ad2                	c.lwsp	s5,20(sp)
     632:	4b42                	c.lwsp	s6,16(sp)
     634:	4bb2                	c.lwsp	s7,12(sp)
     636:	85ce                	c.mv	a1,s3
     638:	49f2                	c.lwsp	s3,28(sp)
     63a:	6145                	c.addi16sp	sp,48
     63c:	dd5ff06f          	j	410 <plic_exit_critical_sec>
     640:	855e                	c.mv	a0,s7
     642:	3ef9                	c.jal	220 <flash_send_addr>
     644:	f05ff06f          	j	548 <flash_mspi_read_ram+0x80>

00000648 <flash_mspi_read_ram.constprop.7>:
     648:	1101                	c.addi	sp,-32
     64a:	c64e                	c.swsp	s3,12(sp)
     64c:	000009b7          	lui	s3,0x0
     650:	15898993          	addi	s3,s3,344 # 158 <_AES_VMA_END>
     654:	cc22                	c.swsp	s0,24(sp)
     656:	c256                	c.swsp	s5,4(sp)
     658:	842e                	c.mv	s0,a1
     65a:	8aaa                	c.mv	s5,a0
     65c:	0419c583          	lbu	a1,65(s3)
     660:	0409c503          	lbu	a0,64(s3)
     664:	c84a                	c.swsp	s2,16(sp)
     666:	c452                	c.swsp	s4,8(sp)
     668:	ce06                	c.swsp	ra,28(sp)
     66a:	ca26                	c.swsp	s1,20(sp)
     66c:	8932                	c.mv	s2,a2
     66e:	3bed                	c.jal	468 <plic_enter_critical_sec>
     670:	80140737          	lui	a4,0x80140
     674:	00a00a33          	add	s4,zero,a0
     678:	10270783          	lb	a5,258(a4) # 80140102 <_DATA_LMA_START+0x6013526a>
     67c:	fe07fe5b          	bbs	a5,0,678 <flash_mspi_read_ram.constprop.7+0x30>
     680:	10170783          	lb	a5,257(a4)
     684:	801404b7          	lui	s1,0x80140
     688:	0ff7f793          	andi	a5,a5,255
     68c:	0107e793          	ori	a5,a5,16
     690:	10f700a3          	sb	a5,257(a4)
     694:	32848783          	lb	a5,808(s1) # 80140328 <_DATA_LMA_START+0x60135490>
     698:	be37fe5b          	bbc	a5,3,694 <flash_mspi_read_ram.constprop.7+0x4c>
     69c:	10148783          	lb	a5,257(s1)
     6a0:	03b00513          	li	a0,59
     6a4:	0fd7f793          	andi	a5,a5,253
     6a8:	10f480a3          	sb	a5,257(s1)
     6ac:	10148783          	lb	a5,257(s1)
     6b0:	0f37f793          	andi	a5,a5,243
     6b4:	10f480a3          	sb	a5,257(s1)
     6b8:	badff0ef          	jal	ra,264 <flash_send_cmd>
     6bc:	01500533          	add	a0,zero,s5
     6c0:	b61ff0ef          	jal	ra,220 <flash_send_addr>
     6c4:	80140737          	lui	a4,0x80140
     6c8:	10048023          	sb	zero,256(s1)
     6cc:	10270783          	lb	a5,258(a4) # 80140102 <_DATA_LMA_START+0x6013526a>
     6d0:	fe07fe5b          	bbs	a5,0,6cc <flash_mspi_read_ram.constprop.7+0x84>
     6d4:	10170783          	lb	a5,257(a4)
     6d8:	801406b7          	lui	a3,0x80140
     6dc:	0f37f793          	andi	a5,a5,243
     6e0:	0047e793          	ori	a5,a5,4
     6e4:	10f700a3          	sb	a5,257(a4)
     6e8:	10170783          	lb	a5,257(a4)
     6ec:	0ff7f793          	andi	a5,a5,255
     6f0:	0027e793          	ori	a5,a5,2
     6f4:	10f700a3          	sb	a5,257(a4)
     6f8:	10070023          	sb	zero,256(a4)
     6fc:	10268783          	lb	a5,258(a3) # 80140102 <_DATA_LMA_START+0x6013526a>
     700:	fe07fe5b          	bbs	a5,0,6fc <flash_mspi_read_ram.constprop.7+0xb4>
     704:	10168783          	lb	a5,257(a3)
     708:	80140737          	lui	a4,0x80140
     70c:	0ff7f793          	andi	a5,a5,255
     710:	0017e793          	ori	a5,a5,1
     714:	10f680a3          	sb	a5,257(a3)
     718:	10270783          	lb	a5,258(a4) # 80140102 <_DATA_LMA_START+0x6013526a>
     71c:	fe07fe5b          	bbs	a5,0,718 <flash_mspi_read_ram.constprop.7+0xd0>
     720:	02090263          	beqz	s2,744 <flash_mspi_read_ram.constprop.7+0xfc>
     724:	01240633          	add	a2,s0,s2
     728:	80140737          	lui	a4,0x80140
     72c:	10070783          	lb	a5,256(a4) # 80140100 <_DATA_LMA_START+0x60135268>
     730:	00140413          	addi	s0,s0,1
     734:	fef40fa3          	sb	a5,-1(s0)
     738:	10270783          	lb	a5,258(a4)
     73c:	fe07fe5b          	bbs	a5,0,738 <flash_mspi_read_ram.constprop.7+0xf0>
     740:	fec416e3          	bne	s0,a2,72c <flash_mspi_read_ram.constprop.7+0xe4>
     744:	801407b7          	lui	a5,0x80140
     748:	10178703          	lb	a4,257(a5) # 80140101 <_DATA_LMA_START+0x60135269>
     74c:	0fe77713          	andi	a4,a4,254
     750:	10e780a3          	sb	a4,257(a5)
     754:	10178703          	lb	a4,257(a5)
     758:	0f377713          	andi	a4,a4,243
     75c:	10e780a3          	sb	a4,257(a5)
     760:	10178703          	lb	a4,257(a5)
     764:	0ff77713          	andi	a4,a4,255
     768:	01076713          	ori	a4,a4,16
     76c:	10e780a3          	sb	a4,257(a5)
     770:	0001                	c.nop
     772:	0001                	c.nop
     774:	0001                	c.nop
     776:	0001                	c.nop
     778:	0001                	c.nop
     77a:	4462                	c.lwsp	s0,24(sp)
     77c:	0409c503          	lbu	a0,64(s3)
     780:	40f2                	c.lwsp	ra,28(sp)
     782:	44d2                	c.lwsp	s1,20(sp)
     784:	4942                	c.lwsp	s2,16(sp)
     786:	49b2                	c.lwsp	s3,12(sp)
     788:	4a92                	c.lwsp	s5,4(sp)
     78a:	85d2                	c.mv	a1,s4
     78c:	4a22                	c.lwsp	s4,8(sp)
     78e:	6105                	c.addi16sp	sp,32
     790:	c81ff06f          	j	410 <plic_exit_critical_sec>

00000794 <analog_write_reg8>:
     794:	30002673          	csrr	a2,mstatus
     798:	8a21                	c.andi	a2,8
     79a:	c609                	c.beqz	a2,7a4 <analog_write_reg8+0x10>
     79c:	300477f3          	csrrci	a5,mstatus,8
     7a0:	0ff0000f          	fence
     7a4:	80140737          	lui	a4,0x80140
     7a8:	18a70023          	sb	a0,384(a4) # 80140180 <_DATA_LMA_START+0x601352e8>
     7ac:	18b70223          	sb	a1,388(a4)
     7b0:	06000693          	li	a3,96
     7b4:	801407b7          	lui	a5,0x80140
     7b8:	18d70123          	sb	a3,386(a4)
     7bc:	18278703          	lb	a4,386(a5) # 80140182 <_DATA_LMA_START+0x601352ea>
     7c0:	fe777e5b          	bbs	a4,7,7bc <analog_write_reg8+0x28>
     7c4:	18078123          	sb	zero,386(a5)
     7c8:	00060663          	beqz	a2,7d4 <analog_write_reg8+0x40>
     7cc:	30062673          	csrrs	a2,mstatus,a2
     7d0:	0ff0000f          	fence
     7d4:	00008067          	ret

000007d8 <analog_read_reg8>:
     7d8:	300026f3          	csrr	a3,mstatus
     7dc:	8aa1                	c.andi	a3,8
     7de:	c689                	c.beqz	a3,7e8 <analog_read_reg8+0x10>
     7e0:	300477f3          	csrrci	a5,mstatus,8
     7e4:	0ff0000f          	fence
     7e8:	801407b7          	lui	a5,0x80140
     7ec:	18a78023          	sb	a0,384(a5) # 80140180 <_DATA_LMA_START+0x601352e8>
     7f0:	00100713          	li	a4,1
     7f4:	18e781a3          	sb	a4,387(a5)
     7f8:	04000613          	li	a2,64
     7fc:	80140737          	lui	a4,0x80140
     800:	18c78123          	sb	a2,386(a5)
     804:	18270783          	lb	a5,386(a4) # 80140182 <_DATA_LMA_START+0x601352ea>
     808:	fe77fe5b          	bbs	a5,7,804 <analog_read_reg8+0x2c>
     80c:	18470503          	lb	a0,388(a4)
     810:	0ff57513          	andi	a0,a0,255
     814:	00068663          	beqz	a3,820 <analog_read_reg8+0x48>
     818:	3006a6f3          	csrrs	a3,mstatus,a3
     81c:	0ff0000f          	fence
     820:	00008067          	ret

00000824 <clock_init_ram.constprop.11>:
     824:	1141                	c.addi	sp,-16
     826:	80140737          	lui	a4,0x80140
     82a:	c606                	c.swsp	ra,12(sp)
     82c:	c422                	c.swsp	s0,8(sp)
     82e:	c226                	c.swsp	s1,4(sp)
     830:	10270783          	lb	a5,258(a4) # 80140102 <_DATA_LMA_START+0x6013526a>
     834:	fe07fe5b          	bbs	a5,0,830 <clock_init_ram.constprop.11+0xc>
     838:	10170783          	lb	a5,257(a4)
     83c:	801404b7          	lui	s1,0x80140
     840:	0ff7f793          	andi	a5,a5,255
     844:	0107e793          	ori	a5,a5,16
     848:	10f700a3          	sb	a5,257(a4)
     84c:	32848783          	lb	a5,808(s1) # 80140328 <_DATA_LMA_START+0x60135490>
     850:	be37fe5b          	bbc	a5,3,84c <clock_init_ram.constprop.11+0x28>
     854:	1e848783          	lb	a5,488(s1)
     858:	08000513          	li	a0,128
     85c:	8bbd                	c.andi	a5,15
     85e:	1ef48423          	sb	a5,488(s1)
     862:	3f9d                	c.jal	7d8 <analog_read_reg8>
     864:	0e057593          	andi	a1,a0,224
     868:	0105e593          	ori	a1,a1,16
     86c:	08000513          	li	a0,128
     870:	f25ff0ef          	jal	ra,794 <analog_write_reg8>
     874:	00900513          	li	a0,9
     878:	f61ff0ef          	jal	ra,7d8 <analog_read_reg8>
     87c:	0f357593          	andi	a1,a0,243
     880:	0085e593          	ori	a1,a1,8
     884:	4525                	c.li	a0,9
     886:	3739                	c.jal	794 <analog_write_reg8>
     888:	0c000793          	li	a5,192
     88c:	50dc140b          	addigp	s0,27916 # 8750c <sys_clk>
     890:	00f41023          	sh	a5,0(s0)
     894:	08100513          	li	a0,129
     898:	4791                	c.li	a5,4
     89a:	1ef48da3          	sb	a5,507(s1)
     89e:	3f2d                	c.jal	7d8 <analog_read_reg8>
     8a0:	04056593          	ori	a1,a0,64
     8a4:	0ff5f593          	andi	a1,a1,255
     8a8:	08100513          	li	a0,129
     8ac:	ee9ff0ef          	jal	ra,794 <analog_write_reg8>
     8b0:	08800513          	li	a0,136
     8b4:	f25ff0ef          	jal	ra,7d8 <analog_read_reg8>
     8b8:	be557c5b          	bbc	a0,5,8b0 <clock_init_ram.constprop.11+0x8c>
     8bc:	08100513          	li	a0,129
     8c0:	f19ff0ef          	jal	ra,7d8 <analog_read_reg8>
     8c4:	0bf57593          	andi	a1,a0,191
     8c8:	08100513          	li	a0,129
     8cc:	ec9ff0ef          	jal	ra,794 <analog_write_reg8>
     8d0:	801407b7          	lui	a5,0x80140
     8d4:	1e978703          	lb	a4,489(a5) # 801401e9 <_DATA_LMA_START+0x60135351>
     8d8:	8b3d                	c.andi	a4,15
     8da:	04076713          	ori	a4,a4,64
     8de:	1ee784a3          	sb	a4,489(a5)
     8e2:	1e878703          	lb	a4,488(a5)
     8e6:	f8076713          	ori	a4,a4,-128
     8ea:	0ff77713          	andi	a4,a4,255
     8ee:	1ee78423          	sb	a4,488(a5)
     8f2:	1e878703          	lb	a4,488(a5)
     8f6:	f8076713          	ori	a4,a4,-128
     8fa:	0ff77713          	andi	a4,a4,255
     8fe:	1ee78423          	sb	a4,488(a5)
     902:	1d878703          	lb	a4,472(a5)
     906:	00045683          	lhu	a3,0(s0)
     90a:	0fb77713          	andi	a4,a4,251
     90e:	1ce78c23          	sb	a4,472(a5)
     912:	1d878703          	lb	a4,472(a5)
     916:	8689                	c.srai	a3,0x2
     918:	00d402a3          	sb	a3,5(s0)
     91c:	0fc77713          	andi	a4,a4,252
     920:	1ce78c23          	sb	a4,472(a5)
     924:	1e878703          	lb	a4,488(a5)
     928:	0f077713          	andi	a4,a4,240
     92c:	00876713          	ori	a4,a4,8
     930:	1ee78423          	sb	a4,488(a5)
     934:	1e878703          	lb	a4,488(a5)
     938:	00045683          	lhu	a3,0(s0)
     93c:	08f77713          	andi	a4,a4,143
     940:	868d                	c.srai	a3,0x3
     942:	00d40123          	sb	a3,2(s0)
     946:	02076713          	ori	a4,a4,32
     94a:	1ee78423          	sb	a4,488(a5)
     94e:	0ff6f693          	andi	a3,a3,255
     952:	00d401a3          	sb	a3,3(s0)
     956:	00d40223          	sb	a3,4(s0)
     95a:	40b2                	c.lwsp	ra,12(sp)
     95c:	4422                	c.lwsp	s0,8(sp)
     95e:	4492                	c.lwsp	s1,4(sp)
     960:	0141                	c.addi	sp,16
     962:	8082                	c.jr	ra

00000964 <pm_wait_bbpll_done>:
     964:	1101                	c.addi	sp,-32
     966:	08100513          	li	a0,129
     96a:	cc22                	c.swsp	s0,24(sp)
     96c:	ca26                	c.swsp	s1,20(sp)
     96e:	c84a                	c.swsp	s2,16(sp)
     970:	ce06                	c.swsp	ra,28(sp)
     972:	359d                	c.jal	7d8 <analog_read_reg8>
     974:	04056593          	ori	a1,a0,64
     978:	892a                	c.mv	s2,a0
     97a:	0ff5f593          	andi	a1,a1,255
     97e:	08100513          	li	a0,129
     982:	0bf97913          	andi	s2,s2,191
     986:	4481                	c.li	s1,0
     988:	4475                	c.li	s0,29
     98a:	3529                	c.jal	794 <analog_write_reg8>
     98c:	000107a3          	sb	zero,15(sp)
     990:	00f10783          	lb	a5,15(sp)
     994:	0ff7f793          	andi	a5,a5,255
     998:	02f46063          	bltu	s0,a5,9b8 <pm_wait_bbpll_done+0x54>
     99c:	0001                	c.nop
     99e:	00f10783          	lb	a5,15(sp)
     9a2:	0785                	c.addi	a5,1
     9a4:	0ff7f793          	andi	a5,a5,255
     9a8:	00f107a3          	sb	a5,15(sp)
     9ac:	00f10783          	lb	a5,15(sp)
     9b0:	0ff7f793          	andi	a5,a5,255
     9b4:	fef474e3          	bgeu	s0,a5,99c <pm_wait_bbpll_done+0x38>
     9b8:	08800513          	li	a0,136
     9bc:	e1dff0ef          	jal	ra,7d8 <analog_read_reg8>
     9c0:	4255765b          	bbs	a0,5,9ec <pm_wait_bbpll_done+0x88>
     9c4:	cc95                	c.beqz	s1,a00 <pm_wait_bbpll_done+0x9c>
     9c6:	0414d35b          	beqc	s1,1,a0c <pm_wait_bbpll_done+0xa8>
     9ca:	85ca                	c.mv	a1,s2
     9cc:	08100513          	li	a0,129
     9d0:	dc5ff0ef          	jal	ra,794 <analog_write_reg8>
     9d4:	0024d65b          	beqc	s1,2,9e0 <pm_wait_bbpll_done+0x7c>
     9d8:	0485                	c.addi	s1,1
     9da:	0ff4f493          	andi	s1,s1,255
     9de:	b77d                	c.j	98c <pm_wait_bbpll_done+0x28>
     9e0:	40f2                	c.lwsp	ra,28(sp)
     9e2:	4462                	c.lwsp	s0,24(sp)
     9e4:	44d2                	c.lwsp	s1,20(sp)
     9e6:	4942                	c.lwsp	s2,16(sp)
     9e8:	6105                	c.addi16sp	sp,32
     9ea:	8082                	c.jr	ra
     9ec:	4462                	c.lwsp	s0,24(sp)
     9ee:	40f2                	c.lwsp	ra,28(sp)
     9f0:	44d2                	c.lwsp	s1,20(sp)
     9f2:	85ca                	c.mv	a1,s2
     9f4:	4942                	c.lwsp	s2,16(sp)
     9f6:	08100513          	li	a0,129
     9fa:	6105                	c.addi16sp	sp,32
     9fc:	d99ff06f          	j	794 <analog_write_reg8>
     a00:	04600593          	li	a1,70
     a04:	4505                	c.li	a0,1
     a06:	3379                	c.jal	794 <analog_write_reg8>
     a08:	fd1ff06f          	j	9d8 <pm_wait_bbpll_done+0x74>
     a0c:	04300593          	li	a1,67
     a10:	4505                	c.li	a0,1
     a12:	3349                	c.jal	794 <analog_write_reg8>
     a14:	fc5ff06f          	j	9d8 <pm_wait_bbpll_done+0x74>

00000a18 <pm_sleep_start>:
     a18:	1101                	c.addi	sp,-32
     a1a:	52dc272b          	lwgp	a4,27948 # 8752c <g_chip_version>
     a1e:	000006b7          	lui	a3,0x0
     a22:	ce06                	c.swsp	ra,28(sp)
     a24:	cc22                	c.swsp	s0,24(sp)
     a26:	ca26                	c.swsp	s1,20(sp)
     a28:	0ff00793          	li	a5,255
     a2c:	19a6c583          	lbu	a1,410(a3) # 19a <g_pm_suspend_power_cfg>
     a30:	00f71a63          	bne	a4,a5,a44 <pm_sleep_start+0x2c>
     a34:	0fe5f593          	andi	a1,a1,254
     a38:	07d00513          	li	a0,125
     a3c:	d59ff0ef          	jal	ra,794 <analog_write_reg8>
     a40:	00c0006f          	j	a4c <pm_sleep_start+0x34>
     a44:	07d00513          	li	a0,125
     a48:	d4dff0ef          	jal	ra,794 <analog_write_reg8>
     a4c:	801406b7          	lui	a3,0x80140
     a50:	10268783          	lb	a5,258(a3) # 80140102 <_DATA_LMA_START+0x6013526a>
     a54:	fe07fe5b          	bbs	a5,0,a50 <pm_sleep_start+0x38>
     a58:	10168703          	lb	a4,257(a3)
     a5c:	801407b7          	lui	a5,0x80140
     a60:	0ff77713          	andi	a4,a4,255
     a64:	01076713          	ori	a4,a4,16
     a68:	10e680a3          	sb	a4,257(a3)
     a6c:	32878703          	lb	a4,808(a5) # 80140328 <_DATA_LMA_START+0x60135490>
     a70:	be377e5b          	bbc	a4,3,a6c <pm_sleep_start+0x54>
     a74:	10178703          	lb	a4,257(a5)
     a78:	80140437          	lui	s0,0x80140
     a7c:	0fd77713          	andi	a4,a4,253
     a80:	10e780a3          	sb	a4,257(a5)
     a84:	10178703          	lb	a4,257(a5)
     a88:	0ef77713          	andi	a4,a4,239
     a8c:	10e780a3          	sb	a4,257(a5)
     a90:	fb900713          	li	a4,-71
     a94:	10e78023          	sb	a4,256(a5)
     a98:	10240783          	lb	a5,258(s0) # 80140102 <_DATA_LMA_START+0x6013526a>
     a9c:	fe07fe5b          	bbs	a5,0,a98 <pm_sleep_start+0x80>
     aa0:	10140783          	lb	a5,257(s0)
     aa4:	452d                	c.li	a0,11
     aa6:	0ff7f793          	andi	a5,a5,255
     aaa:	0107e793          	ori	a5,a5,16
     aae:	10f400a3          	sb	a5,257(s0)
     ab2:	320404a3          	sb	zero,809(s0)
     ab6:	330d                	c.jal	7d8 <analog_read_reg8>
     ab8:	0fc57593          	andi	a1,a0,252
     abc:	452d                	c.li	a0,11
     abe:	39d9                	c.jal	794 <analog_write_reg8>
     ac0:	08100513          	li	a0,129
     ac4:	d15ff0ef          	jal	ra,7d8 <analog_read_reg8>
     ac8:	f8056593          	ori	a1,a0,-128
     acc:	0ff5f593          	andi	a1,a1,255
     ad0:	08100513          	li	a0,129
     ad4:	cc1ff0ef          	jal	ra,794 <analog_write_reg8>
     ad8:	f8000793          	li	a5,-128
     adc:	1ef407a3          	sb	a5,495(s0)
     ae0:	03f00493          	li	s1,63
     ae4:	00012423          	sw	zero,8(sp)
     ae8:	47a2                	c.lwsp	a5,8(sp)
     aea:	00f4e763          	bltu	s1,a5,af8 <pm_sleep_start+0xe0>
     aee:	0001                	c.nop
     af0:	47a2                	c.lwsp	a5,8(sp)
     af2:	0785                	c.addi	a5,1
     af4:	c43e                	c.swsp	a5,8(sp)
     af6:	bfcd                	c.j	ae8 <pm_sleep_start+0xd0>
     af8:	08100513          	li	a0,129
     afc:	cddff0ef          	jal	ra,7d8 <analog_read_reg8>
     b00:	07f57593          	andi	a1,a0,127
     b04:	08100513          	li	a0,129
     b08:	c8dff0ef          	jal	ra,794 <analog_write_reg8>
     b0c:	00b00513          	li	a0,11
     b10:	cc9ff0ef          	jal	ra,7d8 <analog_read_reg8>
     b14:	00356593          	ori	a1,a0,3
     b18:	0ff5f593          	andi	a1,a1,255
     b1c:	452d                	c.li	a0,11
     b1e:	399d                	c.jal	794 <analog_write_reg8>
     b20:	08000593          	li	a1,128
     b24:	07d00513          	li	a0,125
     b28:	c6dff0ef          	jal	ra,794 <analog_write_reg8>
     b2c:	801407b7          	lui	a5,0x80140
     b30:	329784a3          	sb	s1,809(a5) # 80140329 <_DATA_LMA_START+0x60135491>
     b34:	10178683          	lb	a3,257(a5)
     b38:	80140737          	lui	a4,0x80140
     b3c:	0ef6f693          	andi	a3,a3,239
     b40:	10d780a3          	sb	a3,257(a5)
     b44:	fab00693          	li	a3,-85
     b48:	10d78023          	sb	a3,256(a5)
     b4c:	10270783          	lb	a5,258(a4) # 80140102 <_DATA_LMA_START+0x6013526a>
     b50:	fe07fe5b          	bbs	a5,0,b4c <pm_sleep_start+0x134>
     b54:	10170783          	lb	a5,257(a4)
     b58:	12b00693          	li	a3,299
     b5c:	0ff7f793          	andi	a5,a5,255
     b60:	0107e793          	ori	a5,a5,16
     b64:	10f700a3          	sb	a5,257(a4)
     b68:	00012623          	sw	zero,12(sp)
     b6c:	47b2                	c.lwsp	a5,12(sp)
     b6e:	00f6e763          	bltu	a3,a5,b7c <pm_sleep_start+0x164>
     b72:	0001                	c.nop
     b74:	47b2                	c.lwsp	a5,12(sp)
     b76:	0785                	c.addi	a5,1
     b78:	c63e                	c.swsp	a5,12(sp)
     b7a:	bfcd                	c.j	b6c <pm_sleep_start+0x154>
     b7c:	08800513          	li	a0,136
     b80:	c59ff0ef          	jal	ra,7d8 <analog_read_reg8>
     b84:	be757c5b          	bbc	a0,7,b7c <pm_sleep_start+0x164>
     b88:	08800513          	li	a0,136
     b8c:	c4dff0ef          	jal	ra,7d8 <analog_read_reg8>
     b90:	be757c5b          	bbc	a0,7,b88 <pm_sleep_start+0x170>
     b94:	08800513          	li	a0,136
     b98:	c41ff0ef          	jal	ra,7d8 <analog_read_reg8>
     b9c:	be757c5b          	bbc	a0,7,b94 <pm_sleep_start+0x17c>
     ba0:	4462                	c.lwsp	s0,24(sp)
     ba2:	40f2                	c.lwsp	ra,28(sp)
     ba4:	44d2                	c.lwsp	s1,20(sp)
     ba6:	6105                	c.addi16sp	sp,32
     ba8:	dbdff06f          	j	964 <pm_wait_bbpll_done>

00000bac <dr_putchar>:
     bac:	1101                	c.addi	sp,-32
     bae:	ca26                	c.swsp	s1,20(sp)
     bb0:	cc22                	c.swsp	s0,24(sp)
     bb2:	ce06                	c.swsp	ra,28(sp)
     bb4:	c84a                	c.swsp	s2,16(sp)
     bb6:	509c148b          	addigp	s1,27912 # 87508 <init_flag.4915>
     bba:	842a                	c.mv	s0,a0
     bbc:	0004c783          	lbu	a5,0(s1)
     bc0:	0c17d25b          	beqc	a5,1,c84 <dr_putchar+0xd8>
     bc4:	801407b7          	lui	a5,0x80140
     bc8:	30378703          	lb	a4,771(a5) # 80140303 <_DATA_LMA_START+0x6013546b>
     bcc:	30378783          	lb	a5,771(a5)
     bd0:	0fe77713          	andi	a4,a4,254
     bd4:	0ff7f793          	andi	a5,a5,255
     bd8:	0017e793          	ori	a5,a5,1
     bdc:	00e10223          	sb	a4,4(sp)
     be0:	86be                	c.mv	a3,a5
     be2:	4004735b          	bbs	s0,0,be8 <dr_putchar+0x3c>
     be6:	86ba                	c.mv	a3,a4
     be8:	00d102a3          	sb	a3,5(sp)
     bec:	86be                	c.mv	a3,a5
     bee:	4014735b          	bbs	s0,1,bf4 <dr_putchar+0x48>
     bf2:	86ba                	c.mv	a3,a4
     bf4:	00d10323          	sb	a3,6(sp)
     bf8:	86be                	c.mv	a3,a5
     bfa:	4024735b          	bbs	s0,2,c00 <dr_putchar+0x54>
     bfe:	86ba                	c.mv	a3,a4
     c00:	00d103a3          	sb	a3,7(sp)
     c04:	86be                	c.mv	a3,a5
     c06:	4034735b          	bbs	s0,3,c0c <dr_putchar+0x60>
     c0a:	86ba                	c.mv	a3,a4
     c0c:	00d10423          	sb	a3,8(sp)
     c10:	86be                	c.mv	a3,a5
     c12:	4044735b          	bbs	s0,4,c18 <dr_putchar+0x6c>
     c16:	86ba                	c.mv	a3,a4
     c18:	00d104a3          	sb	a3,9(sp)
     c1c:	86be                	c.mv	a3,a5
     c1e:	4054735b          	bbs	s0,5,c24 <dr_putchar+0x78>
     c22:	86ba                	c.mv	a3,a4
     c24:	00d10523          	sb	a3,10(sp)
     c28:	86be                	c.mv	a3,a5
     c2a:	4064735b          	bbs	s0,6,c30 <dr_putchar+0x84>
     c2e:	86ba                	c.mv	a3,a4
     c30:	00d105a3          	sb	a3,11(sp)
     c34:	801d                	c.srli	s0,0x7
     c36:	c019                	c.beqz	s0,c3c <dr_putchar+0x90>
     c38:	00f00733          	add	a4,zero,a5
     c3c:	00f106a3          	sb	a5,13(sp)
     c40:	801407b7          	lui	a5,0x80140
     c44:	00e10623          	sb	a4,12(sp)
     c48:	2007a603          	lw	a2,512(a5) # 80140200 <_DATA_LMA_START+0x60135368>
     c4c:	00410513          	addi	a0,sp,4
     c50:	00e10813          	addi	a6,sp,14
     c54:	801406b7          	lui	a3,0x80140
     c58:	08900593          	li	a1,137
     c5c:	2006a783          	lw	a5,512(a3) # 80140200 <_DATA_LMA_START+0x60135368>
     c60:	40c78733          	sub	a4,a5,a2
     c64:	fee5fce3          	bgeu	a1,a4,c5c <dr_putchar+0xb0>
     c68:	00054703          	lbu	a4,0(a0)
     c6c:	0505                	c.addi	a0,1
     c6e:	30e681a3          	sb	a4,771(a3)
     c72:	863e                	c.mv	a2,a5
     c74:	ff0514e3          	bne	a0,a6,c5c <dr_putchar+0xb0>
     c78:	40f2                	c.lwsp	ra,28(sp)
     c7a:	4462                	c.lwsp	s0,24(sp)
     c7c:	44d2                	c.lwsp	s1,20(sp)
     c7e:	4942                	c.lwsp	s2,16(sp)
     c80:	6105                	c.addi16sp	sp,32
     c82:	8082                	c.jr	ra
     c84:	80140937          	lui	s2,0x80140
     c88:	30690783          	lb	a5,774(s2) # 80140306 <_DATA_LMA_START+0x6013546e>
     c8c:	4539                	c.li	a0,14
     c8e:	0ff7f793          	andi	a5,a5,255
     c92:	0017e793          	ori	a5,a5,1
     c96:	30f90323          	sb	a5,774(s2)
     c9a:	3e3d                	c.jal	7d8 <analog_read_reg8>
     c9c:	0fc57593          	andi	a1,a0,252
     ca0:	0015e593          	ori	a1,a1,1
     ca4:	4539                	c.li	a0,14
     ca6:	34fd                	c.jal	794 <analog_write_reg8>
     ca8:	30290783          	lb	a5,770(s2)
     cac:	0fe7f793          	andi	a5,a5,254
     cb0:	30f90123          	sb	a5,770(s2)
     cb4:	30390783          	lb	a5,771(s2)
     cb8:	0ff7f793          	andi	a5,a5,255
     cbc:	0017e793          	ori	a5,a5,1
     cc0:	30f901a3          	sb	a5,771(s2)
     cc4:	00048023          	sb	zero,0(s1)
     cc8:	efdff06f          	j	bc4 <dr_putchar+0x18>

00000ccc <pm_sleep_wakeup_ram.constprop.3>:
     ccc:	1101                	c.addi	sp,-32
     cce:	c452                	c.swsp	s4,8(sp)
     cd0:	8a2a                	c.mv	s4,a0
     cd2:	ce06                	c.swsp	ra,28(sp)
     cd4:	cc22                	c.swsp	s0,24(sp)
     cd6:	ca26                	c.swsp	s1,20(sp)
     cd8:	c84a                	c.swsp	s2,16(sp)
     cda:	c64e                	c.swsp	s3,12(sp)
     cdc:	c256                	c.swsp	s5,4(sp)
     cde:	c05a                	c.swsp	s6,0(sp)
     ce0:	300029f3          	csrr	s3,mstatus
     ce4:	0089f993          	andi	s3,s3,8
     ce8:	00098663          	beqz	s3,cf4 <pm_sleep_wakeup_ram.constprop.3+0x28>
     cec:	300477f3          	csrrci	a5,mstatus,8
     cf0:	0ff0000f          	fence
     cf4:	801407b7          	lui	a5,0x80140
     cf8:	2147a683          	lw	a3,532(a5) # 80140214 <_DATA_LMA_START+0x6013537c>
     cfc:	def5                	c.beqz	a3,cf8 <pm_sleep_wakeup_ram.constprop.3+0x2c>
     cfe:	00000437          	lui	s0,0x0
     d02:	15840693          	addi	a3,s0,344 # 158 <_AES_VMA_END>
     d06:	2147a783          	lw	a5,532(a5)
     d0a:	5298                	c.lw	a4,32(a3)
     d0c:	da9c                	c.sw	a5,48(a3)
     d0e:	15840413          	addi	s0,s0,344
     d12:	0792                	c.slli	a5,0x4
     d14:	cb11                	c.beqz	a4,d28 <pm_sleep_wakeup_ram.constprop.3+0x5c>
     d16:	03444603          	lbu	a2,52(s0)
     d1a:	4691                	c.li	a3,4
     d1c:	8f99                	c.sub	a5,a4
     d1e:	8e91                	c.sub	a3,a2
     d20:	40d7d7b3          	sra	a5,a5,a3
     d24:	00e787b3          	add	a5,a5,a4
     d28:	d01c                	c.sw	a5,32(s0)
     d2a:	5004                	c.lw	s1,32(s0)
     d2c:	485c                	c.lw	a5,20(s0)
     d2e:	8491                	c.srai	s1,0x4
     d30:	02f487b3          	mul	a5,s1,a5
     d34:	80140937          	lui	s2,0x80140
     d38:	20092a83          	lw	s5,512(s2) # 80140200 <_DATA_LMA_START+0x60135368>
     d3c:	e0000737          	lui	a4,0xe0000
     d40:	415a0ab3          	sub	s5,s4,s5
     d44:	87c9                	c.srai	a5,0x12
     d46:	94be                	c.add	s1,a5
     d48:	0486                	c.slli	s1,0x1
     d4a:	dc04                	c.sw	s1,56(s0)
     d4c:	03577063          	bgeu	a4,s5,d6c <pm_sleep_wakeup_ram.constprop.3+0xa0>
     d50:	00098663          	beqz	s3,d5c <pm_sleep_wakeup_ram.constprop.3+0x90>
     d54:	3009a9f3          	csrrs	s3,mstatus,s3
     d58:	0ff0000f          	fence
     d5c:	06400513          	li	a0,100
     d60:	a79ff0ef          	jal	ra,7d8 <analog_read_reg8>
     d64:	01f57513          	andi	a0,a0,31
     d68:	25c0006f          	j	fc4 <pm_sleep_wakeup_ram.constprop.3+0x2f8>
     d6c:	04a41783          	lh	a5,74(s0)
     d70:	1137a7db          	bfoz	a5,a5,4,19
     d74:	02fafe63          	bgeu	s5,a5,db0 <pm_sleep_wakeup_ram.constprop.3+0xe4>
     d78:	45fd                	c.li	a1,31
     d7a:	06400513          	li	a0,100
     d7e:	801404b7          	lui	s1,0x80140
     d82:	20092403          	lw	s0,512(s2)
     d86:	3439                	c.jal	794 <analog_write_reg8>
     d88:	06400513          	li	a0,100
     d8c:	a4dff0ef          	jal	ra,7d8 <analog_read_reg8>
     d90:	2004a783          	lw	a5,512(s1) # 80140200 <_DATA_LMA_START+0x60135368>
     d94:	897d                	c.andi	a0,31
     d96:	8f81                	c.sub	a5,s0
     d98:	0157f463          	bgeu	a5,s5,da0 <pm_sleep_wakeup_ram.constprop.3+0xd4>
     d9c:	fe0506e3          	beqz	a0,d88 <pm_sleep_wakeup_ram.constprop.3+0xbc>
     da0:	22098263          	beqz	s3,fc4 <pm_sleep_wakeup_ram.constprop.3+0x2f8>
     da4:	3009a9f3          	csrrs	s3,mstatus,s3
     da8:	0ff0000f          	fence
     dac:	2180006f          	j	fc4 <pm_sleep_wakeup_ram.constprop.3+0x2f8>
     db0:	1e890a83          	lb	s5,488(s2)
     db4:	00faf793          	andi	a5,s5,15
     db8:	1ef90423          	sb	a5,488(s2)
     dbc:	1d890b03          	lb	s6,472(s2)
     dc0:	0f8b7793          	andi	a5,s6,248
     dc4:	1cf90c23          	sb	a5,472(s2)
     dc8:	00100793          	li	a5,1
     dcc:	20f90c23          	sb	a5,536(s2)
     dd0:	20a90783          	lb	a5,522(s2)
     dd4:	0f77f793          	andi	a5,a5,247
     dd8:	20f90523          	sb	a5,522(s2)
     ddc:	d7cff0ef          	jal	ra,358 <clock_get_32k_tick>
     de0:	20092703          	lw	a4,512(s2)
     de4:	20b90783          	lb	a5,523(s2)
     de8:	5414                	c.lw	a3,40(s0)
     dea:	0ff7f793          	andi	a5,a5,255
     dee:	0027e793          	ori	a5,a5,2
     df2:	c468                	c.sw	a0,76(s0)
     df4:	c418                	c.sw	a4,8(s0)
     df6:	03444603          	lbu	a2,52(s0)
     dfa:	40d506b3          	sub	a3,a0,a3
     dfe:	20f905a3          	sb	a5,523(s2)
     e02:	d454                	c.sw	a3,44(s0)
     e04:	e215                	c.bnez	a2,e28 <pm_sleep_wakeup_ram.constprop.3+0x15c>
     e06:	445c                	c.lw	a5,12(s0)
     e08:	c385                	c.beqz	a5,e28 <pm_sleep_wakeup_ram.constprop.3+0x15c>
     e0a:	05044783          	lbu	a5,80(s0)
     e0e:	ef89                	c.bnez	a5,e28 <pm_sleep_wakeup_ram.constprop.3+0x15c>
     e10:	01042783          	lw	a5,16(s0)
     e14:	000276b7          	lui	a3,0x27
     e18:	40f507b3          	sub	a5,a0,a5
     e1c:	6c07a7db          	bfoz	a5,a5,27,0
     e20:	10068693          	addi	a3,a3,256 # 27100 <BIN_SIZE+0x14d2e>
     e24:	00f6f863          	bgeu	a3,a5,e34 <pm_sleep_wakeup_ram.constprop.3+0x168>
     e28:	00176713          	ori	a4,a4,1
     e2c:	02040a23          	sb	zero,52(s0)
     e30:	c808                	c.sw	a0,16(s0)
     e32:	c458                	c.sw	a4,12(s0)
     e34:	02000593          	li	a1,32
     e38:	04b00513          	li	a0,75
     e3c:	959ff0ef          	jal	ra,794 <analog_write_reg8>
     e40:	45fd                	c.li	a1,31
     e42:	06400513          	li	a0,100
     e46:	32b9                	c.jal	794 <analog_write_reg8>
     e48:	03000593          	li	a1,48
     e4c:	07e00513          	li	a0,126
     e50:	945ff0ef          	jal	ra,794 <analog_write_reg8>
     e54:	0f900593          	li	a1,249
     e58:	04d00513          	li	a0,77
     e5c:	939ff0ef          	jal	ra,794 <analog_write_reg8>
     e60:	4585                	c.li	a1,1
     e62:	07f00513          	li	a0,127
     e66:	323d                	c.jal	794 <analog_write_reg8>
     e68:	04841783          	lh	a5,72(s0)
     e6c:	0ee00593          	li	a1,238
     e70:	1137a7db          	bfoz	a5,a5,4,19
     e74:	04c00513          	li	a0,76
     e78:	40fa0933          	sub	s2,s4,a5
     e7c:	919ff0ef          	jal	ra,794 <analog_write_reg8>
     e80:	05441583          	lh	a1,84(s0)
     e84:	04000513          	li	a0,64
     e88:	0ff5f593          	andi	a1,a1,255
     e8c:	909ff0ef          	jal	ra,794 <analog_write_reg8>
     e90:	445c                	c.lw	a5,12(s0)
     e92:	07ff0737          	lui	a4,0x7ff0
     e96:	40f907b3          	sub	a5,s2,a5
     e9a:	00f77763          	bgeu	a4,a5,ea8 <pm_sleep_wakeup_ram.constprop.3+0x1dc>
     e9e:	4705                	c.li	a4,1
     ea0:	00e40223          	sb	a4,4(s0)
     ea4:	0080006f          	j	eac <pm_sleep_wakeup_ram.constprop.3+0x1e0>
     ea8:	00040223          	sb	zero,4(s0)
     eac:	00444683          	lbu	a3,4(s0)
     eb0:	4808                	c.lw	a0,16(s0)
     eb2:	5c18                	c.lw	a4,56(s0)
     eb4:	c691                	c.beqz	a3,ec0 <pm_sleep_wakeup_ram.constprop.3+0x1f4>
     eb6:	02e7d7b3          	divu	a5,a5,a4
     eba:	0796                	c.slli	a5,0x5
     ebc:	953e                	c.add	a0,a5
     ebe:	a039                	c.j	ecc <pm_sleep_wakeup_ram.constprop.3+0x200>
     ec0:	8085                	c.srli	s1,0x1
     ec2:	0796                	c.slli	a5,0x5
     ec4:	97a6                	c.add	a5,s1
     ec6:	02e7d7b3          	divu	a5,a5,a4
     eca:	953e                	c.add	a0,a5
     ecc:	be0ff0ef          	jal	ra,2ac <clock_set_32k_tick>
     ed0:	06400513          	li	a0,100
     ed4:	905ff0ef          	jal	ra,7d8 <analog_read_reg8>
     ed8:	01f57513          	andi	a0,a0,31
     edc:	e901                	c.bnez	a0,eec <pm_sleep_wakeup_ram.constprop.3+0x220>
     ede:	3e2d                	c.jal	a18 <pm_sleep_start>
     ee0:	00100593          	li	a1,1
     ee4:	07f00513          	li	a0,127
     ee8:	8adff0ef          	jal	ra,794 <analog_write_reg8>
     eec:	80140737          	lui	a4,0x80140
     ef0:	02000793          	li	a5,32
     ef4:	1ef707a3          	sb	a5,495(a4) # 801401ef <_DATA_LMA_START+0x60135357>
     ef8:	00200793          	li	a5,2
     efc:	20f70c23          	sb	a5,536(a4)
     f00:	20a70783          	lb	a5,522(a4)
     f04:	0ff7f793          	andi	a5,a5,255
     f08:	00c7e793          	ori	a5,a5,12
     f0c:	20f70523          	sb	a5,522(a4)
     f10:	c48ff0ef          	jal	ra,358 <clock_get_32k_tick>
     f14:	00444783          	lbu	a5,4(s0)
     f18:	cf81                	c.beqz	a5,f30 <pm_sleep_wakeup_ram.constprop.3+0x264>
     f1a:	481c                	c.lw	a5,16(s0)
     f1c:	5c14                	c.lw	a3,56(s0)
     f1e:	40f507b3          	sub	a5,a0,a5
     f22:	4458                	c.lw	a4,12(s0)
     f24:	0785                	c.addi	a5,1
     f26:	8395                	c.srli	a5,0x5
     f28:	c4d7977f          	maddr32	a4,a5,a3
     f2c:	c418                	c.sw	a4,8(s0)
     f2e:	a829                	c.j	f48 <pm_sleep_wakeup_ram.constprop.3+0x27c>
     f30:	481c                	c.lw	a5,16(s0)
     f32:	5c18                	c.lw	a4,56(s0)
     f34:	40f507b3          	sub	a5,a0,a5
     f38:	0785                	c.addi	a5,1
     f3a:	02e787b3          	mul	a5,a5,a4
     f3e:	4458                	c.lw	a4,12(s0)
     f40:	8395                	c.srli	a5,0x5
     f42:	97ba                	c.add	a5,a4
     f44:	00f42423          	sw	a5,8(s0)
     f48:	481c                	c.lw	a5,16(s0)
     f4a:	4414                	c.lw	a3,8(s0)
     f4c:	40f507b3          	sub	a5,a0,a5
     f50:	0785                	c.addi	a5,1
     f52:	0505                	c.addi	a0,1
     f54:	d05c                	c.sw	a5,36(s0)
     f56:	0685                	c.addi	a3,1
     f58:	02a42423          	sw	a0,40(s0)
     f5c:	801407b7          	lui	a5,0x80140
     f60:	80140737          	lui	a4,0x80140
     f64:	20d7a023          	sw	a3,512(a5) # 80140200 <_DATA_LMA_START+0x60135368>
     f68:	20b70783          	lb	a5,523(a4) # 8014020b <_DATA_LMA_START+0x60135373>
     f6c:	be77fe5b          	bbc	a5,7,f68 <pm_sleep_wakeup_ram.constprop.3+0x29c>
     f70:	20070c23          	sb	zero,536(a4)
     f74:	1d670c23          	sb	s6,472(a4)
     f78:	06400513          	li	a0,100
     f7c:	1f570423          	sb	s5,488(a4)
     f80:	859ff0ef          	jal	ra,7d8 <analog_read_reg8>
     f84:	531c170b          	addigp	a4,27952 # 87530 <g_pm_status_info>
     f88:	00a700a3          	sb	a0,1(a4)
     f8c:	531c178b          	addigp	a5,27952 # 87530 <g_pm_status_info>
     f90:	00157c5b          	bbc	a0,1,fa8 <pm_sleep_wakeup_ram.constprop.3+0x2dc>
     f94:	80140637          	lui	a2,0x80140
     f98:	400006b7          	lui	a3,0x40000
     f9c:	20062703          	lw	a4,512(a2) # 80140200 <_DATA_LMA_START+0x60135368>
     fa0:	41470733          	sub	a4,a4,s4
     fa4:	fee6ece3          	bltu	a3,a4,f9c <pm_sleep_wakeup_ram.constprop.3+0x2d0>
     fa8:	00098663          	beqz	s3,fb4 <pm_sleep_wakeup_ram.constprop.3+0x2e8>
     fac:	3009a9f3          	csrrs	s3,mstatus,s3
     fb0:	0ff0000f          	fence
     fb4:	0017c783          	lbu	a5,1(a5)
     fb8:	10000513          	li	a0,256
     fbc:	c781                	c.beqz	a5,fc4 <pm_sleep_wakeup_ram.constprop.3+0x2f8>
     fbe:	40000537          	lui	a0,0x40000
     fc2:	8d5d                	c.or	a0,a5
     fc4:	40f2                	c.lwsp	ra,28(sp)
     fc6:	4462                	c.lwsp	s0,24(sp)
     fc8:	44d2                	c.lwsp	s1,20(sp)
     fca:	4942                	c.lwsp	s2,16(sp)
     fcc:	49b2                	c.lwsp	s3,12(sp)
     fce:	4a22                	c.lwsp	s4,8(sp)
     fd0:	4a92                	c.lwsp	s5,4(sp)
     fd2:	4b02                	c.lwsp	s6,0(sp)
     fd4:	6105                	c.addi16sp	sp,32
     fd6:	8082                	c.jr	ra

00000fd8 <trap_entry>:
     fd8:	1101                	c.addi	sp,-32
     fda:	ce2a                	c.swsp	a0,28(sp)
     fdc:	cc2e                	c.swsp	a1,24(sp)
     fde:	ca32                	c.swsp	a2,20(sp)
     fe0:	c836                	c.swsp	a3,16(sp)
     fe2:	c63a                	c.swsp	a4,12(sp)
     fe4:	c43e                	c.swsp	a5,8(sp)
     fe6:	34202773          	csrr	a4,mcause
     fea:	000007b7          	lui	a5,0x0
     fee:	15878793          	addi	a5,a5,344 # 158 <_AES_VMA_END>
     ff2:	03c78683          	lb	a3,60(a5)
     ff6:	0ff6f693          	andi	a3,a3,255
     ffa:	c2dd                	c.beqz	a3,10a0 <trap_entry+0xc8>
     ffc:	34102673          	csrr	a2,mepc
    1000:	300025f3          	csrr	a1,mstatus
    1004:	7c4026f3          	csrr	a3,mxstatus
    1008:	02074a63          	bltz	a4,103c <trap_entry+0x64>
    100c:	34302773          	csrr	a4,mtval
    1010:	52ec44ab          	swgp	a4,27944 # 87528 <exception_mtval>
    1014:	34102773          	csrr	a4,mepc
    1018:	52ec40ab          	swgp	a4,27936 # 87520 <exception_mepc>
    101c:	30002773          	csrr	a4,mstatus
    1020:	52ec42ab          	swgp	a4,27940 # 87524 <exception_mstatus>
    1024:	34202773          	csrr	a4,mcause
    1028:	50ec4cab          	swgp	a4,27928 # 87518 <_DATA_VMA_END>
    102c:	7c902773          	csrr	a4,mdcause
    1030:	50ec4eab          	swgp	a4,27932 # 8751c <exception_mdcause>
    1034:	0001                	c.nop
    1036:	0001                	c.nop
    1038:	ffdff06f          	j	1034 <trap_entry+0x5c>
    103c:	7807275b          	bfoz	a4,a4,30,0
    1040:	0677545b          	beqc	a4,7,10a8 <trap_entry+0xd0>
    1044:	bc37645b          	bnec	a4,3,100c <trap_entry+0x34>
    1048:	e6600737          	lui	a4,0xe6600
    104c:	4358                	c.lw	a4,4(a4)
    104e:	03c78703          	lb	a4,60(a5)
    1052:	0ff77713          	andi	a4,a4,255
    1056:	c319                	c.beqz	a4,105c <trap_entry+0x84>
    1058:	30046773          	csrrsi	a4,mstatus,8
    105c:	03c78703          	lb	a4,60(a5)
    1060:	0ff77713          	andi	a4,a4,255
    1064:	00070463          	beqz	a4,106c <trap_entry+0x94>
    1068:	30047773          	csrrci	a4,mstatus,8
    106c:	e6600737          	lui	a4,0xe6600
    1070:	4505                	c.li	a0,1
    1072:	c348                	c.sw	a0,4(a4)
    1074:	03c78783          	lb	a5,60(a5)
    1078:	0ff7f793          	andi	a5,a5,255
    107c:	00078863          	beqz	a5,108c <trap_entry+0xb4>
    1080:	30059073          	csrw	mstatus,a1
    1084:	34161073          	csrw	mepc,a2
    1088:	7c469073          	csrw	mxstatus,a3
    108c:	4572                	c.lwsp	a0,28(sp)
    108e:	45e2                	c.lwsp	a1,24(sp)
    1090:	4652                	c.lwsp	a2,20(sp)
    1092:	46c2                	c.lwsp	a3,16(sp)
    1094:	4732                	c.lwsp	a4,12(sp)
    1096:	47a2                	c.lwsp	a5,8(sp)
    1098:	02010113          	addi	sp,sp,32
    109c:	30200073          	mret
    10a0:	4681                	c.li	a3,0
    10a2:	4581                	c.li	a1,0
    10a4:	4601                	c.li	a2,0
    10a6:	b78d                	c.j	1008 <trap_entry+0x30>
    10a8:	03c78703          	lb	a4,60(a5)
    10ac:	0ff77713          	andi	a4,a4,255
    10b0:	00070863          	beqz	a4,10c0 <trap_entry+0xe8>
    10b4:	08000713          	li	a4,128
    10b8:	30473773          	csrrc	a4,mie,a4
    10bc:	30046773          	csrrsi	a4,mstatus,8
    10c0:	03c78703          	lb	a4,60(a5)
    10c4:	0ff77713          	andi	a4,a4,255
    10c8:	d755                	c.beqz	a4,1074 <trap_entry+0x9c>
    10ca:	30047773          	csrrci	a4,mstatus,8
    10ce:	08000713          	li	a4,128
    10d2:	30472773          	csrrs	a4,mie,a4
    10d6:	bf79                	c.j	1074 <trap_entry+0x9c>
    10d8:	0001                	c.nop
	...

00001100 <__vectors>:
    1100:	0fd8                	c.addi4spn	a4,sp,980
    1102:	0000                	unimp
    1104:	2134                	c.fld	fa3,64(a0)
    1106:	0000                	unimp
    1108:	2134                	c.fld	fa3,64(a0)
    110a:	0000                	unimp
    110c:	2134                	c.fld	fa3,64(a0)
    110e:	0000                	unimp
    1110:	2134                	c.fld	fa3,64(a0)
    1112:	0000                	unimp
    1114:	2134                	c.fld	fa3,64(a0)
    1116:	0000                	unimp
    1118:	2134                	c.fld	fa3,64(a0)
    111a:	0000                	unimp
    111c:	2134                	c.fld	fa3,64(a0)
    111e:	0000                	unimp
    1120:	2134                	c.fld	fa3,64(a0)
    1122:	0000                	unimp
    1124:	2134                	c.fld	fa3,64(a0)
    1126:	0000                	unimp
    1128:	2134                	c.fld	fa3,64(a0)
    112a:	0000                	unimp
    112c:	2134                	c.fld	fa3,64(a0)
    112e:	0000                	unimp
    1130:	2134                	c.fld	fa3,64(a0)
    1132:	0000                	unimp
    1134:	2134                	c.fld	fa3,64(a0)
    1136:	0000                	unimp
    1138:	2134                	c.fld	fa3,64(a0)
    113a:	0000                	unimp
    113c:	2134                	c.fld	fa3,64(a0)
    113e:	0000                	unimp
    1140:	2134                	c.fld	fa3,64(a0)
    1142:	0000                	unimp
    1144:	2134                	c.fld	fa3,64(a0)
    1146:	0000                	unimp
    1148:	2134                	c.fld	fa3,64(a0)
    114a:	0000                	unimp
    114c:	2134                	c.fld	fa3,64(a0)
    114e:	0000                	unimp
    1150:	2134                	c.fld	fa3,64(a0)
    1152:	0000                	unimp
    1154:	2134                	c.fld	fa3,64(a0)
    1156:	0000                	unimp
    1158:	2134                	c.fld	fa3,64(a0)
    115a:	0000                	unimp
    115c:	2134                	c.fld	fa3,64(a0)
    115e:	0000                	unimp
    1160:	2134                	c.fld	fa3,64(a0)
    1162:	0000                	unimp
    1164:	2134                	c.fld	fa3,64(a0)
    1166:	0000                	unimp
    1168:	2134                	c.fld	fa3,64(a0)
    116a:	0000                	unimp
    116c:	2134                	c.fld	fa3,64(a0)
    116e:	0000                	unimp
    1170:	2134                	c.fld	fa3,64(a0)
    1172:	0000                	unimp
    1174:	2134                	c.fld	fa3,64(a0)
    1176:	0000                	unimp
    1178:	2134                	c.fld	fa3,64(a0)
    117a:	0000                	unimp
    117c:	2134                	c.fld	fa3,64(a0)
    117e:	0000                	unimp
    1180:	2134                	c.fld	fa3,64(a0)
    1182:	0000                	unimp
    1184:	2134                	c.fld	fa3,64(a0)
    1186:	0000                	unimp
    1188:	2134                	c.fld	fa3,64(a0)
    118a:	0000                	unimp
    118c:	2134                	c.fld	fa3,64(a0)
    118e:	0000                	unimp
    1190:	2134                	c.fld	fa3,64(a0)
    1192:	0000                	unimp
    1194:	2134                	c.fld	fa3,64(a0)
    1196:	0000                	unimp
    1198:	2134                	c.fld	fa3,64(a0)
    119a:	0000                	unimp
    119c:	2134                	c.fld	fa3,64(a0)
    119e:	0000                	unimp
    11a0:	2134                	c.fld	fa3,64(a0)
    11a2:	0000                	unimp
    11a4:	2134                	c.fld	fa3,64(a0)
    11a6:	0000                	unimp
    11a8:	2134                	c.fld	fa3,64(a0)
    11aa:	0000                	unimp
    11ac:	2134                	c.fld	fa3,64(a0)
    11ae:	0000                	unimp
    11b0:	2134                	c.fld	fa3,64(a0)
    11b2:	0000                	unimp
    11b4:	2134                	c.fld	fa3,64(a0)
    11b6:	0000                	unimp
    11b8:	2134                	c.fld	fa3,64(a0)
    11ba:	0000                	unimp
    11bc:	2134                	c.fld	fa3,64(a0)
    11be:	0000                	unimp
    11c0:	2134                	c.fld	fa3,64(a0)
    11c2:	0000                	unimp
    11c4:	2134                	c.fld	fa3,64(a0)
    11c6:	0000                	unimp
    11c8:	2134                	c.fld	fa3,64(a0)
    11ca:	0000                	unimp
    11cc:	2134                	c.fld	fa3,64(a0)
    11ce:	0000                	unimp
    11d0:	2134                	c.fld	fa3,64(a0)
    11d2:	0000                	unimp
    11d4:	2134                	c.fld	fa3,64(a0)
    11d6:	0000                	unimp
    11d8:	2134                	c.fld	fa3,64(a0)
    11da:	0000                	unimp
    11dc:	2134                	c.fld	fa3,64(a0)
    11de:	0000                	unimp
    11e0:	2134                	c.fld	fa3,64(a0)
    11e2:	0000                	unimp
    11e4:	2134                	c.fld	fa3,64(a0)
    11e6:	0000                	unimp
    11e8:	2134                	c.fld	fa3,64(a0)
    11ea:	0000                	unimp
    11ec:	2134                	c.fld	fa3,64(a0)
    11ee:	0000                	unimp
    11f0:	2134                	c.fld	fa3,64(a0)
    11f2:	0000                	unimp
    11f4:	2134                	c.fld	fa3,64(a0)
    11f6:	0000                	unimp
    11f8:	2134                	c.fld	fa3,64(a0)
    11fa:	0000                	unimp
    11fc:	2134                	c.fld	fa3,64(a0)
    11fe:	0000                	unimp
    1200:	0001                	c.nop
	...

00001204 <flash_read_uid.constprop.6>:
    1204:	1141                	c.addi	sp,-16
    1206:	c606                	c.swsp	ra,12(sp)
    1208:	872a                	c.mv	a4,a0
    120a:	7d047073          	csrci	mmisc_ctl,8
    120e:	47c1                	c.li	a5,16
    1210:	4691                	c.li	a3,4
    1212:	4601                	c.li	a2,0
    1214:	00000593          	li	a1,0
    1218:	04b00513          	li	a0,75
    121c:	aacff0ef          	jal	ra,4c8 <flash_mspi_read_ram>
    1220:	7d046073          	csrsi	mmisc_ctl,8
    1224:	40b2                	c.lwsp	ra,12(sp)
    1226:	0141                	c.addi	sp,16
    1228:	00008067          	ret

0000122c <flash_read_mid>:
    122c:	1101                	c.addi	sp,-32
    122e:	ce06                	c.swsp	ra,28(sp)
    1230:	c602                	c.swsp	zero,12(sp)
    1232:	7d047073          	csrci	mmisc_ctl,8
    1236:	478d                	c.li	a5,3
    1238:	0078                	c.addi4spn	a4,sp,12
    123a:	4681                	c.li	a3,0
    123c:	4601                	c.li	a2,0
    123e:	4581                	c.li	a1,0
    1240:	09f00513          	li	a0,159
    1244:	a84ff0ef          	jal	ra,4c8 <flash_mspi_read_ram>
    1248:	7d046073          	csrsi	mmisc_ctl,8
    124c:	40f2                	c.lwsp	ra,28(sp)
    124e:	4532                	c.lwsp	a0,12(sp)
    1250:	6105                	c.addi16sp	sp,32
    1252:	8082                	c.jr	ra

00001254 <flash_read_mid_uid_with_check>:
    1254:	801f978b          	addigp	a5,-2048 # 80000 <_DATA_VMA_START>
    1258:	4798                	c.lw	a4,8(a5)
    125a:	4390                	c.lw	a2,0(a5)
    125c:	43d4                	c.lw	a3,4(a5)
    125e:	47dc                	c.lw	a5,12(a5)
    1260:	1101                	c.addi	sp,-32
    1262:	cc22                	c.swsp	s0,24(sp)
    1264:	ca26                	c.swsp	s1,20(sp)
    1266:	842a                	c.mv	s0,a0
    1268:	c43a                	c.swsp	a4,8(sp)
    126a:	c63e                	c.swsp	a5,12(sp)
    126c:	ce06                	c.swsp	ra,28(sp)
    126e:	84ae                	c.mv	s1,a1
    1270:	c032                	c.swsp	a2,0(sp)
    1272:	c236                	c.swsp	a3,4(sp)
    1274:	fb9ff0ef          	jal	ra,122c <flash_read_mid>
    1278:	77c1                	c.lui	a5,0xffff0
    127a:	17fd                	c.addi	a5,-1
    127c:	00146737          	lui	a4,0x146
    1280:	c008                	c.sw	a0,0(s0)
    1282:	8fe9                	c.and	a5,a0
    1284:	08570713          	addi	a4,a4,133 # 146085 <FLASH_SIZE+0x46085>
    1288:	02e78063          	beq	a5,a4,12a8 <flash_read_mid_uid_with_check+0x54>
    128c:	00166737          	lui	a4,0x166
    1290:	08570713          	addi	a4,a4,133 # 166085 <FLASH_SIZE+0x66085>
    1294:	4781                	c.li	a5,0
    1296:	00e50963          	beq	a0,a4,12a8 <flash_read_mid_uid_with_check+0x54>
    129a:	40f2                	c.lwsp	ra,28(sp)
    129c:	4462                	c.lwsp	s0,24(sp)
    129e:	44d2                	c.lwsp	s1,20(sp)
    12a0:	853e                	c.mv	a0,a5
    12a2:	6105                	c.addi16sp	sp,32
    12a4:	00008067          	ret
    12a8:	8526                	c.mv	a0,s1
    12aa:	3fa9                	c.jal	1204 <flash_read_uid.constprop.6>
    12ac:	0004c783          	lbu	a5,0(s1)
    12b0:	00014603          	lbu	a2,0(sp)
    12b4:	0014c683          	lbu	a3,1(s1)
    12b8:	00114703          	lbu	a4,1(sp)
    12bc:	8f91                	c.sub	a5,a2
    12be:	0017b793          	seqz	a5,a5
    12c2:	00e69363          	bne	a3,a4,12c8 <flash_read_mid_uid_with_check+0x74>
    12c6:	0785                	c.addi	a5,1
    12c8:	0024c683          	lbu	a3,2(s1)
    12cc:	00214703          	lbu	a4,2(sp)
    12d0:	00e69463          	bne	a3,a4,12d8 <flash_read_mid_uid_with_check+0x84>
    12d4:	00178793          	addi	a5,a5,1 # ffff0001 <_DATA_LMA_START+0xdffe5169>
    12d8:	0034c683          	lbu	a3,3(s1)
    12dc:	00314703          	lbu	a4,3(sp)
    12e0:	00e69463          	bne	a3,a4,12e8 <flash_read_mid_uid_with_check+0x94>
    12e4:	00178793          	addi	a5,a5,1
    12e8:	0044c683          	lbu	a3,4(s1)
    12ec:	00414703          	lbu	a4,4(sp)
    12f0:	00e69463          	bne	a3,a4,12f8 <flash_read_mid_uid_with_check+0xa4>
    12f4:	00178793          	addi	a5,a5,1
    12f8:	0054c683          	lbu	a3,5(s1)
    12fc:	00514703          	lbu	a4,5(sp)
    1300:	00e69463          	bne	a3,a4,1308 <flash_read_mid_uid_with_check+0xb4>
    1304:	00178793          	addi	a5,a5,1
    1308:	0064c683          	lbu	a3,6(s1)
    130c:	00614703          	lbu	a4,6(sp)
    1310:	00e69463          	bne	a3,a4,1318 <flash_read_mid_uid_with_check+0xc4>
    1314:	00178793          	addi	a5,a5,1
    1318:	0074c683          	lbu	a3,7(s1)
    131c:	00714703          	lbu	a4,7(sp)
    1320:	00e69463          	bne	a3,a4,1328 <flash_read_mid_uid_with_check+0xd4>
    1324:	00178793          	addi	a5,a5,1
    1328:	0084c683          	lbu	a3,8(s1)
    132c:	00814703          	lbu	a4,8(sp)
    1330:	00e69463          	bne	a3,a4,1338 <flash_read_mid_uid_with_check+0xe4>
    1334:	00178793          	addi	a5,a5,1
    1338:	0094c683          	lbu	a3,9(s1)
    133c:	00914703          	lbu	a4,9(sp)
    1340:	00e69463          	bne	a3,a4,1348 <flash_read_mid_uid_with_check+0xf4>
    1344:	00178793          	addi	a5,a5,1
    1348:	00a4c683          	lbu	a3,10(s1)
    134c:	00a14703          	lbu	a4,10(sp)
    1350:	00e69463          	bne	a3,a4,1358 <flash_read_mid_uid_with_check+0x104>
    1354:	00178793          	addi	a5,a5,1
    1358:	00b4c683          	lbu	a3,11(s1)
    135c:	00b14703          	lbu	a4,11(sp)
    1360:	00e69463          	bne	a3,a4,1368 <flash_read_mid_uid_with_check+0x114>
    1364:	00178793          	addi	a5,a5,1
    1368:	00c4c683          	lbu	a3,12(s1)
    136c:	00c14703          	lbu	a4,12(sp)
    1370:	00e69463          	bne	a3,a4,1378 <flash_read_mid_uid_with_check+0x124>
    1374:	00178793          	addi	a5,a5,1
    1378:	00d4c683          	lbu	a3,13(s1)
    137c:	00d14703          	lbu	a4,13(sp)
    1380:	00e69463          	bne	a3,a4,1388 <flash_read_mid_uid_with_check+0x134>
    1384:	00178793          	addi	a5,a5,1
    1388:	00e4c683          	lbu	a3,14(s1)
    138c:	00e14703          	lbu	a4,14(sp)
    1390:	00e69463          	bne	a3,a4,1398 <flash_read_mid_uid_with_check+0x144>
    1394:	00178793          	addi	a5,a5,1
    1398:	00f14683          	lbu	a3,15(sp)
    139c:	00f4c703          	lbu	a4,15(s1)
    13a0:	00e69463          	bne	a3,a4,13a8 <flash_read_mid_uid_with_check+0x154>
    13a4:	00178793          	addi	a5,a5,1
    13a8:	40f2                	c.lwsp	ra,28(sp)
    13aa:	4462                	c.lwsp	s0,24(sp)
    13ac:	17c1                	c.addi	a5,-16
    13ae:	00f037b3          	snez	a5,a5
    13b2:	44d2                	c.lwsp	s1,20(sp)
    13b4:	853e                	c.mv	a0,a5
    13b6:	6105                	c.addi16sp	sp,32
    13b8:	00008067          	ret

000013bc <flash_dread>:
    13bc:	1141                	c.addi	sp,-16
    13be:	c606                	c.swsp	ra,12(sp)
    13c0:	87b2                	c.mv	a5,a2
    13c2:	7d047073          	csrci	mmisc_ctl,8
    13c6:	862e                	c.mv	a2,a1
    13c8:	00f005b3          	add	a1,zero,a5
    13cc:	a7cff0ef          	jal	ra,648 <flash_mspi_read_ram.constprop.7>
    13d0:	7d046073          	csrsi	mmisc_ctl,8
    13d4:	40b2                	c.lwsp	ra,12(sp)
    13d6:	0141                	c.addi	sp,16
    13d8:	00008067          	ret

000013dc <clock_init.constprop.10>:
    13dc:	1141                	c.addi	sp,-16
    13de:	c606                	c.swsp	ra,12(sp)
    13e0:	7d047073          	csrci	mmisc_ctl,8
    13e4:	c40ff0ef          	jal	ra,824 <clock_init_ram.constprop.11>
    13e8:	7d046073          	csrsi	mmisc_ctl,8
    13ec:	40b2                	c.lwsp	ra,12(sp)
    13ee:	0141                	c.addi	sp,16
    13f0:	00008067          	ret

000013f4 <pm_sleep_wakeup.constprop.2>:
    13f4:	1141                	c.addi	sp,-16
    13f6:	c606                	c.swsp	ra,12(sp)
    13f8:	7d047073          	csrci	mmisc_ctl,8
    13fc:	8d1ff0ef          	jal	ra,ccc <pm_sleep_wakeup_ram.constprop.3>
    1400:	7d046073          	csrsi	mmisc_ctl,8
    1404:	40b2                	c.lwsp	ra,12(sp)
    1406:	0141                	c.addi	sp,16
    1408:	8082                	c.jr	ra
    140a:	0001                	c.nop

0000140c <user_calib_adc_vref.constprop.9>:
    140c:	1101                	c.addi	sp,-32
    140e:	ce06                	c.swsp	ra,28(sp)
    1410:	c402                	c.swsp	zero,8(sp)
    1412:	00011623          	sh	zero,12(sp)
    1416:	00010723          	sb	zero,14(sp)
    141a:	c54d                	c.beqz	a0,14c4 <user_calib_adc_vref.constprop.9+0xb8>
    141c:	000007b7          	lui	a5,0x0
    1420:	1587a783          	lw	a5,344(a5) # 158 <_AES_VMA_END>
    1424:	0030                	c.addi4spn	a2,sp,8
    1426:	459d                	c.li	a1,7
    1428:	9782                	c.jalr	a5
    142a:	00c14783          	lbu	a5,12(sp)
    142e:	1c07b75b          	bfos	a4,a5,7,0
    1432:	04074163          	bltz	a4,1474 <user_calib_adc_vref.constprop.9+0x68>
    1436:	00e14703          	lbu	a4,14(sp)
    143a:	00d14603          	lbu	a2,13(sp)
    143e:	0722                	c.slli	a4,0x8
    1440:	66c1                	c.lui	a3,0x10
    1442:	00c705b3          	add	a1,a4,a2
    1446:	16fd                	c.addi	a3,-1
    1448:	02d58663          	beq	a1,a3,1474 <user_calib_adc_vref.constprop.9+0x68>
    144c:	fd060613          	addi	a2,a2,-48
    1450:	9732                	c.add	a4,a2
    1452:	3c07275b          	bfoz	a4,a4,15,0
    1456:	0fb00693          	li	a3,251
    145a:	08e6e563          	bltu	a3,a4,14e4 <user_calib_adc_vref.constprop.9+0xd8>
    145e:	17b1                	c.addi	a5,-20
    1460:	1c07b7db          	bfos	a5,a5,7,0
    1464:	5731                	c.li	a4,-20
    1466:	06e78f63          	beq	a5,a4,14e4 <user_calib_adc_vref.constprop.9+0xd8>
    146a:	f9578513          	addi	a0,a5,-107
    146e:	00a03533          	snez	a0,a0
    1472:	a89d                	c.j	14e8 <user_calib_adc_vref.constprop.9+0xdc>
    1474:	801407b7          	lui	a5,0x80140
    1478:	06500713          	li	a4,101
    147c:	1ee78a23          	sb	a4,500(a5) # 801401f4 <_DATA_LMA_START+0x6013535c>
    1480:	1c87a703          	lw	a4,456(a5)
    1484:	1e078a23          	sb	zero,500(a5)
    1488:	4c47275b          	bfoz	a4,a4,19,4
    148c:	380727db          	bfoz	a5,a4,14,0
    1490:	06078063          	beqz	a5,14f0 <user_calib_adc_vref.constprop.9+0xe4>
    1494:	1ff77713          	andi	a4,a4,511
    1498:	f9b70713          	addi	a4,a4,-101
    149c:	3c07275b          	bfoz	a4,a4,15,0
    14a0:	0c600693          	li	a3,198
    14a4:	04e6e063          	bltu	a3,a4,14e4 <user_calib_adc_vref.constprop.9+0xd8>
    14a8:	0097d513          	srli	a0,a5,0x9
    14ac:	1531                	c.addi	a0,-20
    14ae:	1c05355b          	bfos	a0,a0,7,0
    14b2:	57b1                	c.li	a5,-20
    14b4:	02f50863          	beq	a0,a5,14e4 <user_calib_adc_vref.constprop.9+0xd8>
    14b8:	fd550513          	addi	a0,a0,-43 # 3fffffd5 <_DATA_LMA_START+0x1fff513d>
    14bc:	00a03533          	snez	a0,a0
    14c0:	0280006f          	j	14e8 <user_calib_adc_vref.constprop.9+0xdc>
    14c4:	801407b7          	lui	a5,0x80140
    14c8:	06500713          	li	a4,101
    14cc:	1ee78a23          	sb	a4,500(a5) # 801401f4 <_DATA_LMA_START+0x6013535c>
    14d0:	1c87a703          	lw	a4,456(a5)
    14d4:	1e078a23          	sb	zero,500(a5)
    14d8:	4c47275b          	bfoz	a4,a4,19,4
    14dc:	380727db          	bfoz	a5,a4,14,0
    14e0:	fa079ae3          	bnez	a5,1494 <user_calib_adc_vref.constprop.9+0x88>
    14e4:	00000513          	li	a0,0
    14e8:	40f2                	c.lwsp	ra,28(sp)
    14ea:	6105                	c.addi16sp	sp,32
    14ec:	00008067          	ret
    14f0:	00814503          	lbu	a0,8(sp)
    14f4:	00914783          	lbu	a5,9(sp)
    14f8:	953e                	c.add	a0,a5
    14fa:	f8050513          	addi	a0,a0,-128
    14fe:	3c05255b          	bfoz	a0,a0,15,0
    1502:	0fc53513          	sltiu	a0,a0,252
    1506:	b7cd                	c.j	14e8 <user_calib_adc_vref.constprop.9+0xdc>

00001508 <user_calib_freq_offset.constprop.8>:
    1508:	000007b7          	lui	a5,0x0
    150c:	1101                	c.addi	sp,-32
    150e:	1587a783          	lw	a5,344(a5) # 158 <_AES_VMA_END>
    1512:	577d                	c.li	a4,-1
    1514:	00f10613          	addi	a2,sp,15
    1518:	4585                	c.li	a1,1
    151a:	cc22                	c.swsp	s0,24(sp)
    151c:	ce06                	c.swsp	ra,28(sp)
    151e:	00e107a3          	sb	a4,15(sp)
    1522:	9782                	c.jalr	a5
    1524:	00f14403          	lbu	s0,15(sp)
    1528:	0ff00793          	li	a5,255
    152c:	00000513          	li	a0,0
    1530:	02f40263          	beq	s0,a5,1554 <user_calib_freq_offset.constprop.8+0x4c>
    1534:	08a00513          	li	a0,138
    1538:	aa0ff0ef          	jal	ra,7d8 <analog_read_reg8>
    153c:	03f47413          	andi	s0,s0,63
    1540:	04057593          	andi	a1,a0,64
    1544:	0085e5b3          	or	a1,a1,s0
    1548:	08a00513          	li	a0,138
    154c:	a48ff0ef          	jal	ra,794 <analog_write_reg8>
    1550:	00100513          	li	a0,1
    1554:	40f2                	c.lwsp	ra,28(sp)
    1556:	4462                	c.lwsp	s0,24(sp)
    1558:	6105                	c.addi16sp	sp,32
    155a:	8082                	c.jr	ra
    155c:	0001                	c.nop
	...

00001560 <gpio_input_dis>:
    1560:	801407b7          	lui	a5,0x80140
    1564:	30978703          	lb	a4,777(a5) # 80140309 <_DATA_LMA_START+0x60135471>
    1568:	fff54513          	not	a0,a0
    156c:	8d79                	c.and	a0,a4
    156e:	0ff57513          	andi	a0,a0,255
    1572:	30a784a3          	sb	a0,777(a5)
    1576:	8082                	c.jr	ra
    1578:	0001                	c.nop
	...

0000157c <_write>:
    157c:	1141                	c.addi	sp,-16
    157e:	c606                	c.swsp	ra,12(sp)
    1580:	c422                	c.swsp	s0,8(sp)
    1582:	c226                	c.swsp	s1,4(sp)
    1584:	c04a                	c.swsp	s2,0(sp)
    1586:	02c05763          	blez	a2,15b4 <_write+0x38>
    158a:	8932                	c.mv	s2,a2
    158c:	00b00433          	add	s0,zero,a1
    1590:	00c584b3          	add	s1,a1,a2
    1594:	00044503          	lbu	a0,0(s0)
    1598:	00140413          	addi	s0,s0,1
    159c:	e10ff0ef          	jal	ra,bac <dr_putchar>
    15a0:	fe941ae3          	bne	s0,s1,1594 <_write+0x18>
    15a4:	40b2                	c.lwsp	ra,12(sp)
    15a6:	4422                	c.lwsp	s0,8(sp)
    15a8:	854a                	c.mv	a0,s2
    15aa:	4492                	c.lwsp	s1,4(sp)
    15ac:	4902                	c.lwsp	s2,0(sp)
    15ae:	0141                	c.addi	sp,16
    15b0:	00008067          	ret
    15b4:	40b2                	c.lwsp	ra,12(sp)
    15b6:	4422                	c.lwsp	s0,8(sp)
    15b8:	4901                	c.li	s2,0
    15ba:	854a                	c.mv	a0,s2
    15bc:	4492                	c.lwsp	s1,4(sp)
    15be:	4902                	c.lwsp	s2,0(sp)
    15c0:	0141                	c.addi	sp,16
    15c2:	8082                	c.jr	ra

000015c4 <main>:
    15c4:	7109                	c.addi16sp	sp,-384
    15c6:	ffbc07b7          	lui	a5,0xffbc0
    15ca:	16112e23          	sw	ra,380(sp)
    15ce:	17fd                	c.addi	a5,-1
    15d0:	80140737          	lui	a4,0x80140
    15d4:	16812c23          	sw	s0,376(sp)
    15d8:	16912a23          	sw	s1,372(sp)
    15dc:	17212823          	sw	s2,368(sp)
    15e0:	17312623          	sw	s3,364(sp)
    15e4:	17412423          	sw	s4,360(sp)
    15e8:	17512223          	sw	s5,356(sp)
    15ec:	17612023          	sw	s6,352(sp)
    15f0:	15712e23          	sw	s7,348(sp)
    15f4:	15812c23          	sw	s8,344(sp)
    15f8:	15912a23          	sw	s9,340(sp)
    15fc:	15a12823          	sw	s10,336(sp)
    1600:	15b12623          	sw	s11,332(sp)
    1604:	1ef72023          	sw	a5,480(a4) # 801401e0 <_DATA_LMA_START+0x60135348>
    1608:	00200593          	li	a1,2
    160c:	08c00513          	li	a0,140
    1610:	1ef72223          	sw	a5,484(a4)
    1614:	980ff0ef          	jal	ra,794 <analog_write_reg8>
    1618:	4581                	c.li	a1,0
    161a:	4529                	c.li	a0,10
    161c:	978ff0ef          	jal	ra,794 <analog_write_reg8>
    1620:	03b00593          	li	a1,59
    1624:	00b00513          	li	a0,11
    1628:	96cff0ef          	jal	ra,794 <analog_write_reg8>
    162c:	00500513          	li	a0,5
    1630:	9a8ff0ef          	jal	ra,7d8 <analog_read_reg8>
    1634:	0f757593          	andi	a1,a0,247
    1638:	00500513          	li	a0,5
    163c:	958ff0ef          	jal	ra,794 <analog_write_reg8>
    1640:	00600513          	li	a0,6
    1644:	994ff0ef          	jal	ra,7d8 <analog_read_reg8>
    1648:	03e57593          	andi	a1,a0,62
    164c:	00600513          	li	a0,6
    1650:	944ff0ef          	jal	ra,794 <analog_write_reg8>
    1654:	04500593          	li	a1,69
    1658:	00100513          	li	a0,1
    165c:	938ff0ef          	jal	ra,794 <analog_write_reg8>
    1660:	04c00593          	li	a1,76
    1664:	01c00513          	li	a0,28
    1668:	92cff0ef          	jal	ra,794 <analog_write_reg8>
    166c:	801007b7          	lui	a5,0x80100
    1670:	44478703          	lb	a4,1092(a5) # 80100444 <_DATA_LMA_START+0x600f55ac>
    1674:	801016b7          	lui	a3,0x80101
    1678:	0ff77713          	andi	a4,a4,255
    167c:	00e76713          	ori	a4,a4,14
    1680:	44e78223          	sb	a4,1092(a5)
    1684:	45878703          	lb	a4,1112(a5)
    1688:	03800513          	li	a0,56
    168c:	0ff77713          	andi	a4,a4,255
    1690:	00e76713          	ori	a4,a4,14
    1694:	44e78c23          	sb	a4,1112(a5)
    1698:	46c78703          	lb	a4,1132(a5)
    169c:	0ff77713          	andi	a4,a4,255
    16a0:	00e76713          	ori	a4,a4,14
    16a4:	46e78623          	sb	a4,1132(a5)
    16a8:	48078703          	lb	a4,1152(a5)
    16ac:	0ff77713          	andi	a4,a4,255
    16b0:	00e76713          	ori	a4,a4,14
    16b4:	48e78023          	sb	a4,1152(a5)
    16b8:	49478703          	lb	a4,1172(a5)
    16bc:	0ff77713          	andi	a4,a4,255
    16c0:	00e76713          	ori	a4,a4,14
    16c4:	48e78a23          	sb	a4,1172(a5)
    16c8:	4a878703          	lb	a4,1192(a5)
    16cc:	0ff77713          	andi	a4,a4,255
    16d0:	00e76713          	ori	a4,a4,14
    16d4:	4ae78423          	sb	a4,1192(a5)
    16d8:	4bc78703          	lb	a4,1212(a5)
    16dc:	0ff77713          	andi	a4,a4,255
    16e0:	00e76713          	ori	a4,a4,14
    16e4:	4ae78e23          	sb	a4,1212(a5)
    16e8:	4d078703          	lb	a4,1232(a5)
    16ec:	0ff77713          	andi	a4,a4,255
    16f0:	00e76713          	ori	a4,a4,14
    16f4:	4ce78823          	sb	a4,1232(a5)
    16f8:	83a68783          	lb	a5,-1990(a3) # 8010083a <_DATA_LMA_START+0x600f59a2>
    16fc:	82068d23          	sb	zero,-1990(a3)
    1700:	8d8ff0ef          	jal	ra,7d8 <analog_read_reg8>
    1704:	00a00433          	add	s0,zero,a0
    1708:	03900513          	li	a0,57
    170c:	8ccff0ef          	jal	ra,7d8 <analog_read_reg8>
    1710:	84aa                	c.mv	s1,a0
    1712:	4004745b          	bbs	s0,0,171a <main+0x156>
    1716:	1230006f          	j	2038 <main+0xa74>
    171a:	0fe47593          	andi	a1,s0,254
    171e:	531c140b          	addigp	s0,27952 # 87530 <g_pm_status_info>
    1722:	03800513          	li	a0,56
    1726:	4004f45b          	bbs	s1,0,172e <main+0x16a>
    172a:	0ef0006f          	j	2018 <main+0xa54>
    172e:	4791                	c.li	a5,4
    1730:	00f40123          	sb	a5,2(s0)
    1734:	860ff0ef          	jal	ra,794 <analog_write_reg8>
    1738:	00100593          	li	a1,1
    173c:	07f00513          	li	a0,127
    1740:	854ff0ef          	jal	ra,794 <analog_write_reg8>
    1744:	06400513          	li	a0,100
    1748:	890ff0ef          	jal	ra,7d8 <analog_read_reg8>
    174c:	0c3527db          	bfoz	a5,a0,3,3
    1750:	00a400a3          	sb	a0,1(s0)
    1754:	00f40023          	sb	a5,0(s0)
    1758:	08800513          	li	a0,136
    175c:	87cff0ef          	jal	ra,7d8 <analog_read_reg8>
    1760:	be757c5b          	bbc	a0,7,1758 <main+0x194>
    1764:	a00ff0ef          	jal	ra,964 <pm_wait_bbpll_done>
    1768:	00244783          	lbu	a5,2(s0)
    176c:	0a87dc5b          	beqc	a5,8,1824 <main+0x260>
    1770:	80140737          	lui	a4,0x80140
    1774:	20a70783          	lb	a5,522(a4) # 8014020a <_DATA_LMA_START+0x60135372>
    1778:	0ff7f793          	andi	a5,a5,255
    177c:	00c7e793          	ori	a5,a5,12
    1780:	20f70523          	sb	a5,522(a4)
    1784:	00100793          	li	a5,1
    1788:	20f72023          	sw	a5,512(a4)
    178c:	801404b7          	lui	s1,0x80140
    1790:	1fd48783          	lb	a5,509(s1) # 801401fd <_DATA_LMA_START+0x60135365>
    1794:	0ff7f793          	andi	a5,a5,255
    1798:	52fc46ab          	swgp	a5,27948 # 8752c <g_chip_version>
    179c:	00244703          	lbu	a4,2(s0)
    17a0:	04475c5b          	beqc	a4,4,17f8 <main+0x234>
    17a4:	0ff00693          	li	a3,255
    17a8:	04d78063          	beq	a5,a3,17e8 <main+0x224>
    17ac:	08000593          	li	a1,128
    17b0:	07d00513          	li	a0,125
    17b4:	fe1fe0ef          	jal	ra,794 <analog_write_reg8>
    17b8:	80140737          	lui	a4,0x80140
    17bc:	06500793          	li	a5,101
    17c0:	1ef70a23          	sb	a5,500(a4) # 801401f4 <_DATA_LMA_START+0x6013535c>
    17c4:	1c872783          	lw	a5,456(a4)
    17c8:	1e070a23          	sb	zero,500(a4)
    17cc:	8bbd                	c.andi	a5,15
    17ce:	0037d55b          	beqc	a5,3,17d8 <main+0x214>
    17d2:	4725                	c.li	a4,9
    17d4:	04f77c63          	bgeu	a4,a5,182c <main+0x268>
    17d8:	801407b7          	lui	a5,0x80140
    17dc:	02000713          	li	a4,32
    17e0:	1ee787a3          	sb	a4,495(a5) # 801401ef <_DATA_LMA_START+0x60135357>
    17e4:	0000006f          	j	17e4 <main+0x220>
    17e8:	bc17625b          	bnec	a4,1,17ac <main+0x1e8>
    17ec:	07d00513          	li	a0,125
    17f0:	08000593          	li	a1,128
    17f4:	0180006f          	j	180c <main+0x248>
    17f8:	03900513          	li	a0,57
    17fc:	fddfe0ef          	jal	ra,7d8 <analog_read_reg8>
    1800:	00256593          	ori	a1,a0,2
    1804:	0ff5f593          	andi	a1,a1,255
    1808:	03900513          	li	a0,57
    180c:	f89fe0ef          	jal	ra,794 <analog_write_reg8>
    1810:	2004a503          	lw	a0,512(s1)
    1814:	001877b7          	lui	a5,0x187
    1818:	a0078793          	addi	a5,a5,-1536 # 186a00 <FLASH_SIZE+0x86a00>
    181c:	953e                	c.add	a0,a5
    181e:	3ed9                	c.jal	13f4 <pm_sleep_wakeup.constprop.2>
    1820:	f8dff06f          	j	17ac <main+0x1e8>
    1824:	b59fe0ef          	jal	ra,37c <pm_stimer_recover>
    1828:	f65ff06f          	j	178c <main+0x1c8>
    182c:	00f00513          	li	a0,15
    1830:	fa9fe0ef          	jal	ra,7d8 <analog_read_reg8>
    1834:	03f57593          	andi	a1,a0,63
    1838:	0405e593          	ori	a1,a1,64
    183c:	00f00513          	li	a0,15
    1840:	f55fe0ef          	jal	ra,794 <analog_write_reg8>
    1844:	0a0c                	c.addi4spn	a1,sp,272
    1846:	11c8                	c.addi4spn	a0,sp,228
    1848:	a0dff0ef          	jal	ra,1254 <flash_read_mid_uid_with_check>
    184c:	0ff57513          	andi	a0,a0,255
    1850:	0015545b          	beqc	a0,1,1858 <main+0x294>
    1854:	0710006f          	j	20c4 <main+0xb00>
    1858:	0e614783          	lbu	a5,230(sp)
    185c:	474d                	c.li	a4,19
    185e:	0137e45b          	bnec	a5,19,1866 <main+0x2a2>
    1862:	04b0006f          	j	20ac <main+0xae8>
    1866:	02f773e3          	bgeu	a4,a5,208c <main+0xac8>
    186a:	4755                	c.li	a4,21
    186c:	0157e45b          	bnec	a5,21,1874 <main+0x2b0>
    1870:	0050006f          	j	2074 <main+0xab0>
    1874:	08e7ece3          	bltu	a5,a4,210c <main+0xb48>
    1878:	0167d45b          	beqc	a5,22,1880 <main+0x2bc>
    187c:	0490006f          	j	20c4 <main+0xb00>
    1880:	003fe537          	lui	a0,0x3fe
    1884:	0c050513          	addi	a0,a0,192 # 3fe0c0 <FLASH_SIZE+0x2fe0c0>
    1888:	b85ff0ef          	jal	ra,140c <user_calib_adc_vref.constprop.9>
    188c:	003fe537          	lui	a0,0x3fe
    1890:	c79ff0ef          	jal	ra,1508 <user_calib_freq_offset.constprop.8>
    1894:	b49ff0ef          	jal	ra,13dc <clock_init.constprop.10>
    1898:	801404b7          	lui	s1,0x80140
    189c:	30e48783          	lb	a5,782(s1) # 8014030e <_DATA_LMA_START+0x60135476>
    18a0:	11000513          	li	a0,272
    18a4:	0ff7f793          	andi	a5,a5,255
    18a8:	0107e793          	ori	a5,a5,16
    18ac:	30f48723          	sb	a5,782(s1)
    18b0:	30a48783          	lb	a5,778(s1)
    18b4:	4d05                	c.li	s10,1
    18b6:	0ef7f793          	andi	a5,a5,239
    18ba:	30f48523          	sb	a5,778(s1)
    18be:	314d                	c.jal	1560 <gpio_input_dis>
    18c0:	30e48783          	lb	a5,782(s1)
    18c4:	12000513          	li	a0,288
    18c8:	0ff7f793          	andi	a5,a5,255
    18cc:	0207e793          	ori	a5,a5,32
    18d0:	30f48723          	sb	a5,782(s1)
    18d4:	30a48783          	lb	a5,778(s1)
    18d8:	04000a93          	li	s5,64
    18dc:	0df7f793          	andi	a5,a5,223
    18e0:	30f48523          	sb	a5,778(s1)
    18e4:	c7dff0ef          	jal	ra,1560 <gpio_input_dis>
    18e8:	30e48783          	lb	a5,782(s1)
    18ec:	4f09                	c.li	t5,2
    18ee:	0ff7f793          	andi	a5,a5,255
    18f2:	0407e793          	ori	a5,a5,64
    18f6:	30f48723          	sb	a5,782(s1)
    18fa:	30a48783          	lb	a5,778(s1)
    18fe:	14000513          	li	a0,320
    1902:	cc7a                	c.swsp	t5,24(sp)
    1904:	0bf7f793          	andi	a5,a5,191
    1908:	30f48523          	sb	a5,778(s1)
    190c:	c55ff0ef          	jal	ra,1560 <gpio_input_dis>
    1910:	30e48783          	lb	a5,782(s1)
    1914:	4ea9                	c.li	t4,10
    1916:	f807e793          	ori	a5,a5,-128
    191a:	ca76                	c.swsp	t4,20(sp)
    191c:	0ff7f793          	andi	a5,a5,255
    1920:	30f48723          	sb	a5,782(s1)
    1924:	30a48783          	lb	a5,778(s1)
    1928:	18000513          	li	a0,384
    192c:	07f7f793          	andi	a5,a5,127
    1930:	30f48523          	sb	a5,778(s1)
    1934:	c2dff0ef          	jal	ra,1560 <gpio_input_dis>
    1938:	00087537          	lui	a0,0x87
    193c:	36c50513          	addi	a0,a0,876 # 8736c <ds_cnn_s_layer_9_conv_2d_weights+0x1010>
    1940:	70a080ef          	jal	ra,a04a <puts>
    1944:	65a9                	c.lui	a1,0xa
    1946:	00087537          	lui	a0,0x87
    194a:	0585                	c.addi	a1,1
    194c:	37050513          	addi	a0,a0,880 # 87370 <ds_cnn_s_layer_9_conv_2d_weights+0x1014>
    1950:	6dc080ef          	jal	ra,a02c <printf>
    1954:	00087537          	lui	a0,0x87
    1958:	7e400593          	li	a1,2020
    195c:	38850513          	addi	a0,a0,904 # 87388 <ds_cnn_s_layer_9_conv_2d_weights+0x102c>
    1960:	6cc080ef          	jal	ra,a02c <printf>
    1964:	000875b7          	lui	a1,0x87
    1968:	00087537          	lui	a0,0x87
    196c:	3a058593          	addi	a1,a1,928 # 873a0 <ds_cnn_s_layer_9_conv_2d_weights+0x1044>
    1970:	3ac50513          	addi	a0,a0,940 # 873ac <ds_cnn_s_layer_9_conv_2d_weights+0x1050>
    1974:	6b8080ef          	jal	ra,a02c <printf>
    1978:	889fe0ef          	jal	ra,200 <delay_ms.constprop.12>
    197c:	00087537          	lui	a0,0x87
    1980:	3d450513          	addi	a0,a0,980 # 873d4 <ds_cnn_s_layer_9_conv_2d_weights+0x1078>
    1984:	6a8080ef          	jal	ra,a02c <printf>
    1988:	879fe0ef          	jal	ra,200 <delay_ms.constprop.12>
    198c:	00087537          	lui	a0,0x87
    1990:	3ec50513          	addi	a0,a0,1004 # 873ec <ds_cnn_s_layer_9_conv_2d_weights+0x1090>
    1994:	6b6080ef          	jal	ra,a04a <puts>
    1998:	869fe0ef          	jal	ra,200 <delay_ms.constprop.12>
    199c:	4f62                	c.lwsp	t5,24(sp)
    199e:	4ed2                	c.lwsp	t4,20(sp)
    19a0:	4ce5                	c.li	s9,25
    19a2:	4c15                	c.li	s8,5
    19a4:	4d91                	c.li	s11,4
    19a6:	1974                	c.addi4spn	a3,sp,188
    19a8:	1150                	c.addi4spn	a2,sp,164
    19aa:	090c                	c.addi4spn	a1,sp,144
    19ac:	03100493          	li	s1,49
    19b0:	11c8                	c.addi4spn	a0,sp,228
    19b2:	d9fa                	c.swsp	t5,240(sp)
    19b4:	d7fa                	c.swsp	t5,236(sp)
    19b6:	ce7a                	c.swsp	t5,28(sp)
    19b8:	cd76                	c.swsp	t4,152(sp)
    19ba:	d576                	c.swsp	t4,168(sp)
    19bc:	cc76                	c.swsp	t4,24(sp)
    19be:	ddee                	c.swsp	s11,248(sp)
    19c0:	cb26                	c.swsp	s1,148(sp)
    19c2:	d76e                	c.swsp	s11,172(sp)
    19c4:	c5d6                	c.swsp	s5,200(sp)
    19c6:	dbea                	c.swsp	s10,244(sp)
    19c8:	11a12023          	sw	s10,256(sp)
    19cc:	dfea                	c.swsp	s10,252(sp)
    19ce:	c96a                	c.swsp	s10,144(sp)
    19d0:	cf6a                	c.swsp	s10,156(sp)
    19d2:	d96a                	c.swsp	s10,176(sp)
    19d4:	df6a                	c.swsp	s10,188(sp)
    19d6:	c1e6                	c.swsp	s9,192(sp)
    19d8:	0d812223          	sw	s8,196(sp)
    19dc:	400010ef          	jal	ra,2ddc <riscv_convolve_wrapper_s8_get_buffer_size>
    19e0:	f8000413          	li	s0,-128
    19e4:	08000a13          	li	s4,128
    19e8:	4f8d                	c.li	t6,3
    19ea:	84aa                	c.mv	s1,a0
    19ec:	1974                	c.addi4spn	a3,sp,188
    19ee:	1150                	c.addi4spn	a2,sp,164
    19f0:	090c                	c.addi4spn	a1,sp,144
    19f2:	07f00713          	li	a4,127
    19f6:	0a08                	c.addi4spn	a0,sp,272
    19f8:	d57e                	c.swsp	t6,168(sp)
    19fa:	d77e                	c.swsp	t6,172(sp)
    19fc:	ca7e                	c.swsp	t6,20(sp)
    19fe:	12812a23          	sw	s0,308(sp)
    1a02:	12e12c23          	sw	a4,312(sp)
    1a06:	11412823          	sw	s4,272(sp)
    1a0a:	10812a23          	sw	s0,276(sp)
    1a0e:	cf56                	c.swsp	s5,156(sp)
    1a10:	c5d6                	c.swsp	s5,200(sp)
    1a12:	11a12c23          	sw	s10,280(sp)
    1a16:	13a12823          	sw	s10,304(sp)
    1a1a:	13a12623          	sw	s10,300(sp)
    1a1e:	13a12423          	sw	s10,296(sp)
    1a22:	13a12223          	sw	s10,292(sp)
    1a26:	13a12023          	sw	s10,288(sp)
    1a2a:	11a12e23          	sw	s10,284(sp)
    1a2e:	c96a                	c.swsp	s10,144(sp)
    1a30:	cb66                	c.swsp	s9,148(sp)
    1a32:	cd62                	c.swsp	s8,152(sp)
    1a34:	c1e6                	c.swsp	s9,192(sp)
    1a36:	c3e2                	c.swsp	s8,196(sp)
    1a38:	434010ef          	jal	ra,2e6c <riscv_depthwise_conv_wrapper_s8_get_buffer_size>
    1a3c:	03000713          	li	a4,48
    1a40:	f2a487ff          	maxw	a5,s1,a0
    1a44:	f2e787ff          	maxw	a5,a5,a4
    1a48:	853e                	c.mv	a0,a5
    1a4a:	de3e                	c.swsp	a5,60(sp)
    1a4c:	480080ef          	jal	ra,9ecc <malloc>
    1a50:	4f72                	c.lwsp	t5,28(sp)
    1a52:	4ee2                	c.lwsp	t4,24(sp)
    1a54:	c5fa                	c.swsp	t5,200(sp)
    1a56:	c3fa                	c.swsp	t5,196(sp)
    1a58:	f9c00f13          	li	t5,-100
    1a5c:	df7a                	c.swsp	t5,188(sp)
    1a5e:	e5df9f0b          	addigp	t5,-420 # 8065c <ds_cnn_s_layer_1_conv_2d_output_mult>
    1a62:	08010993          	addi	s3,sp,128
    1a66:	d87a                	c.swsp	t5,48(sp)
    1a68:	07f00293          	li	t0,127
    1a6c:	03100093          	li	ra,49
    1a70:	05010913          	addi	s2,sp,80
    1a74:	f5df9f0b          	addigp	t5,-164 # 8075c <ds_cnn_s_layer_1_conv_2d_output_shift>
    1a78:	551c1b8b          	addigp	s7,27984 # 87550 <in_out_buf_main>
    1a7c:	86ce                	c.mv	a3,s3
    1a7e:	d5df9e0b          	addigp	t3,-676 # 8055c <ds_cnn_s_layer_1_conv_2d_bias>
    1a82:	dc2a                	c.swsp	a0,56(sp)
    1a84:	04010893          	addi	a7,sp,64
    1a88:	05c0180b          	addigp	a6,92 # 8085c <ds_cnn_s_layer_1_conv_2d_weights>
    1a8c:	189c                	c.addi4spn	a5,sp,112
    1a8e:	841f970b          	addigp	a4,-1984 # 80040 <ds_cnn_s_input>
    1a92:	1810                	c.addi4spn	a2,sp,48
    1a94:	196c                	c.addi4spn	a1,sp,188
    1a96:	1828                	c.addi4spn	a0,sp,56
    1a98:	d196                	c.swsp	t0,224(sp)
    1a9a:	c306                	c.swsp	ra,132(sp)
    1a9c:	da7a                	c.swsp	t5,52(sp)
    1a9e:	c576                	c.swsp	t4,136(sp)
    1aa0:	daf6                	c.swsp	t4,116(sp)
    1aa2:	c9ee                	c.swsp	s11,208(sp)
    1aa4:	c1a2                	c.swsp	s0,192(sp)
    1aa6:	cfa2                	c.swsp	s0,220(sp)
    1aa8:	dcee                	c.swsp	s11,120(sp)
    1aaa:	ced6                	c.swsp	s5,92(sp)
    1aac:	c6d6                	c.swsp	s5,76(sp)
    1aae:	c24a                	c.swsp	s2,4(sp)
    1ab0:	c072                	c.swsp	t3,0(sp)
    1ab2:	c7ea                	c.swsp	s10,204(sp)
    1ab4:	cdea                	c.swsp	s10,216(sp)
    1ab6:	cbea                	c.swsp	s10,212(sp)
    1ab8:	c16a                	c.swsp	s10,128(sp)
    1aba:	c76a                	c.swsp	s10,140(sp)
    1abc:	deea                	c.swsp	s10,124(sp)
    1abe:	c8ea                	c.swsp	s10,80(sp)
    1ac0:	cae6                	c.swsp	s9,84(sp)
    1ac2:	cce2                	c.swsp	s8,88(sp)
    1ac4:	01712423          	sw	s7,8(sp)
    1ac8:	674000ef          	jal	ra,213c <riscv_convolve_wrapper_s8>
    1acc:	35d01e0b          	addigp	t3,2908 # 8135c <ds_cnn_s_layer_2_depthwise_conv_2d_output_mult>
    1ad0:	d872                	c.swsp	t3,48(sp)
    1ad2:	45d01e0b          	addigp	t3,3164 # 8145c <ds_cnn_s_layer_2_depthwise_conv_2d_output_shift>
    1ad6:	4fd2                	c.lwsp	t6,20(sp)
    1ad8:	da72                	c.swsp	t3,52(sp)
    1ada:	07f00393          	li	t2,127
    1ade:	49109d8b          	addigp	s11,35984 # 89490 <in_out_buf_main+0x1f40>
    1ae2:	86ca                	c.mv	a3,s2
    1ae4:	25d01e0b          	addigp	t3,2652 # 8125c <ds_cnn_s_layer_2_depthwise_conv_2d_bias>
    1ae8:	04010893          	addi	a7,sp,64
    1aec:	55d0180b          	addigp	a6,3420 # 8155c <ds_cnn_s_layer_2_depthwise_conv_2d_weights>
    1af0:	109c                	c.addi4spn	a5,sp,96
    1af2:	551c170b          	addigp	a4,27984 # 87550 <in_out_buf_main>
    1af6:	1810                	c.addi4spn	a2,sp,48
    1af8:	11cc                	c.addi4spn	a1,sp,228
    1afa:	1828                	c.addi4spn	a0,sp,56
    1afc:	d2fe                	c.swsp	t6,100(sp)
    1afe:	d4fe                	c.swsp	t6,104(sp)
    1b00:	10712623          	sw	t2,268(sp)
    1b04:	10812423          	sw	s0,264(sp)
    1b08:	d3d2                	c.swsp	s4,228(sp)
    1b0a:	d5a2                	c.swsp	s0,232(sp)
    1b0c:	c756                	c.swsp	s5,140(sp)
    1b0e:	c6d6                	c.swsp	s5,76(sp)
    1b10:	c46e                	c.swsp	s11,8(sp)
    1b12:	c24e                	c.swsp	s3,4(sp)
    1b14:	c072                	c.swsp	t3,0(sp)
    1b16:	d7ea                	c.swsp	s10,236(sp)
    1b18:	11a12223          	sw	s10,260(sp)
    1b1c:	11a12023          	sw	s10,256(sp)
    1b20:	dfea                	c.swsp	s10,252(sp)
    1b22:	ddea                	c.swsp	s10,248(sp)
    1b24:	dbea                	c.swsp	s10,244(sp)
    1b26:	d9ea                	c.swsp	s10,240(sp)
    1b28:	c366                	c.swsp	s9,132(sp)
    1b2a:	c562                	c.swsp	s8,136(sp)
    1b2c:	19d010ef          	jal	ra,34c8 <riscv_depthwise_conv_wrapper_s8>
    1b30:	4e1a                	c.lwsp	t3,132(sp)
    1b32:	caf2                	c.swsp	t3,84(sp)
    1b34:	4e2a                	c.lwsp	t3,136(sp)
    1b36:	4910970b          	addigp	a4,35984 # 89490 <in_out_buf_main+0x1f40>
    1b3a:	ccf2                	c.swsp	t3,88(sp)
    1b3c:	4e3a                	c.lwsp	t3,140(sp)
    1b3e:	86ce                	c.mv	a3,s3
    1b40:	cef2                	c.swsp	t3,92(sp)
    1b42:	09c21e0b          	addigp	t3,4252 # 8189c <ds_cnn_s_layer_3_conv_2d_output_mult>
    1b46:	d872                	c.swsp	t3,48(sp)
    1b48:	19c21e0b          	addigp	t3,4508 # 8199c <ds_cnn_s_layer_3_conv_2d_output_shift>
    1b4c:	da72                	c.swsp	t3,52(sp)
    1b4e:	79d01e0b          	addigp	t3,3996 # 8179c <ds_cnn_s_layer_3_conv_2d_bias>
    1b52:	04010893          	addi	a7,sp,64
    1b56:	29c2180b          	addigp	a6,4764 # 81a9c <ds_cnn_s_layer_3_conv_2d_weights>
    1b5a:	189c                	c.addi4spn	a5,sp,112
    1b5c:	1810                	c.addi4spn	a2,sp,48
    1b5e:	196c                	c.addi4spn	a1,sp,188
    1b60:	1828                	c.addi4spn	a0,sp,56
    1b62:	ded6                	c.swsp	s5,124(sp)
    1b64:	df52                	c.swsp	s4,188(sp)
    1b66:	c1a2                	c.swsp	s0,192(sp)
    1b68:	c24a                	c.swsp	s2,4(sp)
    1b6a:	c072                	c.swsp	t3,0(sp)
    1b6c:	daea                	c.swsp	s10,116(sp)
    1b6e:	dcea                	c.swsp	s10,120(sp)
    1b70:	c982                	c.swsp	zero,208(sp)
    1b72:	c782                	c.swsp	zero,204(sp)
    1b74:	c5ea                	c.swsp	s10,200(sp)
    1b76:	c3ea                	c.swsp	s10,196(sp)
    1b78:	01712423          	sw	s7,8(sp)
    1b7c:	5c0000ef          	jal	ra,213c <riscv_convolve_wrapper_s8>
    1b80:	39c41e0b          	addigp	t3,9116 # 82b9c <ds_cnn_s_layer_4_depthwise_conv_2d_output_mult>
    1b84:	d872                	c.swsp	t3,48(sp)
    1b86:	49c41e0b          	addigp	t3,9372 # 82c9c <ds_cnn_s_layer_4_depthwise_conv_2d_output_shift>
    1b8a:	da72                	c.swsp	t3,52(sp)
    1b8c:	86ca                	c.mv	a3,s2
    1b8e:	29c41e0b          	addigp	t3,8860 # 82a9c <ds_cnn_s_layer_4_depthwise_conv_2d_bias>
    1b92:	04010893          	addi	a7,sp,64
    1b96:	59c4180b          	addigp	a6,9628 # 82d9c <ds_cnn_s_layer_4_depthwise_conv_2d_weights>
    1b9a:	109c                	c.addi4spn	a5,sp,96
    1b9c:	551c170b          	addigp	a4,27984 # 87550 <in_out_buf_main>
    1ba0:	1810                	c.addi4spn	a2,sp,48
    1ba2:	11cc                	c.addi4spn	a1,sp,228
    1ba4:	1828                	c.addi4spn	a0,sp,56
    1ba6:	d3d2                	c.swsp	s4,228(sp)
    1ba8:	d5a2                	c.swsp	s0,232(sp)
    1baa:	c46e                	c.swsp	s11,8(sp)
    1bac:	c24e                	c.swsp	s3,4(sp)
    1bae:	c072                	c.swsp	t3,0(sp)
    1bb0:	119010ef          	jal	ra,34c8 <riscv_depthwise_conv_wrapper_s8>
    1bb4:	0dd41e0b          	addigp	t3,10460 # 830dc <ds_cnn_s_layer_5_conv_2d_output_mult>
    1bb8:	d872                	c.swsp	t3,48(sp)
    1bba:	1dd41e0b          	addigp	t3,10716 # 831dc <ds_cnn_s_layer_5_conv_2d_output_shift>
    1bbe:	da72                	c.swsp	t3,52(sp)
    1bc0:	4910970b          	addigp	a4,35984 # 89490 <in_out_buf_main+0x1f40>
    1bc4:	86ce                	c.mv	a3,s3
    1bc6:	7dc41e0b          	addigp	t3,10204 # 82fdc <ds_cnn_s_layer_5_conv_2d_bias>
    1bca:	04010893          	addi	a7,sp,64
    1bce:	2dd4180b          	addigp	a6,10972 # 832dc <ds_cnn_s_layer_5_conv_2d_weights>
    1bd2:	189c                	c.addi4spn	a5,sp,112
    1bd4:	1810                	c.addi4spn	a2,sp,48
    1bd6:	196c                	c.addi4spn	a1,sp,188
    1bd8:	1828                	c.addi4spn	a0,sp,56
    1bda:	df52                	c.swsp	s4,188(sp)
    1bdc:	c1a2                	c.swsp	s0,192(sp)
    1bde:	c24a                	c.swsp	s2,4(sp)
    1be0:	c072                	c.swsp	t3,0(sp)
    1be2:	c45e                	c.swsp	s7,8(sp)
    1be4:	558000ef          	jal	ra,213c <riscv_convolve_wrapper_s8>
    1be8:	3dd61e0b          	addigp	t3,15324 # 843dc <ds_cnn_s_layer_6_depthwise_conv_2d_output_mult>
    1bec:	d872                	c.swsp	t3,48(sp)
    1bee:	4dd61e0b          	addigp	t3,15580 # 844dc <ds_cnn_s_layer_6_depthwise_conv_2d_output_shift>
    1bf2:	da72                	c.swsp	t3,52(sp)
    1bf4:	86ca                	c.mv	a3,s2
    1bf6:	2dd61e0b          	addigp	t3,15068 # 842dc <ds_cnn_s_layer_6_depthwise_conv_2d_bias>
    1bfa:	04010893          	addi	a7,sp,64
    1bfe:	5dd6180b          	addigp	a6,15836 # 845dc <ds_cnn_s_layer_6_depthwise_conv_2d_weights>
    1c02:	109c                	c.addi4spn	a5,sp,96
    1c04:	551c170b          	addigp	a4,27984 # 87550 <in_out_buf_main>
    1c08:	1810                	c.addi4spn	a2,sp,48
    1c0a:	11cc                	c.addi4spn	a1,sp,228
    1c0c:	1828                	c.addi4spn	a0,sp,56
    1c0e:	d3d2                	c.swsp	s4,228(sp)
    1c10:	d5a2                	c.swsp	s0,232(sp)
    1c12:	c46e                	c.swsp	s11,8(sp)
    1c14:	c24e                	c.swsp	s3,4(sp)
    1c16:	c072                	c.swsp	t3,0(sp)
    1c18:	0b1010ef          	jal	ra,34c8 <riscv_depthwise_conv_wrapper_s8>
    1c1c:	11c81e0b          	addigp	t3,16668 # 8491c <ds_cnn_s_layer_7_conv_2d_output_mult>
    1c20:	d872                	c.swsp	t3,48(sp)
    1c22:	21c81e0b          	addigp	t3,16924 # 84a1c <ds_cnn_s_layer_7_conv_2d_output_shift>
    1c26:	da72                	c.swsp	t3,52(sp)
    1c28:	4910970b          	addigp	a4,35984 # 89490 <in_out_buf_main+0x1f40>
    1c2c:	86ce                	c.mv	a3,s3
    1c2e:	01c81e0b          	addigp	t3,16412 # 8481c <ds_cnn_s_layer_7_conv_2d_bias>
    1c32:	04010893          	addi	a7,sp,64
    1c36:	31c8180b          	addigp	a6,17180 # 84b1c <ds_cnn_s_layer_7_conv_2d_weights>
    1c3a:	189c                	c.addi4spn	a5,sp,112
    1c3c:	1810                	c.addi4spn	a2,sp,48
    1c3e:	196c                	c.addi4spn	a1,sp,188
    1c40:	1828                	c.addi4spn	a0,sp,56
    1c42:	df52                	c.swsp	s4,188(sp)
    1c44:	c1a2                	c.swsp	s0,192(sp)
    1c46:	c24a                	c.swsp	s2,4(sp)
    1c48:	c072                	c.swsp	t3,0(sp)
    1c4a:	c45e                	c.swsp	s7,8(sp)
    1c4c:	4f0000ef          	jal	ra,213c <riscv_convolve_wrapper_s8>
    1c50:	41ca1e0b          	addigp	t3,21532 # 85c1c <ds_cnn_s_layer_8_depthwise_conv_2d_output_mult>
    1c54:	d872                	c.swsp	t3,48(sp)
    1c56:	51ca1e0b          	addigp	t3,21788 # 85d1c <ds_cnn_s_layer_8_depthwise_conv_2d_output_shift>
    1c5a:	da72                	c.swsp	t3,52(sp)
    1c5c:	86ca                	c.mv	a3,s2
    1c5e:	31ca1e0b          	addigp	t3,21276 # 85b1c <ds_cnn_s_layer_8_depthwise_conv_2d_bias>
    1c62:	04010893          	addi	a7,sp,64
    1c66:	61ca180b          	addigp	a6,22044 # 85e1c <ds_cnn_s_layer_8_depthwise_conv_2d_weights>
    1c6a:	109c                	c.addi4spn	a5,sp,96
    1c6c:	551c170b          	addigp	a4,27984 # 87550 <in_out_buf_main>
    1c70:	1810                	c.addi4spn	a2,sp,48
    1c72:	11cc                	c.addi4spn	a1,sp,228
    1c74:	1828                	c.addi4spn	a0,sp,56
    1c76:	d3d2                	c.swsp	s4,228(sp)
    1c78:	d5a2                	c.swsp	s0,232(sp)
    1c7a:	c46e                	c.swsp	s11,8(sp)
    1c7c:	c24e                	c.swsp	s3,4(sp)
    1c7e:	c072                	c.swsp	t3,0(sp)
    1c80:	049010ef          	jal	ra,34c8 <riscv_depthwise_conv_wrapper_s8>
    1c84:	15da1e0b          	addigp	t3,22876 # 8615c <ds_cnn_s_layer_9_conv_2d_output_mult>
    1c88:	d872                	c.swsp	t3,48(sp)
    1c8a:	25da1e0b          	addigp	t3,23132 # 8625c <ds_cnn_s_layer_9_conv_2d_output_shift>
    1c8e:	da72                	c.swsp	t3,52(sp)
    1c90:	05da1e0b          	addigp	t3,22620 # 8605c <ds_cnn_s_layer_9_conv_2d_bias>
    1c94:	4910970b          	addigp	a4,35984 # 89490 <in_out_buf_main+0x1f40>
    1c98:	86ce                	c.mv	a3,s3
    1c9a:	04010893          	addi	a7,sp,64
    1c9e:	35da180b          	addigp	a6,23388 # 8635c <ds_cnn_s_layer_9_conv_2d_weights>
    1ca2:	189c                	c.addi4spn	a5,sp,112
    1ca4:	1810                	c.addi4spn	a2,sp,48
    1ca6:	196c                	c.addi4spn	a1,sp,188
    1ca8:	1828                	c.addi4spn	a0,sp,56
    1caa:	c072                	c.swsp	t3,0(sp)
    1cac:	df52                	c.swsp	s4,188(sp)
    1cae:	c1a2                	c.swsp	s0,192(sp)
    1cb0:	c24a                	c.swsp	s2,4(sp)
    1cb2:	c45e                	c.swsp	s7,8(sp)
    1cb4:	488000ef          	jal	ra,213c <riscv_convolve_wrapper_s8>
    1cb8:	48f6                	c.lwsp	a7,92(sp)
    1cba:	1894                	c.addi4spn	a3,sp,112
    1cbc:	4910980b          	addigp	a6,35984 # 89490 <in_out_buf_main+0x1f40>
    1cc0:	87ce                	c.mv	a5,s3
    1cc2:	8736                	c.mv	a4,a3
    1cc4:	864a                	c.mv	a2,s2
    1cc6:	551c168b          	addigp	a3,27984 # 87550 <in_out_buf_main>
    1cca:	114c                	c.addi4spn	a1,sp,164
    1ccc:	07f00d93          	li	s11,127
    1cd0:	1828                	c.addi4spn	a0,sp,56
    1cd2:	db22                	c.swsp	s0,180(sp)
    1cd4:	c746                	c.swsp	a7,140(sp)
    1cd6:	dd6e                	c.swsp	s11,184(sp)
    1cd8:	d902                	c.swsp	zero,176(sp)
    1cda:	d702                	c.swsp	zero,172(sp)
    1cdc:	d56a                	c.swsp	s10,168(sp)
    1cde:	d36a                	c.swsp	s10,164(sp)
    1ce0:	dae6                	c.swsp	s9,116(sp)
    1ce2:	dce2                	c.swsp	s8,120(sp)
    1ce4:	c16a                	c.swsp	s10,128(sp)
    1ce6:	c36a                	c.swsp	s10,132(sp)
    1ce8:	09a12423          	sw	s10,136(sp)
    1cec:	4e0040ef          	jal	ra,61cc <riscv_avgpool_s8>
    1cf0:	479a                	c.lwsp	a5,132(sp)
    1cf2:	4e3a                	c.lwsp	t3,140(sp)
    1cf4:	472a                	c.lwsp	a4,136(sp)
    1cf6:	02fe0e33          	mul	t3,t3,a5
    1cfa:	03900f13          	li	t5,57
    1cfe:	cd7a                	c.swsp	t5,152(sp)
    1d00:	5c80bf37          	lui	t5,0x5c80b
    1d04:	0c6f0f13          	addi	t5,t5,198 # 5c80b0c6 <_DATA_LMA_START+0x3c80022e>
    1d08:	4eb1                	c.li	t4,12
    1d0a:	a2df930b          	addigp	t1,-1492 # 8022c <ds_cnn_s_layer_12_fully_connected_bias>
    1d0e:	04010893          	addi	a7,sp,64
    1d12:	02ee0e33          	mul	t3,t3,a4
    1d16:	86ce                	c.mv	a3,s3
    1d18:	4910970b          	addigp	a4,35984 # 89490 <in_out_buf_main+0x1f40>
    1d1c:	a5df980b          	addigp	a6,-1444 # 8025c <ds_cnn_s_layer_12_fully_connected_weights>
    1d20:	189c                	c.addi4spn	a5,sp,112
    1d22:	1030                	c.addi4spn	a2,sp,40
    1d24:	090c                	c.addi4spn	a1,sp,144
    1d26:	d47a                	c.swsp	t5,40(sp)
    1d28:	1828                	c.addi4spn	a0,sp,56
    1d2a:	5f61                	c.li	t5,-8
    1d2c:	d67a                	c.swsp	t5,44(sp)
    1d2e:	c772                	c.swsp	t3,140(sp)
    1d30:	d8f2                	c.swsp	t3,112(sp)
    1d32:	def6                	c.swsp	t4,124(sp)
    1d34:	cef6                	c.swsp	t4,92(sp)
    1d36:	c6f6                	c.swsp	t4,76(sp)
    1d38:	c01a                	c.swsp	t1,0(sp)
    1d3a:	cf22                	c.swsp	s0,156(sp)
    1d3c:	c952                	c.swsp	s4,144(sp)
    1d3e:	c24a                	c.swsp	s2,4(sp)
    1d40:	d16e                	c.swsp	s11,160(sp)
    1d42:	cb02                	c.swsp	zero,148(sp)
    1d44:	c36a                	c.swsp	s10,132(sp)
    1d46:	c56a                	c.swsp	s10,136(sp)
    1d48:	daea                	c.swsp	s10,116(sp)
    1d4a:	dcea                	c.swsp	s10,120(sp)
    1d4c:	c8ea                	c.swsp	s10,80(sp)
    1d4e:	caea                	c.swsp	s10,84(sp)
    1d50:	ccea                	c.swsp	s10,88(sp)
    1d52:	c45e                	c.swsp	s7,8(sp)
    1d54:	6d0040ef          	jal	ra,6424 <riscv_fully_connected_s8>
    1d58:	702316b7          	lui	a3,0x70231
    1d5c:	551c180b          	addigp	a6,27984 # 87550 <in_out_buf_main>
    1d60:	f8400793          	li	a5,-124
    1d64:	4761                	c.li	a4,24
    1d66:	b8068693          	addi	a3,a3,-1152 # 70230b80 <_DATA_LMA_START+0x50225ce8>
    1d6a:	4631                	c.li	a2,12
    1d6c:	00100593          	li	a1,1
    1d70:	551c150b          	addigp	a0,27984 # 87550 <in_out_buf_main>
    1d74:	075010ef          	jal	ra,35e8 <riscv_softmax_s8>
    1d78:	801f978b          	addigp	a5,-2048 # 80000 <_DATA_VMA_START>
    1d7c:	0107af83          	lw	t6,16(a5)
    1d80:	0147af03          	lw	t5,20(a5)
    1d84:	0187ae83          	lw	t4,24(a5)
    1d88:	01c7ae03          	lw	t3,28(a5)
    1d8c:	0207a303          	lw	t1,32(a5)
    1d90:	0247a883          	lw	a7,36(a5)
    1d94:	0287a803          	lw	a6,40(a5)
    1d98:	57cc                	c.lw	a1,44(a5)
    1d9a:	5b90                	c.lw	a2,48(a5)
    1d9c:	5bd4                	c.lw	a3,52(a5)
    1d9e:	5f98                	c.lw	a4,56(a5)
    1da0:	00087537          	lui	a0,0x87
    1da4:	5fdc                	c.lw	a5,60(a5)
    1da6:	551c1a0b          	addigp	s4,27984 # 87550 <in_out_buf_main>
    1daa:	41c50513          	addi	a0,a0,1052 # 8741c <ds_cnn_s_layer_9_conv_2d_weights+0x10c0>
    1dae:	0a00                	c.addi4spn	s0,sp,272
    1db0:	00ca0b13          	addi	s6,s4,12
    1db4:	551c190b          	addigp	s2,27984 # 87550 <in_out_buf_main>
    1db8:	551c198b          	addigp	s3,27984 # 87550 <in_out_buf_main>
    1dbc:	00087ab7          	lui	s5,0x87
    1dc0:	11f12823          	sw	t6,272(sp)
    1dc4:	11e12a23          	sw	t5,276(sp)
    1dc8:	11d12c23          	sw	t4,280(sp)
    1dcc:	11c12e23          	sw	t3,284(sp)
    1dd0:	12612023          	sw	t1,288(sp)
    1dd4:	13112223          	sw	a7,292(sp)
    1dd8:	13012423          	sw	a6,296(sp)
    1ddc:	12b12623          	sw	a1,300(sp)
    1de0:	12c12823          	sw	a2,304(sp)
    1de4:	12d12a23          	sw	a3,308(sp)
    1de8:	12e12c23          	sw	a4,312(sp)
    1dec:	12f12e23          	sw	a5,316(sp)
    1df0:	25a080ef          	jal	ra,a04a <puts>
    1df4:	00098683          	lb	a3,0(s3)
    1df8:	4010                	c.lw	a2,0(s0)
    1dfa:	414985b3          	sub	a1,s3,s4
    1dfe:	43ca8513          	addi	a0,s5,1084 # 8743c <ds_cnn_s_layer_9_conv_2d_weights+0x10e0>
    1e02:	0985                	c.addi	s3,1
    1e04:	228080ef          	jal	ra,a02c <printf>
    1e08:	0411                	c.addi	s0,4
    1e0a:	ff6995e3          	bne	s3,s6,1df4 <main+0x830>
    1e0e:	551c060b          	lbgp	a2,27984 # 87550 <in_out_buf_main>
    1e12:	f8000793          	li	a5,-128
    1e16:	24f60b63          	beq	a2,a5,206c <main+0xaa8>
    1e1a:	000874b7          	lui	s1,0x87
    1e1e:	f8000693          	li	a3,-128
    1e22:	4581                	c.li	a1,0
    1e24:	45448513          	addi	a0,s1,1108 # 87454 <ds_cnn_s_layer_9_conv_2d_weights+0x10f8>
    1e28:	204080ef          	jal	ra,a02c <printf>
    1e2c:	4405                	c.li	s0,1
    1e2e:	4781                	c.li	a5,0
    1e30:	00190603          	lb	a2,1(s2)
    1e34:	f8000713          	li	a4,-128
    1e38:	00e60e63          	beq	a2,a4,1e54 <main+0x890>
    1e3c:	000874b7          	lui	s1,0x87
    1e40:	f8000693          	li	a3,-128
    1e44:	00100593          	li	a1,1
    1e48:	45448513          	addi	a0,s1,1108 # 87454 <ds_cnn_s_layer_9_conv_2d_weights+0x10f8>
    1e4c:	1e0080ef          	jal	ra,a02c <printf>
    1e50:	0405                	c.addi	s0,1
    1e52:	4781                	c.li	a5,0
    1e54:	00290603          	lb	a2,2(s2)
    1e58:	f8000713          	li	a4,-128
    1e5c:	00e60e63          	beq	a2,a4,1e78 <main+0x8b4>
    1e60:	000874b7          	lui	s1,0x87
    1e64:	f8000693          	li	a3,-128
    1e68:	00200593          	li	a1,2
    1e6c:	45448513          	addi	a0,s1,1108 # 87454 <ds_cnn_s_layer_9_conv_2d_weights+0x10f8>
    1e70:	1bc080ef          	jal	ra,a02c <printf>
    1e74:	0405                	c.addi	s0,1
    1e76:	4781                	c.li	a5,0
    1e78:	00390603          	lb	a2,3(s2)
    1e7c:	f8000713          	li	a4,-128
    1e80:	00e60e63          	beq	a2,a4,1e9c <main+0x8d8>
    1e84:	000874b7          	lui	s1,0x87
    1e88:	f8000693          	li	a3,-128
    1e8c:	00300593          	li	a1,3
    1e90:	45448513          	addi	a0,s1,1108 # 87454 <ds_cnn_s_layer_9_conv_2d_weights+0x10f8>
    1e94:	198080ef          	jal	ra,a02c <printf>
    1e98:	0405                	c.addi	s0,1
    1e9a:	4781                	c.li	a5,0
    1e9c:	00490603          	lb	a2,4(s2)
    1ea0:	f8000713          	li	a4,-128
    1ea4:	00e60e63          	beq	a2,a4,1ec0 <main+0x8fc>
    1ea8:	000874b7          	lui	s1,0x87
    1eac:	f8000693          	li	a3,-128
    1eb0:	00400593          	li	a1,4
    1eb4:	45448513          	addi	a0,s1,1108 # 87454 <ds_cnn_s_layer_9_conv_2d_weights+0x10f8>
    1eb8:	174080ef          	jal	ra,a02c <printf>
    1ebc:	0405                	c.addi	s0,1
    1ebe:	4781                	c.li	a5,0
    1ec0:	00590603          	lb	a2,5(s2)
    1ec4:	f8900713          	li	a4,-119
    1ec8:	00e60e63          	beq	a2,a4,1ee4 <main+0x920>
    1ecc:	000874b7          	lui	s1,0x87
    1ed0:	f8900693          	li	a3,-119
    1ed4:	00500593          	li	a1,5
    1ed8:	45448513          	addi	a0,s1,1108 # 87454 <ds_cnn_s_layer_9_conv_2d_weights+0x10f8>
    1edc:	150080ef          	jal	ra,a02c <printf>
    1ee0:	0405                	c.addi	s0,1
    1ee2:	4781                	c.li	a5,0
    1ee4:	00690603          	lb	a2,6(s2)
    1ee8:	f8000713          	li	a4,-128
    1eec:	00e60e63          	beq	a2,a4,1f08 <main+0x944>
    1ef0:	000874b7          	lui	s1,0x87
    1ef4:	f8000693          	li	a3,-128
    1ef8:	00600593          	li	a1,6
    1efc:	45448513          	addi	a0,s1,1108 # 87454 <ds_cnn_s_layer_9_conv_2d_weights+0x10f8>
    1f00:	12c080ef          	jal	ra,a02c <printf>
    1f04:	0405                	c.addi	s0,1
    1f06:	4781                	c.li	a5,0
    1f08:	00790603          	lb	a2,7(s2)
    1f0c:	f8000713          	li	a4,-128
    1f10:	00e60e63          	beq	a2,a4,1f2c <main+0x968>
    1f14:	000874b7          	lui	s1,0x87
    1f18:	f8000693          	li	a3,-128
    1f1c:	00700593          	li	a1,7
    1f20:	45448513          	addi	a0,s1,1108 # 87454 <ds_cnn_s_layer_9_conv_2d_weights+0x10f8>
    1f24:	108080ef          	jal	ra,a02c <printf>
    1f28:	0405                	c.addi	s0,1
    1f2a:	4781                	c.li	a5,0
    1f2c:	00890603          	lb	a2,8(s2)
    1f30:	40765edb          	beqc	a2,103,1f4c <main+0x988>
    1f34:	000874b7          	lui	s1,0x87
    1f38:	06700693          	li	a3,103
    1f3c:	00800593          	li	a1,8
    1f40:	45448513          	addi	a0,s1,1108 # 87454 <ds_cnn_s_layer_9_conv_2d_weights+0x10f8>
    1f44:	0e8080ef          	jal	ra,a02c <printf>
    1f48:	0405                	c.addi	s0,1
    1f4a:	4781                	c.li	a5,0
    1f4c:	00990603          	lb	a2,9(s2)
    1f50:	f8000713          	li	a4,-128
    1f54:	00e60e63          	beq	a2,a4,1f70 <main+0x9ac>
    1f58:	000874b7          	lui	s1,0x87
    1f5c:	f8000693          	li	a3,-128
    1f60:	00900593          	li	a1,9
    1f64:	45448513          	addi	a0,s1,1108 # 87454 <ds_cnn_s_layer_9_conv_2d_weights+0x10f8>
    1f68:	0c4080ef          	jal	ra,a02c <printf>
    1f6c:	0405                	c.addi	s0,1
    1f6e:	4781                	c.li	a5,0
    1f70:	00a90603          	lb	a2,10(s2)
    1f74:	f8000713          	li	a4,-128
    1f78:	0ee60063          	beq	a2,a4,2058 <main+0xa94>
    1f7c:	000874b7          	lui	s1,0x87
    1f80:	f8000693          	li	a3,-128
    1f84:	00a00593          	li	a1,10
    1f88:	45448513          	addi	a0,s1,1108 # 87454 <ds_cnn_s_layer_9_conv_2d_weights+0x10f8>
    1f8c:	0a0080ef          	jal	ra,a02c <printf>
    1f90:	00b90603          	lb	a2,11(s2)
    1f94:	f9100793          	li	a5,-111
    1f98:	00140413          	addi	s0,s0,1
    1f9c:	00f60a63          	beq	a2,a5,1fb0 <main+0x9ec>
    1fa0:	f9100693          	li	a3,-111
    1fa4:	45ad                	c.li	a1,11
    1fa6:	45448513          	addi	a0,s1,1108
    1faa:	0405                	c.addi	s0,1
    1fac:	080080ef          	jal	ra,a02c <printf>
    1fb0:	00087537          	lui	a0,0x87
    1fb4:	85a2                	c.mv	a1,s0
    1fb6:	4631                	c.li	a2,12
    1fb8:	47850513          	addi	a0,a0,1144 # 87478 <ds_cnn_s_layer_9_conv_2d_weights+0x111c>
    1fbc:	070080ef          	jal	ra,a02c <printf>
    1fc0:	000875b7          	lui	a1,0x87
    1fc4:	35c58593          	addi	a1,a1,860 # 8735c <ds_cnn_s_layer_9_conv_2d_weights+0x1000>
    1fc8:	00087537          	lui	a0,0x87
    1fcc:	48c50513          	addi	a0,a0,1164 # 8748c <ds_cnn_s_layer_9_conv_2d_weights+0x1130>
    1fd0:	05c080ef          	jal	ra,a02c <printf>
    1fd4:	03812503          	lw	a0,56(sp)
    1fd8:	705070ef          	jal	ra,9edc <free>
    1fdc:	17c12083          	lw	ra,380(sp)
    1fe0:	17812403          	lw	s0,376(sp)
    1fe4:	17412483          	lw	s1,372(sp)
    1fe8:	17012903          	lw	s2,368(sp)
    1fec:	16c12983          	lw	s3,364(sp)
    1ff0:	16812a03          	lw	s4,360(sp)
    1ff4:	16412a83          	lw	s5,356(sp)
    1ff8:	16012b03          	lw	s6,352(sp)
    1ffc:	15c12b83          	lw	s7,348(sp)
    2000:	15812c03          	lw	s8,344(sp)
    2004:	15412c83          	lw	s9,340(sp)
    2008:	15012d03          	lw	s10,336(sp)
    200c:	14c12d83          	lw	s11,332(sp)
    2010:	4501                	c.li	a0,0
    2012:	6119                	c.addi16sp	sp,384
    2014:	00008067          	ret
    2018:	00100793          	li	a5,1
    201c:	00f40123          	sb	a5,2(s0)
    2020:	f74fe0ef          	jal	ra,794 <analog_write_reg8>
    2024:	0014e593          	ori	a1,s1,1
    2028:	0ff5f593          	andi	a1,a1,255
    202c:	03900513          	li	a0,57
    2030:	f64fe0ef          	jal	ra,794 <analog_write_reg8>
    2034:	f04ff06f          	j	1738 <main+0x174>
    2038:	07f00513          	li	a0,127
    203c:	f9cfe0ef          	jal	ra,7d8 <analog_read_reg8>
    2040:	531c140b          	addigp	s0,27952 # 87530 <g_pm_status_info>
    2044:	0a057e5b          	bbc	a0,0,2100 <main+0xb3c>
    2048:	4a14f05b          	bbs	s1,1,20e8 <main+0xb24>
    204c:	01000793          	li	a5,16
    2050:	00f40123          	sb	a5,2(s0)
    2054:	ee4ff06f          	j	1738 <main+0x174>
    2058:	00b90603          	lb	a2,11(s2)
    205c:	f9100713          	li	a4,-111
    2060:	0ce60263          	beq	a2,a4,2124 <main+0xb60>
    2064:	000874b7          	lui	s1,0x87
    2068:	f39ff06f          	j	1fa0 <main+0x9dc>
    206c:	4401                	c.li	s0,0
    206e:	4785                	c.li	a5,1
    2070:	dc1ff06f          	j	1e30 <main+0x86c>
    2074:	001fe537          	lui	a0,0x1fe
    2078:	0c050513          	addi	a0,a0,192 # 1fe0c0 <FLASH_SIZE+0xfe0c0>
    207c:	b90ff0ef          	jal	ra,140c <user_calib_adc_vref.constprop.9>
    2080:	001fe537          	lui	a0,0x1fe
    2084:	c84ff0ef          	jal	ra,1508 <user_calib_freq_offset.constprop.8>
    2088:	80dff06f          	j	1894 <main+0x2d0>
    208c:	0507d25b          	beqc	a5,16,20d0 <main+0xb0c>
    2090:	0317ea5b          	bnec	a5,17,20c4 <main+0xb00>
    2094:	0001e537          	lui	a0,0x1e
    2098:	0c050513          	addi	a0,a0,192 # 1e0c0 <BIN_SIZE+0xbcee>
    209c:	b70ff0ef          	jal	ra,140c <user_calib_adc_vref.constprop.9>
    20a0:	0001e537          	lui	a0,0x1e
    20a4:	c64ff0ef          	jal	ra,1508 <user_calib_freq_offset.constprop.8>
    20a8:	fecff06f          	j	1894 <main+0x2d0>
    20ac:	0007e537          	lui	a0,0x7e
    20b0:	0c050513          	addi	a0,a0,192 # 7e0c0 <BIN_SIZE+0x6bcee>
    20b4:	b58ff0ef          	jal	ra,140c <user_calib_adc_vref.constprop.9>
    20b8:	0007e537          	lui	a0,0x7e
    20bc:	c4cff0ef          	jal	ra,1508 <user_calib_freq_offset.constprop.8>
    20c0:	fd4ff06f          	j	1894 <main+0x2d0>
    20c4:	00000513          	li	a0,0
    20c8:	b44ff0ef          	jal	ra,140c <user_calib_adc_vref.constprop.9>
    20cc:	fc8ff06f          	j	1894 <main+0x2d0>
    20d0:	0000e537          	lui	a0,0xe
    20d4:	0c050513          	addi	a0,a0,192 # e0c0 <_RAMCODE_VMA_END+0x337c>
    20d8:	b34ff0ef          	jal	ra,140c <user_calib_adc_vref.constprop.9>
    20dc:	0000e537          	lui	a0,0xe
    20e0:	c28ff0ef          	jal	ra,1508 <user_calib_freq_offset.constprop.8>
    20e4:	fb0ff06f          	j	1894 <main+0x2d0>
    20e8:	02000793          	li	a5,32
    20ec:	0fd4f593          	andi	a1,s1,253
    20f0:	03900513          	li	a0,57
    20f4:	00f40123          	sb	a5,2(s0)
    20f8:	e9cfe0ef          	jal	ra,794 <analog_write_reg8>
    20fc:	e3cff06f          	j	1738 <main+0x174>
    2100:	00800793          	li	a5,8
    2104:	00f40123          	sb	a5,2(s0)
    2108:	e30ff06f          	j	1738 <main+0x174>
    210c:	000fe537          	lui	a0,0xfe
    2110:	0c050513          	addi	a0,a0,192 # fe0c0 <_STACK_TOP+0x5e0c0>
    2114:	af8ff0ef          	jal	ra,140c <user_calib_adc_vref.constprop.9>
    2118:	000fe537          	lui	a0,0xfe
    211c:	becff0ef          	jal	ra,1508 <user_calib_freq_offset.constprop.8>
    2120:	f74ff06f          	j	1894 <main+0x2d0>
    2124:	e80786e3          	beqz	a5,1fb0 <main+0x9ec>
    2128:	000875b7          	lui	a1,0x87
    212c:	36458593          	addi	a1,a1,868 # 87364 <ds_cnn_s_layer_9_conv_2d_weights+0x1008>
    2130:	bd61                	c.j	1fc8 <main+0xa04>
	...

00002134 <default_irq_entry>:
    2134:	a001                	c.j	2134 <default_irq_entry>

00002136 <trap_handler>:
    2136:	a001                	c.j	2136 <trap_handler>
    2138:	0001                	c.nop
	...

0000213c <riscv_convolve_wrapper_s8>:
    213c:	1101                	c.addi	sp,-32
    213e:	0105a383          	lw	t2,16(a1)
    2142:	ce22                	c.swsp	s0,28(sp)
    2144:	cc26                	c.swsp	s1,24(sp)
    2146:	ca4a                	c.swsp	s2,20(sp)
    2148:	c84e                	c.swsp	s3,16(sp)
    214a:	c652                	c.swsp	s4,12(sp)
    214c:	c456                	c.swsp	s5,8(sp)
    214e:	c25a                	c.swsp	s6,4(sp)
    2150:	5f02                	c.lwsp	t5,32(sp)
    2152:	5f92                	c.lwsp	t6,36(sp)
    2154:	52a2                	c.lwsp	t0,40(sp)
    2156:	832e                	c.mv	t1,a1
    2158:	842a                	c.mv	s0,a0
    215a:	84b2                	c.mv	s1,a2
    215c:	8e36                	c.mv	t3,a3
    215e:	893a                	c.mv	s2,a4
    2160:	8ebe                	c.mv	t4,a5
    2162:	89c2                	c.mv	s3,a6
    2164:	01100a33          	add	s4,zero,a7
    2168:	00039663          	bnez	t2,2174 <riscv_convolve_wrapper_s8+0x38>
    216c:	0145a383          	lw	t2,20(a1)
    2170:	04038463          	beqz	t2,21b8 <riscv_convolve_wrapper_s8+0x7c>
    2174:	004e2783          	lw	a5,4(t3)
    2178:	00100713          	li	a4,1
    217c:	00e79a63          	bne	a5,a4,2190 <riscv_convolve_wrapper_s8+0x54>
    2180:	01832703          	lw	a4,24(t1)
    2184:	00f71663          	bne	a4,a5,2190 <riscv_convolve_wrapper_s8+0x54>
    2188:	004ea783          	lw	a5,4(t4)
    218c:	04e78e63          	beq	a5,a4,21e8 <riscv_convolve_wrapper_s8+0xac>
    2190:	8522                	c.mv	a0,s0
    2192:	4472                	c.lwsp	s0,28(sp)
    2194:	4aa2                	c.lwsp	s5,8(sp)
    2196:	4b12                	c.lwsp	s6,4(sp)
    2198:	d416                	c.swsp	t0,40(sp)
    219a:	d27e                	c.swsp	t6,36(sp)
    219c:	d07a                	c.swsp	t5,32(sp)
    219e:	88d2                	c.mv	a7,s4
    21a0:	884e                	c.mv	a6,s3
    21a2:	4a32                	c.lwsp	s4,12(sp)
    21a4:	49c2                	c.lwsp	s3,16(sp)
    21a6:	874a                	c.mv	a4,s2
    21a8:	8626                	c.mv	a2,s1
    21aa:	4952                	c.lwsp	s2,20(sp)
    21ac:	44e2                	c.lwsp	s1,24(sp)
    21ae:	87f6                	c.mv	a5,t4
    21b0:	86f2                	c.mv	a3,t3
    21b2:	859a                	c.mv	a1,t1
    21b4:	6105                	c.addi16sp	sp,32
    21b6:	a2a9                	c.j	2300 <riscv_convolve_s8>
    21b8:	0087a383          	lw	t2,8(a5)
    21bc:	00100a93          	li	s5,1
    21c0:	fb539ae3          	bne	t2,s5,2174 <riscv_convolve_wrapper_s8+0x38>
    21c4:	0047aa83          	lw	s5,4(a5)
    21c8:	fa7a96e3          	bne	s5,t2,2174 <riscv_convolve_wrapper_s8+0x38>
    21cc:	0185a383          	lw	t2,24(a1)
    21d0:	fd5390e3          	bne	t2,s5,2190 <riscv_convolve_wrapper_s8+0x54>
    21d4:	01c5aa83          	lw	s5,28(a1)
    21d8:	047a8a63          	beq	s5,t2,222c <riscv_convolve_wrapper_s8+0xf0>
    21dc:	004e2703          	lw	a4,4(t3)
    21e0:	00100793          	li	a5,1
    21e4:	faf716e3          	bne	a4,a5,2190 <riscv_convolve_wrapper_s8+0x54>
    21e8:	00ce2703          	lw	a4,12(t3)
    21ec:	00832783          	lw	a5,8(t1)
    21f0:	02f707b3          	mul	a5,a4,a5
    21f4:	8b8d                	c.andi	a5,3
    21f6:	ffc9                	c.bnez	a5,2190 <riscv_convolve_wrapper_s8+0x54>
    21f8:	00cea783          	lw	a5,12(t4)
    21fc:	f8f71ae3          	bne	a4,a5,2190 <riscv_convolve_wrapper_s8+0x54>
    2200:	8522                	c.mv	a0,s0
    2202:	4472                	c.lwsp	s0,28(sp)
    2204:	4aa2                	c.lwsp	s5,8(sp)
    2206:	4b12                	c.lwsp	s6,4(sp)
    2208:	d416                	c.swsp	t0,40(sp)
    220a:	d27e                	c.swsp	t6,36(sp)
    220c:	d07a                	c.swsp	t5,32(sp)
    220e:	88d2                	c.mv	a7,s4
    2210:	884e                	c.mv	a6,s3
    2212:	4a32                	c.lwsp	s4,12(sp)
    2214:	49c2                	c.lwsp	s3,16(sp)
    2216:	874a                	c.mv	a4,s2
    2218:	8626                	c.mv	a2,s1
    221a:	4952                	c.lwsp	s2,20(sp)
    221c:	44e2                	c.lwsp	s1,24(sp)
    221e:	87f6                	c.mv	a5,t4
    2220:	86f2                	c.mv	a3,t3
    2222:	859a                	c.mv	a1,t1
    2224:	02010113          	addi	sp,sp,32
    2228:	3780106f          	j	35a0 <riscv_convolve_1_x_n_s8>
    222c:	00c7a383          	lw	t2,12(a5)
    2230:	00c6ab03          	lw	s6,12(a3)
    2234:	fa7b14e3          	bne	s6,t2,21dc <riscv_convolve_wrapper_s8+0xa0>
    2238:	0085a383          	lw	t2,8(a1)
    223c:	01539663          	bne	t2,s5,2248 <riscv_convolve_wrapper_s8+0x10c>
    2240:	00c5aa83          	lw	s5,12(a1)
    2244:	027a8863          	beq	s5,t2,2274 <riscv_convolve_wrapper_s8+0x138>
    2248:	8522                	c.mv	a0,s0
    224a:	4472                	c.lwsp	s0,28(sp)
    224c:	4aa2                	c.lwsp	s5,8(sp)
    224e:	4b12                	c.lwsp	s6,4(sp)
    2250:	d416                	c.swsp	t0,40(sp)
    2252:	d27e                	c.swsp	t6,36(sp)
    2254:	d07a                	c.swsp	t5,32(sp)
    2256:	88d2                	c.mv	a7,s4
    2258:	884e                	c.mv	a6,s3
    225a:	4a32                	c.lwsp	s4,12(sp)
    225c:	49c2                	c.lwsp	s3,16(sp)
    225e:	874a                	c.mv	a4,s2
    2260:	8626                	c.mv	a2,s1
    2262:	4952                	c.lwsp	s2,20(sp)
    2264:	44e2                	c.lwsp	s1,24(sp)
    2266:	87f6                	c.mv	a5,t4
    2268:	86f2                	c.mv	a3,t3
    226a:	859a                	c.mv	a1,t1
    226c:	02010113          	addi	sp,sp,32
    2270:	1340106f          	j	33a4 <riscv_convolve_1x1_s8>
    2274:	4472                	c.lwsp	s0,28(sp)
    2276:	44e2                	c.lwsp	s1,24(sp)
    2278:	4952                	c.lwsp	s2,20(sp)
    227a:	49c2                	c.lwsp	s3,16(sp)
    227c:	4a32                	c.lwsp	s4,12(sp)
    227e:	4aa2                	c.lwsp	s5,8(sp)
    2280:	4b12                	c.lwsp	s6,4(sp)
    2282:	6105                	c.addi16sp	sp,32
    2284:	a011                	c.j	2288 <riscv_convolve_1x1_s8_fast>
	...

00002288 <riscv_convolve_1x1_s8_fast>:
    2288:	7179                	c.addi16sp	sp,-48
    228a:	87ae                	c.mv	a5,a1
    228c:	498c                	c.lw	a1,16(a1)
    228e:	d606                	c.swsp	ra,44(sp)
    2290:	d422                	c.swsp	s0,40(sp)
    2292:	e5ad                	c.bnez	a1,22fc <riscv_convolve_1x1_s8_fast+0x74>
    2294:	4bc0                	c.lw	s0,20(a5)
    2296:	e03d                	c.bnez	s0,22fc <riscv_convolve_1x1_s8_fast+0x74>
    2298:	478c                	c.lw	a1,8(a5)
    229a:	4505                	c.li	a0,1
    229c:	06a59063          	bne	a1,a0,22fc <riscv_convolve_1x1_s8_fast+0x74>
    22a0:	47c8                	c.lw	a0,12(a5)
    22a2:	04b51d63          	bne	a0,a1,22fc <riscv_convolve_1x1_s8_fast+0x74>
    22a6:	0046a883          	lw	a7,4(a3)
    22aa:	853a                	c.mv	a0,a4
    22ac:	4698                	c.lw	a4,8(a3)
    22ae:	85c2                	c.mv	a1,a6
    22b0:	03170733          	mul	a4,a4,a7
    22b4:	0006a803          	lw	a6,0(a3)
    22b8:	58d2                	c.lwsp	a7,52(sp)
    22ba:	03070833          	mul	a6,a4,a6
    22be:	00c6a303          	lw	t1,12(a3)
    22c2:	0247af83          	lw	t6,36(a5)
    22c6:	0207af03          	lw	t5,32(a5)
    22ca:	0047ae83          	lw	t4,4(a5)
    22ce:	0007ae03          	lw	t3,0(a5)
    22d2:	4218                	c.lw	a4,0(a2)
    22d4:	425c                	c.lw	a5,4(a2)
    22d6:	00c8a883          	lw	a7,12(a7)
    22da:	56e2                	c.lwsp	a3,56(sp)
    22dc:	5642                	c.lwsp	a2,48(sp)
    22de:	cc1a                	c.swsp	t1,24(sp)
    22e0:	ca46                	c.swsp	a7,20(sp)
    22e2:	c87e                	c.swsp	t6,16(sp)
    22e4:	c67a                	c.swsp	t5,12(sp)
    22e6:	c476                	c.swsp	t4,8(sp)
    22e8:	c272                	c.swsp	t3,4(sp)
    22ea:	c01a                	c.swsp	t1,0(sp)
    22ec:	118030ef          	jal	ra,5404 <riscv_nn_mat_mult_nt_t_s8>
    22f0:	50b2                	c.lwsp	ra,44(sp)
    22f2:	8522                	c.mv	a0,s0
    22f4:	5422                	c.lwsp	s0,40(sp)
    22f6:	6145                	c.addi16sp	sp,48
    22f8:	00008067          	ret
    22fc:	547d                	c.li	s0,-1
    22fe:	bfcd                	c.j	22f0 <riscv_convolve_1x1_s8_fast+0x68>

00002300 <riscv_convolve_s8>:
    2300:	4108                	c.lw	a0,0(a0)
    2302:	7109                	c.addi16sp	sp,-384
    2304:	16112e23          	sw	ra,380(sp)
    2308:	16812c23          	sw	s0,376(sp)
    230c:	16912a23          	sw	s1,372(sp)
    2310:	17212823          	sw	s2,368(sp)
    2314:	17312623          	sw	s3,364(sp)
    2318:	17412423          	sw	s4,360(sp)
    231c:	17512223          	sw	s5,356(sp)
    2320:	17612023          	sw	s6,352(sp)
    2324:	15712e23          	sw	s7,348(sp)
    2328:	15812c23          	sw	s8,344(sp)
    232c:	15912a23          	sw	s9,340(sp)
    2330:	15a12823          	sw	s10,336(sp)
    2334:	15b12623          	sw	s11,332(sp)
    2338:	dcaa                	c.swsp	a0,120(sp)
    233a:	18412883          	lw	a7,388(sp)
    233e:	5c050363          	beqz	a0,2904 <riscv_convolve_s8+0x604>
    2342:	00c7ae03          	lw	t3,12(a5)
    2346:	46c8                	c.lw	a0,12(a3)
    2348:	010e1313          	slli	t1,t3,0x10
    234c:	01051e93          	slli	t4,a0,0x10
    2350:	010ede93          	srli	t4,t4,0x10
    2354:	01035313          	srli	t1,t1,0x10
    2358:	026edf33          	divu	t5,t4,t1
    235c:	0087ae83          	lw	t4,8(a5)
    2360:	6341                	c.lui	t1,0x10
    2362:	43dc                	c.lw	a5,4(a5)
    2364:	137d                	c.addi	t1,-1
    2366:	006ef9b3          	and	s3,t4,t1
    236a:	0067f7b3          	and	a5,a5,t1
    236e:	d63e                	c.swsp	a5,44(sp)
    2370:	02f987b3          	mul	a5,s3,a5
    2374:	00c8a403          	lw	s0,12(a7)
    2378:	00657533          	and	a0,a0,t1
    237c:	006e7ab3          	and	s5,t3,t1
    2380:	03578e33          	mul	t3,a5,s5
    2384:	42c4                	c.lw	s1,4(a3)
    2386:	429c                	c.lw	a5,0(a3)
    2388:	cda2                	c.swsp	s0,216(sp)
    238a:	00647433          	and	s0,s0,t1
    238e:	0086a303          	lw	t1,8(a3)
    2392:	c3be                	c.swsp	a5,196(sp)
    2394:	499c                	c.lw	a5,16(a1)
    2396:	d322                	c.swsp	s0,164(sp)
    2398:	df3e                	c.swsp	a5,188(sp)
    239a:	4ddc                	c.lw	a5,28(a1)
    239c:	0088a383          	lw	t2,8(a7)
    23a0:	d83e                	c.swsp	a5,48(sp)
    23a2:	41dc                	c.lw	a5,4(a1)
    23a4:	0048a283          	lw	t0,4(a7)
    23a8:	cb3e                	c.swsp	a5,148(sp)
    23aa:	519c                	c.lw	a5,32(a1)
    23ac:	0145af83          	lw	t6,20(a1)
    23b0:	c5be                	c.swsp	a5,200(sp)
    23b2:	51dc                	c.lw	a5,36(a1)
    23b4:	0085a903          	lw	s2,8(a1)
    23b8:	c7be                	c.swsp	a5,204(sp)
    23ba:	00c5ae83          	lw	t4,12(a1)
    23be:	0185ac03          	lw	s8,24(a1)
    23c2:	0005a883          	lw	a7,0(a1)
    23c6:	00062d03          	lw	s10,0(a2)
    23ca:	03e566b3          	rem	a3,a0,t5
    23ce:	00462d83          	lw	s11,4(a2)
    23d2:	03e447b3          	div	a5,s0,t5
    23d6:	52069763          	bnez	a3,2904 <riscv_convolve_s8+0x604>
    23da:	03e46b33          	rem	s6,s0,t5
    23de:	520b1363          	bnez	s6,2904 <riscv_convolve_s8+0x604>
    23e2:	003e7693          	andi	a3,t3,3
    23e6:	c572                	c.swsp	t3,136(sp)
    23e8:	50069863          	bnez	a3,28f8 <riscv_convolve_s8+0x5f8>
    23ec:	461e                	c.lwsp	a2,196(sp)
    23ee:	4cc05763          	blez	a2,28bc <riscv_convolve_s8+0x5bc>
    23f2:	843a                	c.mv	s0,a4
    23f4:	6741                	c.lui	a4,0x10
    23f6:	177d                	c.addi	a4,-1
    23f8:	00e375b3          	and	a1,t1,a4
    23fc:	00eff633          	and	a2,t6,a4
    2400:	8a42                	c.mv	s4,a6
    2402:	cfb2                	c.swsp	a2,220(sp)
    2404:	02b60833          	mul	a6,a2,a1
    2408:	402e5613          	srai	a2,t3,0x2
    240c:	00e4ffb3          	and	t6,s1,a4
    2410:	0642                	c.slli	a2,0x10
    2412:	84ae                	c.mv	s1,a1
    2414:	8241                	c.srli	a2,0x10
    2416:	c0fe                	c.swsp	t6,64(sp)
    2418:	03f48fb3          	mul	t6,s1,t6
    241c:	54fa                	c.lwsp	s1,188(sp)
    241e:	00e2f333          	and	t1,t0,a4
    2422:	d3b2                	c.swsp	a2,228(sp)
    2424:	00e3f2b3          	and	t0,t2,a4
    2428:	167d                	c.addi	a2,-1
    242a:	c99a                	c.swsp	t1,208(sp)
    242c:	d096                	c.swsp	t0,96(sp)
    242e:	025302b3          	mul	t0,t1,t0
    2432:	00e4f333          	and	t1,s1,a4
    2436:	00eef4b3          	and	s1,t4,a4
    243a:	00e97eb3          	and	t4,s2,a4
    243e:	01061713          	slli	a4,a2,0x10
    2442:	02fe0633          	mul	a2,t3,a5
    2446:	de2e                	c.swsp	a1,60(sp)
    2448:	02a585b3          	mul	a1,a1,a0
    244c:	d1b2                	c.swsp	a2,224(sp)
    244e:	561a                	c.lwsp	a2,164(sp)
    2450:	41000833          	neg	a6,a6
    2454:	02c282b3          	mul	t0,t0,a2
    2458:	02b48633          	mul	a2,s1,a1
    245c:	40680833          	sub	a6,a6,t1
    2460:	c4a8147f          	maddr32	s0,a6,a0
    2464:	d7b2                	c.swsp	a2,236(sp)
    2466:	03d50633          	mul	a2,a0,t4
    246a:	8341                	c.srli	a4,0x10
    246c:	0705                	c.addi	a4,1
    246e:	d4b2                	c.swsp	a2,104(sp)
    2470:	5642                	c.lwsp	a2,48(sp)
    2472:	8922                	c.mv	s2,s0
    2474:	02b60633          	mul	a2,a2,a1
    2478:	5466                	c.lwsp	s0,120(sp)
    247a:	00371593          	slli	a1,a4,0x3
    247e:	da32                	c.swsp	a2,52(sp)
    2480:	03598633          	mul	a2,s3,s5
    2484:	070a                	c.slli	a4,0x2
    2486:	03850cb3          	mul	s9,a0,s8
    248a:	02af8fb3          	mul	t6,t6,a0
    248e:	dbba                	c.swsp	a4,244(sp)
    2490:	fff68513          	addi	a0,a3,-1
    2494:	00b40733          	add	a4,s0,a1
    2498:	41100833          	neg	a6,a7
    249c:	dc32                	c.swsp	a2,56(sp)
    249e:	10e12023          	sw	a4,256(sp)
    24a2:	462a                	c.lwsp	a2,136(sp)
    24a4:	01051713          	slli	a4,a0,0x10
    24a8:	8341                	c.srli	a4,0x10
    24aa:	06c2                	c.slli	a3,0x10
    24ac:	01881b93          	slli	s7,a6,0x18
    24b0:	0606                	c.slli	a2,0x1
    24b2:	82c1                	c.srli	a3,0x10
    24b4:	418bdb93          	srai	s7,s7,0x18
    24b8:	cbba                	c.swsp	a4,212(sp)
    24ba:	01089713          	slli	a4,a7,0x10
    24be:	8741                	c.srai	a4,0x10
    24c0:	85d2                	c.mv	a1,s4
    24c2:	d9a6                	c.swsp	s1,240(sp)
    24c4:	deb2                	c.swsp	a2,124(sp)
    24c6:	d5b6                	c.swsp	a3,232(sp)
    24c8:	9622                	c.add	a2,s0
    24ca:	00279693          	slli	a3,a5,0x2
    24ce:	11a12623          	sw	s10,268(sp)
    24d2:	4481                	c.li	s1,0
    24d4:	8d62                	c.mv	s10,s8
    24d6:	8a5a                	c.mv	s4,s6
    24d8:	8c6e                	c.mv	s8,s11
    24da:	8dde                	c.mv	s11,s7
    24dc:	d6f6                	c.swsp	t4,108(sp)
    24de:	c732                	c.swsp	a2,140(sp)
    24e0:	c1b6                	c.swsp	a3,192(sp)
    24e2:	daba                	c.swsp	a4,116(sp)
    24e4:	c97a                	c.swsp	t5,144(sp)
    24e6:	cef2                	c.swsp	t3,92(sp)
    24e8:	11512823          	sw	s5,272(sp)
    24ec:	474a                	c.lwsp	a4,144(sp)
    24ee:	1e070563          	beqz	a4,26d8 <riscv_convolve_s8+0x3d8>
    24f2:	5566                	c.lwsp	a0,120(sp)
    24f4:	443a                	c.lwsp	s0,140(sp)
    24f6:	18812703          	lw	a4,392(sp)
    24fa:	caaa                	c.swsp	a0,84(sp)
    24fc:	0bc15503          	lhu	a0,188(sp)
    2500:	8826                	c.mv	a6,s1
    2502:	10c12603          	lw	a2,268(sp)
    2506:	18012683          	lw	a3,384(sp)
    250a:	11012483          	lw	s1,272(sp)
    250e:	8bee                	c.mv	s7,s11
    2510:	c362                	c.swsp	s8,132(sp)
    2512:	8de2                	c.mv	s11,s8
    2514:	11212a23          	sw	s2,276(sp)
    2518:	8c22                	c.mv	s8,s0
    251a:	dd4a                	c.swsp	s2,184(sp)
    251c:	d93e                	c.swsp	a5,176(sp)
    251e:	4a81                	c.li	s5,0
    2520:	8e2e                	c.mv	t3,a1
    2522:	87ba                	c.mv	a5,a4
    2524:	8416                	c.mv	s0,t0
    2526:	892e                	c.mv	s2,a1
    2528:	10a12423          	sw	a0,264(sp)
    252c:	11f12c23          	sw	t6,280(sp)
    2530:	474e                	c.lwsp	a4,208(sp)
    2532:	853e                	c.mv	a0,a5
    2534:	38070063          	beqz	a4,28b4 <riscv_convolve_s8+0x5b4>
    2538:	477e                	c.lwsp	a4,220(sp)
    253a:	4581                	c.li	a1,0
    253c:	40e008b3          	neg	a7,a4
    2540:	576a                	c.lwsp	a4,184(sp)
    2542:	10f12e23          	sw	a5,284(sp)
    2546:	87ae                	c.mv	a5,a1
    2548:	c882                	c.swsp	zero,80(sp)
    254a:	13b12023          	sw	s11,288(sp)
    254e:	13012223          	sw	a6,292(sp)
    2552:	cd36                	c.swsp	a3,152(sp)
    2554:	13512423          	sw	s5,296(sp)
    2558:	12812623          	sw	s0,300(sp)
    255c:	13412823          	sw	s4,304(sp)
    2560:	13212a23          	sw	s2,308(sp)
    2564:	5686                	c.lwsp	a3,96(sp)
    2566:	10068163          	beqz	a3,2668 <riscv_convolve_s8+0x368>
    256a:	46f6                	c.lwsp	a3,92(sp)
    256c:	c6ba                	c.swsp	a4,76(sp)
    256e:	40d006b3          	neg	a3,a3
    2572:	d8b6                	c.swsp	a3,112(sp)
    2574:	10812683          	lw	a3,264(sp)
    2578:	cc82                	c.swsp	zero,88(sp)
    257a:	40d006b3          	neg	a3,a3
    257e:	c4b6                	c.swsp	a3,72(sp)
    2580:	0c811683          	lh	a3,200(sp)
    2584:	c12a                	c.swsp	a0,128(sp)
    2586:	d2c6                	c.swsp	a7,100(sp)
    2588:	d536                	c.swsp	a3,168(sp)
    258a:	0cc11683          	lh	a3,204(sp)
    258e:	cf72                	c.swsp	t3,156(sp)
    2590:	d132                	c.swsp	a2,160(sp)
    2592:	d736                	c.swsp	a3,172(sp)
    2594:	0d815683          	lhu	a3,216(sp)
    2598:	12f12c23          	sw	a5,312(sp)
    259c:	12e12e23          	sw	a4,316(sp)
    25a0:	10d12223          	sw	a3,260(sp)
    25a4:	0b015683          	lhu	a3,176(sp)
    25a8:	0ad12a23          	sw	a3,180(sp)
    25ac:	5732                	c.lwsp	a4,44(sp)
    25ae:	5a96                	c.lwsp	s5,100(sp)
    25b0:	47b6                	c.lwsp	a5,76(sp)
    25b2:	4b01                	c.li	s6,0
    25b4:	c325                	c.beqz	a4,2614 <riscv_convolve_s8+0x314>
    25b6:	8756                	c.mv	a4,s5
    25b8:	8ae2                	c.mv	s5,s8
    25ba:	8c5a                	c.mv	s8,s6
    25bc:	00e00b33          	add	s6,zero,a4
    25c0:	04098063          	beqz	s3,2600 <riscv_convolve_s8+0x300>
    25c4:	4706                	c.lwsp	a4,64(sp)
    25c6:	12eb7563          	bgeu	s6,a4,26f0 <riscv_convolve_s8+0x3f0>
    25ca:	4a26                	c.lwsp	s4,72(sp)
    25cc:	8456                	c.mv	s0,s5
    25ce:	c2d6                	c.swsp	s5,68(sp)
    25d0:	8dbe                	c.mv	s11,a5
    25d2:	4901                	c.li	s2,0
    25d4:	00f00ab3          	add	s5,zero,a5
    25d8:	8626                	c.mv	a2,s1
    25da:	85de                	c.mv	a1,s7
    25dc:	8522                	c.mv	a0,s0
    25de:	000a4563          	bltz	s4,25e8 <riscv_convolve_s8+0x2e8>
    25e2:	57f2                	c.lwsp	a5,60(sp)
    25e4:	12fa4863          	blt	s4,a5,2714 <riscv_convolve_s8+0x414>
    25e8:	03b070ef          	jal	ra,9e22 <memset>
    25ec:	0905                	c.addi	s2,1
    25ee:	9426                	c.add	s0,s1
    25f0:	9a6a                	c.add	s4,s10
    25f2:	9ae6                	c.add	s5,s9
    25f4:	ff2992e3          	bne	s3,s2,25d8 <riscv_convolve_s8+0x2d8>
    25f8:	4a96                	c.lwsp	s5,68(sp)
    25fa:	5762                	c.lwsp	a4,56(sp)
    25fc:	87ee                	c.mv	a5,s11
    25fe:	9aba                	c.add	s5,a4
    2600:	5752                	c.lwsp	a4,52(sp)
    2602:	0c05                	c.addi	s8,1
    2604:	97ba                	c.add	a5,a4
    2606:	5742                	c.lwsp	a4,48(sp)
    2608:	9b3a                	c.add	s6,a4
    260a:	5732                	c.lwsp	a4,44(sp)
    260c:	fb871ae3          	bne	a4,s8,25c0 <riscv_convolve_s8+0x2c0>
    2610:	01500c33          	add	s8,zero,s5
    2614:	57c6                	c.lwsp	a5,112(sp)
    2616:	4456                	c.lwsp	s0,84(sp)
    2618:	56d6                	c.lwsp	a3,116(sp)
    261a:	4676                	c.lwsp	a2,92(sp)
    261c:	00fc0533          	add	a0,s8,a5
    2620:	008005b3          	add	a1,zero,s0
    2624:	325030ef          	jal	ra,6148 <riscv_s8_to_s16_unordered_with_offset>
    2628:	47c6                	c.lwsp	a5,80(sp)
    262a:	0785                	c.addi	a5,1
    262c:	873e                	c.mv	a4,a5
    262e:	c8be                	c.swsp	a5,80(sp)
    2630:	4789                	c.li	a5,2
    2632:	0ef70763          	beq	a4,a5,2720 <riscv_convolve_s8+0x420>
    2636:	57f6                	c.lwsp	a5,124(sp)
    2638:	97a2                	c.add	a5,s0
    263a:	cabe                	c.swsp	a5,84(sp)
    263c:	4736                	c.lwsp	a4,76(sp)
    263e:	56a6                	c.lwsp	a3,104(sp)
    2640:	47e6                	c.lwsp	a5,88(sp)
    2642:	9736                	c.add	a4,a3
    2644:	c6ba                	c.swsp	a4,76(sp)
    2646:	56b6                	c.lwsp	a3,108(sp)
    2648:	4726                	c.lwsp	a4,72(sp)
    264a:	0785                	c.addi	a5,1
    264c:	9736                	c.add	a4,a3
    264e:	c4ba                	c.swsp	a4,72(sp)
    2650:	5706                	c.lwsp	a4,96(sp)
    2652:	ccbe                	c.swsp	a5,88(sp)
    2654:	f4e79ce3          	bne	a5,a4,25ac <riscv_convolve_s8+0x2ac>
    2658:	450a                	c.lwsp	a0,128(sp)
    265a:	5896                	c.lwsp	a7,100(sp)
    265c:	4e7a                	c.lwsp	t3,156(sp)
    265e:	560a                	c.lwsp	a2,160(sp)
    2660:	13812783          	lw	a5,312(sp)
    2664:	13c12703          	lw	a4,316(sp)
    2668:	56be                	c.lwsp	a3,236(sp)
    266a:	0785                	c.addi	a5,1
    266c:	9736                	c.add	a4,a3
    266e:	56ce                	c.lwsp	a3,240(sp)
    2670:	98b6                	c.add	a7,a3
    2672:	46ce                	c.lwsp	a3,208(sp)
    2674:	eed798e3          	bne	a5,a3,2564 <riscv_convolve_s8+0x264>
    2678:	11c12783          	lw	a5,284(sp)
    267c:	12012d83          	lw	s11,288(sp)
    2680:	12412803          	lw	a6,292(sp)
    2684:	46ea                	c.lwsp	a3,152(sp)
    2686:	12812a83          	lw	s5,296(sp)
    268a:	12c12403          	lw	s0,300(sp)
    268e:	13012a03          	lw	s4,304(sp)
    2692:	13412903          	lw	s2,308(sp)
    2696:	22050163          	beqz	a0,28b8 <riscv_convolve_s8+0x5b8>
    269a:	4746                	c.lwsp	a4,80(sp)
    269c:	0e071663          	bnez	a4,2788 <riscv_convolve_s8+0x488>
    26a0:	570e                	c.lwsp	a4,224(sp)
    26a2:	459a                	c.lwsp	a1,132(sp)
    26a4:	9e3a                	c.add	t3,a4
    26a6:	470e                	c.lwsp	a4,192(sp)
    26a8:	0a85                	c.addi	s5,1
    26aa:	96ba                	c.add	a3,a4
    26ac:	963a                	c.add	a2,a4
    26ae:	972e                	c.add	a4,a1
    26b0:	c33a                	c.swsp	a4,132(sp)
    26b2:	574a                	c.lwsp	a4,176(sp)
    26b4:	97ba                	c.add	a5,a4
    26b6:	576a                	c.lwsp	a4,184(sp)
    26b8:	9726                	c.add	a4,s1
    26ba:	dd3a                	c.swsp	a4,184(sp)
    26bc:	474a                	c.lwsp	a4,144(sp)
    26be:	e75719e3          	bne	a4,s5,2530 <riscv_convolve_s8+0x230>
    26c2:	85ca                	c.mv	a1,s2
    26c4:	57ca                	c.lwsp	a5,176(sp)
    26c6:	11812f83          	lw	t6,280(sp)
    26ca:	11412903          	lw	s2,276(sp)
    26ce:	8c6e                	c.mv	s8,s11
    26d0:	84c2                	c.mv	s1,a6
    26d2:	82a2                	c.mv	t0,s0
    26d4:	01700db3          	add	s11,zero,s7
    26d8:	18812703          	lw	a4,392(sp)
    26dc:	0485                	c.addi	s1,1
    26de:	9716                	c.add	a4,t0
    26e0:	18e12423          	sw	a4,392(sp)
    26e4:	471e                	c.lwsp	a4,196(sp)
    26e6:	997e                	c.add	s2,t6
    26e8:	e09712e3          	bne	a4,s1,24ec <riscv_convolve_s8+0x1ec>
    26ec:	8b52                	c.mv	s6,s4
    26ee:	a2f9                	c.j	28bc <riscv_convolve_s8+0x5bc>
    26f0:	4901                	c.li	s2,0
    26f2:	8456                	c.mv	s0,s5
    26f4:	00f00a33          	add	s4,zero,a5
    26f8:	8522                	c.mv	a0,s0
    26fa:	0905                	c.addi	s2,1
    26fc:	8626                	c.mv	a2,s1
    26fe:	85de                	c.mv	a1,s7
    2700:	00940433          	add	s0,s0,s1
    2704:	71e070ef          	jal	ra,9e22 <memset>
    2708:	ff2998e3          	bne	s3,s2,26f8 <riscv_convolve_s8+0x3f8>
    270c:	5762                	c.lwsp	a4,56(sp)
    270e:	87d2                	c.mv	a5,s4
    2710:	9aba                	c.add	s5,a4
    2712:	b5fd                	c.j	2600 <riscv_convolve_s8+0x300>
    2714:	015005b3          	add	a1,zero,s5
    2718:	610070ef          	jal	ra,9d28 <memcpy>
    271c:	ed1ff06f          	j	25ec <riscv_convolve_s8+0x2ec>
    2720:	474a                	c.lwsp	a4,144(sp)
    2722:	4785                	c.li	a5,1
    2724:	58ba                	c.lwsp	a7,172(sp)
    2726:	582a                	c.lwsp	a6,168(sp)
    2728:	02f70a63          	beq	a4,a5,275c <riscv_convolve_s8+0x45c>
    272c:	430a                	c.lwsp	t1,128(sp)
    272e:	5466                	c.lwsp	s0,120(sp)
    2730:	c81a                	c.swsp	t1,16(sp)
    2732:	531a                	c.lwsp	t1,164(sp)
    2734:	47da                	c.lwsp	a5,148(sp)
    2736:	c61a                	c.swsp	t1,12(sp)
    2738:	436a                	c.lwsp	t1,152(sp)
    273a:	570a                	c.lwsp	a4,160(sp)
    273c:	c41a                	c.swsp	t1,8(sp)
    273e:	432a                	c.lwsp	t1,136(sp)
    2740:	469a                	c.lwsp	a3,132(sp)
    2742:	c21a                	c.swsp	t1,4(sp)
    2744:	565a                	c.lwsp	a2,180(sp)
    2746:	4376                	c.lwsp	t1,92(sp)
    2748:	457a                	c.lwsp	a0,156(sp)
    274a:	85a2                	c.mv	a1,s0
    274c:	c01a                	c.swsp	t1,0(sp)
    274e:	c882                	c.swsp	zero,80(sp)
    2750:	770000ef          	jal	ra,2ec0 <riscv_nn_mat_mult_kernel_row_offset_s8_s16>
    2754:	4c3a                	c.lwsp	s8,140(sp)
    2756:	c12a                	c.swsp	a0,128(sp)
    2758:	caa2                	c.swsp	s0,84(sp)
    275a:	b5cd                	c.j	263c <riscv_convolve_s8+0x33c>
    275c:	430a                	c.lwsp	t1,128(sp)
    275e:	5466                	c.lwsp	s0,120(sp)
    2760:	c61a                	c.swsp	t1,12(sp)
    2762:	436a                	c.lwsp	t1,152(sp)
    2764:	47da                	c.lwsp	a5,148(sp)
    2766:	c41a                	c.swsp	t1,8(sp)
    2768:	432a                	c.lwsp	t1,136(sp)
    276a:	570a                	c.lwsp	a4,160(sp)
    276c:	c21a                	c.swsp	t1,4(sp)
    276e:	469a                	c.lwsp	a3,132(sp)
    2770:	4376                	c.lwsp	t1,92(sp)
    2772:	10412603          	lw	a2,260(sp)
    2776:	457a                	c.lwsp	a0,156(sp)
    2778:	85a2                	c.mv	a1,s0
    277a:	c01a                	c.swsp	t1,0(sp)
    277c:	c882                	c.swsp	zero,80(sp)
    277e:	2269                	c.jal	2908 <riscv_nn_mat_mult_kernel_s8_s16>
    2780:	4c3a                	c.lwsp	s8,140(sp)
    2782:	c12a                	c.swsp	a0,128(sp)
    2784:	caa2                	c.swsp	s0,84(sp)
    2786:	bd5d                	c.j	263c <riscv_convolve_s8+0x33c>
    2788:	574a                	c.lwsp	a4,176(sp)
    278a:	10070d63          	beqz	a4,28a4 <riscv_convolve_s8+0x5a4>
    278e:	475e                	c.lwsp	a4,212(sp)
    2790:	8f5e                	c.mv	t5,s7
    2792:	5b6e                	c.lwsp	s6,248(sp)
    2794:	5bfe                	c.lwsp	s7,252(sp)
    2796:	85f2                	c.mv	a1,t3
    2798:	4301                	c.li	t1,0
    279a:	00170393          	addi	t2,a4,1 # 10001 <_RAMCODE_VMA_END+0x52bd>
    279e:	4c09                	c.li	s8,2
    27a0:	4f81                	c.li	t6,0
    27a2:	4285                	c.li	t0,1
    27a4:	c2be                	c.swsp	a5,68(sp)
    27a6:	c4ea                	c.swsp	s10,72(sp)
    27a8:	4781                	c.li	a5,0
    27aa:	c689                	c.beqz	a3,27b4 <riscv_convolve_s8+0x4b4>
    27ac:	006687b3          	add	a5,a3,t1
    27b0:	0007a783          	lw	a5,0(a5)
    27b4:	571e                	c.lwsp	a4,228(sp)
    27b6:	0e070b63          	beqz	a4,28ac <riscv_convolve_s8+0x5ac>
    27ba:	575e                	c.lwsp	a4,244(sp)
    27bc:	58e6                	c.lwsp	a7,120(sp)
    27be:	00e58d33          	add	s10,a1,a4
    27c2:	c6b6                	c.swsp	a3,76(sp)
    27c4:	4198                	c.lw	a4,0(a1)
    27c6:	8b3a                	c.mv	s6,a4
    27c8:	8bba                	c.mv	s7,a4
    27ca:	0591                	c.addi	a1,4
    27cc:	de8b0eff          	wexti	t4,s6,8
    27d0:	ac9e8eff          	sunpkd820	t4,t4
    27d4:	ac97077f          	sunpkd820	a4,a4
    27d8:	0008a683          	lw	a3,0(a7)
    27dc:	48d717ff          	kmada	a5,a4,a3
    27e0:	00488713          	addi	a4,a7,4
    27e4:	4318                	c.lw	a4,0(a4)
    27e6:	08a1                	c.addi	a7,8
    27e8:	48ee97ff          	kmada	a5,t4,a4
    27ec:	fda59ce3          	bne	a1,s10,27c4 <riscv_convolve_s8+0x4c4>
    27f0:	04c12683          	lw	a3,76(sp)
    27f4:	10012703          	lw	a4,256(sp)
    27f8:	5eae                	c.lwsp	t4,232(sp)
    27fa:	85ea                	c.mv	a1,s10
    27fc:	020e8a63          	beqz	t4,2830 <riscv_convolve_s8+0x530>
    2800:	000d0583          	lb	a1,0(s10)
    2804:	00071883          	lh	a7,0(a4)
    2808:	c4b897ff          	maddr32	a5,a7,a1
    280c:	45de                	c.lwsp	a1,212(sp)
    280e:	cd99                	c.beqz	a1,282c <riscv_convolve_s8+0x52c>
    2810:	00271883          	lh	a7,2(a4)
    2814:	001d0583          	lb	a1,1(s10)
    2818:	c4b897ff          	maddr32	a5,a7,a1
    281c:	018e8863          	beq	t4,s8,282c <riscv_convolve_s8+0x52c>
    2820:	002d0583          	lb	a1,2(s10)
    2824:	00471703          	lh	a4,4(a4)
    2828:	c4e597ff          	maddr32	a5,a1,a4
    282c:	007d05b3          	add	a1,s10,t2
    2830:	471a                	c.lwsp	a4,132(sp)
    2832:	0505                	c.addi	a0,1
    2834:	971a                	c.add	a4,t1
    2836:	00072e83          	lw	t4,0(a4)
    283a:	00660733          	add	a4,a2,t1
    283e:	00072d03          	lw	s10,0(a4)
    2842:	f3fe88ff          	maxw	a7,t4,t6
    2846:	011798b3          	sll	a7,a5,a7
    284a:	40000737          	lui	a4,0x40000
    284e:	4781                	c.li	a5,0
    2850:	85a8977f          	smar64	a4,a7,s10
    2854:	41d008b3          	neg	a7,t4
    2858:	f3f888ff          	maxw	a7,a7,t6
    285c:	01129eb3          	sll	t4,t0,a7
    2860:	dff7077f          	wexti	a4,a4,31
    2864:	fffe8793          	addi	a5,t4,-1
    2868:	4017de93          	srai	t4,a5,0x1
    286c:	00072d13          	slti	s10,a4,0
    2870:	8ff9                	c.and	a5,a4
    2872:	9eea                	c.add	t4,s10
    2874:	00fea7b3          	slt	a5,t4,a5
    2878:	41175733          	sra	a4,a4,a7
    287c:	973e                	c.add	a4,a5
    287e:	47da                	c.lwsp	a5,148(sp)
    2880:	0311                	c.addi	t1,4
    2882:	97ba                	c.add	a5,a4
    2884:	472e                	c.lwsp	a4,200(sp)
    2886:	f2f707ff          	maxw	a5,a4,a5
    288a:	473e                	c.lwsp	a4,204(sp)
    288c:	f0f707ff          	minw	a5,a4,a5
    2890:	fef50fa3          	sb	a5,-1(a0) # fdfff <_STACK_TOP+0x5dfff>
    2894:	478e                	c.lwsp	a5,192(sp)
    2896:	f06799e3          	bne	a5,t1,27a8 <riscv_convolve_s8+0x4a8>
    289a:	4796                	c.lwsp	a5,68(sp)
    289c:	4d26                	c.lwsp	s10,72(sp)
    289e:	dfde                	c.swsp	s7,252(sp)
    28a0:	8bfa                	c.mv	s7,t5
    28a2:	ddda                	c.swsp	s6,248(sp)
    28a4:	5766                	c.lwsp	a4,120(sp)
    28a6:	4c3a                	c.lwsp	s8,140(sp)
    28a8:	caba                	c.swsp	a4,84(sp)
    28aa:	bbdd                	c.j	26a0 <riscv_convolve_s8+0x3a0>
    28ac:	5766                	c.lwsp	a4,120(sp)
    28ae:	8d2e                	c.mv	s10,a1
    28b0:	f49ff06f          	j	27f8 <riscv_convolve_s8+0x4f8>
    28b4:	de0796e3          	bnez	a5,26a0 <riscv_convolve_s8+0x3a0>
    28b8:	ffe00b13          	li	s6,-2
    28bc:	17c12083          	lw	ra,380(sp)
    28c0:	17812403          	lw	s0,376(sp)
    28c4:	17412483          	lw	s1,372(sp)
    28c8:	17012903          	lw	s2,368(sp)
    28cc:	16c12983          	lw	s3,364(sp)
    28d0:	16812a03          	lw	s4,360(sp)
    28d4:	16412a83          	lw	s5,356(sp)
    28d8:	15c12b83          	lw	s7,348(sp)
    28dc:	15812c03          	lw	s8,344(sp)
    28e0:	15412c83          	lw	s9,340(sp)
    28e4:	15012d03          	lw	s10,336(sp)
    28e8:	14c12d83          	lw	s11,332(sp)
    28ec:	855a                	c.mv	a0,s6
    28ee:	16012b03          	lw	s6,352(sp)
    28f2:	6119                	c.addi16sp	sp,384
    28f4:	00008067          	ret
    28f8:	004e0613          	addi	a2,t3,4
    28fc:	8e15                	c.sub	a2,a3
    28fe:	c532                	c.swsp	a2,136(sp)
    2900:	aedff06f          	j	23ec <riscv_convolve_s8+0xec>
    2904:	5b7d                	c.li	s6,-1
    2906:	bf5d                	c.j	28bc <riscv_convolve_s8+0x5bc>

00002908 <riscv_nn_mat_mult_kernel_s8_s16>:
    2908:	7119                	c.addi16sp	sp,-128
    290a:	dea2                	c.swsp	s0,124(sp)
    290c:	443a                	c.lwsp	s0,140(sp)
    290e:	82b2                	c.mv	t0,a2
    2910:	dca6                	c.swsp	s1,120(sp)
    2912:	daca                	c.swsp	s2,116(sp)
    2914:	00165493          	srli	s1,a2,0x1
    2918:	d0de                	c.swsp	s7,96(sp)
    291a:	cee2                	c.swsp	s8,92(sp)
    291c:	caea                	c.swsp	s10,84(sp)
    291e:	c8ee                	c.swsp	s11,80(sp)
    2920:	d8ce                	c.swsp	s3,112(sp)
    2922:	d6d2                	c.swsp	s4,108(sp)
    2924:	d4d6                	c.swsp	s5,104(sp)
    2926:	d2da                	c.swsp	s6,100(sp)
    2928:	cce6                	c.swsp	s9,88(sp)
    292a:	cc2e                	c.swsp	a1,24(sp)
    292c:	491a                	c.lwsp	s2,132(sp)
    292e:	462a                	c.lwsp	a2,136(sp)
    2930:	8fb6                	c.mv	t6,a3
    2932:	8bbe                	c.mv	s7,a5
    2934:	8d42                	c.mv	s10,a6
    2936:	8dc6                	c.mv	s11,a7
    2938:	00540c33          	add	s8,s0,t0
    293c:	48048c63          	beqz	s1,2dd4 <riscv_nn_mat_mult_kernel_s8_s16+0x4cc>
    2940:	478a                	c.lwsp	a5,128(sp)
    2942:	882e                	c.mv	a6,a1
    2944:	4027d893          	srai	a7,a5,0x2
    2948:	00191793          	slli	a5,s2,0x1
    294c:	00f58f33          	add	t5,a1,a5
    2950:	00389693          	slli	a3,a7,0x3
    2954:	458a                	c.lwsp	a1,128(sp)
    2956:	d27a                	c.swsp	t5,36(sp)
    2958:	9f36                	c.add	t5,a3
    295a:	96c2                	c.add	a3,a6
    295c:	00149793          	slli	a5,s1,0x1
    2960:	d636                	c.swsp	a3,44(sp)
    2962:	00289693          	slli	a3,a7,0x2
    2966:	898d                	c.andi	a1,3
    2968:	00fc09b3          	add	s3,s8,a5
    296c:	d436                	c.swsp	a3,40(sp)
    296e:	8b3a                	c.mv	s6,a4
    2970:	86a2                	c.mv	a3,s0
    2972:	8a7e                	c.mv	s4,t6
    2974:	4c85                	c.li	s9,1
    2976:	4a81                	c.li	s5,0
    2978:	d046                	c.swsp	a7,32(sp)
    297a:	ce4e                	c.swsp	s3,28(sp)
    297c:	d87a                	c.swsp	t5,48(sp)
    297e:	da26                	c.swsp	s1,52(sp)
    2980:	c42e                	c.swsp	a1,8(sp)
    2982:	dc3e                	c.swsp	a5,56(sp)
    2984:	de16                	c.swsp	t0,60(sp)
    2986:	c0fe                	c.swsp	t6,64(sp)
    2988:	04e12223          	sw	a4,68(sp)
    298c:	478a                	c.lwsp	a5,128(sp)
    298e:	00f509b3          	add	s3,a0,a5
    2992:	42060563          	beqz	a2,2dbc <riscv_nn_mat_mult_kernel_s8_s16+0x4b4>
    2996:	5902                	c.lwsp	s2,32(sp)
    2998:	00062803          	lw	a6,0(a2)
    299c:	424c                	c.lw	a1,4(a2)
    299e:	0621                	c.addi	a2,8
    29a0:	42090463          	beqz	s2,2dc8 <riscv_nn_mat_mult_kernel_s8_s16+0x4c0>
    29a4:	5292                	c.lwsp	t0,36(sp)
    29a6:	4fe2                	c.lwsp	t6,24(sp)
    29a8:	ca6e                	c.swsp	s11,20(sp)
    29aa:	88ae                	c.mv	a7,a1
    29ac:	8dea                	c.mv	s11,s10
    29ae:	8f42                	c.mv	t5,a6
    29b0:	8d5e                	c.mv	s10,s7
    29b2:	84ce                	c.mv	s1,s3
    29b4:	842a                	c.mv	s0,a0
    29b6:	8baa                	c.mv	s7,a0
    29b8:	c636                	c.swsp	a3,12(sp)
    29ba:	c862                	c.swsp	s8,16(sp)
    29bc:	08c12423          	sw	a2,136(sp)
    29c0:	000fa503          	lw	a0,0(t6)
    29c4:	0002a603          	lw	a2,0(t0)
    29c8:	4018                	c.lw	a4,0(s0)
    29ca:	833a                	c.mv	t1,a4
    29cc:	83ba                	c.mv	t2,a4
    29ce:	0411                	c.addi	s0,4
    29d0:	de830c7f          	wexti	s8,t1,8
    29d4:	ac9c0c7f          	sunpkd820	s8,s8
    29d8:	ac97077f          	sunpkd820	a4,a4
    29dc:	409c                	c.lw	a5,0(s1)
    29de:	8e3e                	c.mv	t3,a5
    29e0:	8ebe                	c.mv	t4,a5
    29e2:	0491                	c.addi	s1,4
    29e4:	de8e06ff          	wexti	a3,t3,8
    29e8:	ac9686ff          	sunpkd820	a3,a3
    29ec:	ac9787ff          	sunpkd820	a5,a5
    29f0:	48a7187f          	kmada	a6,a4,a0
    29f4:	48c71f7f          	kmada	t5,a4,a2
    29f8:	48a795ff          	kmada	a1,a5,a0
    29fc:	48c798ff          	kmada	a7,a5,a2
    2a00:	004f8713          	addi	a4,t6,4
    2a04:	4318                	c.lw	a4,0(a4)
    2a06:	0fa1                	c.addi	t6,8
    2a08:	00428793          	addi	a5,t0,4
    2a0c:	439c                	c.lw	a5,0(a5)
    2a0e:	02a1                	c.addi	t0,8
    2a10:	48ec187f          	kmada	a6,s8,a4
    2a14:	48fc1f7f          	kmada	t5,s8,a5
    2a18:	48e695ff          	kmada	a1,a3,a4
    2a1c:	48f698ff          	kmada	a7,a3,a5
    2a20:	197d                	c.addi	s2,-1
    2a22:	f8091fe3          	bnez	s2,29c0 <riscv_nn_mat_mult_kernel_s8_s16+0xb8>
    2a26:	57a2                	c.lwsp	a5,40(sp)
    2a28:	855e                	c.mv	a0,s7
    2a2a:	99be                	c.add	s3,a5
    2a2c:	8bea                	c.mv	s7,s10
    2a2e:	953e                	c.add	a0,a5
    2a30:	8d6e                	c.mv	s10,s11
    2a32:	46b2                	c.lwsp	a3,12(sp)
    2a34:	4c42                	c.lwsp	s8,16(sp)
    2a36:	4dd2                	c.lwsp	s11,20(sp)
    2a38:	462a                	c.lwsp	a2,136(sp)
    2a3a:	57c2                	c.lwsp	a5,48(sp)
    2a3c:	02c12703          	lw	a4,44(sp)
    2a40:	4922                	c.lwsp	s2,8(sp)
    2a42:	06090963          	beqz	s2,2ab4 <riscv_nn_mat_mult_kernel_s8_s16+0x1ac>
    2a46:	00050483          	lb	s1,0(a0)
    2a4a:	00071403          	lh	s0,0(a4) # 40000000 <_DATA_LMA_START+0x1fff5168>
    2a4e:	00079f83          	lh	t6,0(a5)
    2a52:	00098283          	lb	t0,0(s3)
    2a56:	c494187f          	maddr32	a6,s0,s1
    2a5a:	c49f9f7f          	maddr32	t5,t6,s1
    2a5e:	c48295ff          	maddr32	a1,t0,s0
    2a62:	c5f298ff          	maddr32	a7,t0,t6
    2a66:	05990563          	beq	s2,s9,2ab0 <riscv_nn_mat_mult_kernel_s8_s16+0x1a8>
    2a6a:	00271403          	lh	s0,2(a4)
    2a6e:	00150483          	lb	s1,1(a0)
    2a72:	00198283          	lb	t0,1(s3)
    2a76:	00279f83          	lh	t6,2(a5)
    2a7a:	c494187f          	maddr32	a6,s0,s1
    2a7e:	c48295ff          	maddr32	a1,t0,s0
    2a82:	4409                	c.li	s0,2
    2a84:	c49f9f7f          	maddr32	t5,t6,s1
    2a88:	c5f298ff          	maddr32	a7,t0,t6
    2a8c:	02890263          	beq	s2,s0,2ab0 <riscv_nn_mat_mult_kernel_s8_s16+0x1a8>
    2a90:	00250f83          	lb	t6,2(a0)
    2a94:	00471703          	lh	a4,4(a4)
    2a98:	00479783          	lh	a5,4(a5)
    2a9c:	00298283          	lb	t0,2(s3)
    2aa0:	c4ef987f          	maddr32	a6,t6,a4
    2aa4:	c4ff9f7f          	maddr32	t5,t6,a5
    2aa8:	c45715ff          	maddr32	a1,a4,t0
    2aac:	c45798ff          	maddr32	a7,a5,t0
    2ab0:	47a2                	c.lwsp	a5,8(sp)
    2ab2:	953e                	c.add	a0,a5
    2ab4:	000a2f83          	lw	t6,0(s4)
    2ab8:	000b2283          	lw	t0,0(s6)
    2abc:	f35f87ff          	maxw	a5,t6,s5
    2ac0:	00f81833          	sll	a6,a6,a5
    2ac4:	40000737          	lui	a4,0x40000
    2ac8:	4781                	c.li	a5,0
    2aca:	8458177f          	smar64	a4,a6,t0
    2ace:	41f00833          	neg	a6,t6
    2ad2:	f358087f          	maxw	a6,a6,s5
    2ad6:	010c9fb3          	sll	t6,s9,a6
    2ada:	dff7077f          	wexti	a4,a4,31
    2ade:	ffff8793          	addi	a5,t6,-1
    2ae2:	4017df93          	srai	t6,a5,0x1
    2ae6:	00072293          	slti	t0,a4,0
    2aea:	8ff9                	c.and	a5,a4
    2aec:	9f96                	c.add	t6,t0
    2aee:	00ffa7b3          	slt	a5,t6,a5
    2af2:	41075733          	sra	a4,a4,a6
    2af6:	973e                	c.add	a4,a5
    2af8:	975e                	c.add	a4,s7
    2afa:	f3a7077f          	maxw	a4,a4,s10
    2afe:	f1b7077f          	minw	a4,a4,s11
    2b02:	00e68023          	sb	a4,0(a3)
    2b06:	000a2803          	lw	a6,0(s4)
    2b0a:	000b2f83          	lw	t6,0(s6)
    2b0e:	f35807ff          	maxw	a5,a6,s5
    2b12:	00ff1f33          	sll	t5,t5,a5
    2b16:	40000737          	lui	a4,0x40000
    2b1a:	4781                	c.li	a5,0
    2b1c:	85ff177f          	smar64	a4,t5,t6
    2b20:	41000833          	neg	a6,a6
    2b24:	f358087f          	maxw	a6,a6,s5
    2b28:	010c9f33          	sll	t5,s9,a6
    2b2c:	dff7077f          	wexti	a4,a4,31
    2b30:	ffff0793          	addi	a5,t5,-1
    2b34:	4017df13          	srai	t5,a5,0x1
    2b38:	00072f93          	slti	t6,a4,0
    2b3c:	8ff9                	c.and	a5,a4
    2b3e:	9f7e                	c.add	t5,t6
    2b40:	00ff27b3          	slt	a5,t5,a5
    2b44:	41075733          	sra	a4,a4,a6
    2b48:	973e                	c.add	a4,a5
    2b4a:	975e                	c.add	a4,s7
    2b4c:	f3a7077f          	maxw	a4,a4,s10
    2b50:	f1b7077f          	minw	a4,a4,s11
    2b54:	00ec0023          	sb	a4,0(s8)
    2b58:	004a2803          	lw	a6,4(s4)
    2b5c:	004b2f03          	lw	t5,4(s6)
    2b60:	f35807ff          	maxw	a5,a6,s5
    2b64:	00f595b3          	sll	a1,a1,a5
    2b68:	40000737          	lui	a4,0x40000
    2b6c:	4781                	c.li	a5,0
    2b6e:	85e5977f          	smar64	a4,a1,t5
    2b72:	410005b3          	neg	a1,a6
    2b76:	f35585ff          	maxw	a1,a1,s5
    2b7a:	00bc9833          	sll	a6,s9,a1
    2b7e:	dff7077f          	wexti	a4,a4,31
    2b82:	fff80793          	addi	a5,a6,-1
    2b86:	00072f13          	slti	t5,a4,0
    2b8a:	4017d813          	srai	a6,a5,0x1
    2b8e:	987a                	c.add	a6,t5
    2b90:	8ff9                	c.and	a5,a4
    2b92:	00f827b3          	slt	a5,a6,a5
    2b96:	40b75733          	sra	a4,a4,a1
    2b9a:	973e                	c.add	a4,a5
    2b9c:	975e                	c.add	a4,s7
    2b9e:	f3a7077f          	maxw	a4,a4,s10
    2ba2:	f1b7077f          	minw	a4,a4,s11
    2ba6:	00e680a3          	sb	a4,1(a3)
    2baa:	004a2583          	lw	a1,4(s4)
    2bae:	004b2f03          	lw	t5,4(s6)
    2bb2:	f355887f          	maxw	a6,a1,s5
    2bb6:	01089833          	sll	a6,a7,a6
    2bba:	40000737          	lui	a4,0x40000
    2bbe:	4781                	c.li	a5,0
    2bc0:	85e8177f          	smar64	a4,a6,t5
    2bc4:	40b005b3          	neg	a1,a1
    2bc8:	f35585ff          	maxw	a1,a1,s5
    2bcc:	00bc9833          	sll	a6,s9,a1
    2bd0:	dff7077f          	wexti	a4,a4,31
    2bd4:	fff80793          	addi	a5,a6,-1
    2bd8:	4017d813          	srai	a6,a5,0x1
    2bdc:	00072893          	slti	a7,a4,0
    2be0:	8ff9                	c.and	a5,a4
    2be2:	9846                	c.add	a6,a7
    2be4:	00f827b3          	slt	a5,a6,a5
    2be8:	40b75733          	sra	a4,a4,a1
    2bec:	973e                	c.add	a4,a5
    2bee:	975e                	c.add	a4,s7
    2bf0:	478a                	c.lwsp	a5,128(sp)
    2bf2:	f3a7077f          	maxw	a4,a4,s10
    2bf6:	0c09                	c.addi	s8,2
    2bf8:	f1b7077f          	minw	a4,a4,s11
    2bfc:	953e                	c.add	a0,a5
    2bfe:	47f2                	c.lwsp	a5,28(sp)
    2c00:	feec0fa3          	sb	a4,-1(s8)
    2c04:	0689                	c.addi	a3,2
    2c06:	0b21                	c.addi	s6,8
    2c08:	0a21                	c.addi	s4,8
    2c0a:	d8fc11e3          	bne	s8,a5,298c <riscv_nn_mat_mult_kernel_s8_s16+0x84>
    2c0e:	54d2                	c.lwsp	s1,52(sp)
    2c10:	57e2                	c.lwsp	a5,56(sp)
    2c12:	4f86                	c.lwsp	t6,64(sp)
    2c14:	4716                	c.lwsp	a4,68(sp)
    2c16:	443a                	c.lwsp	s0,140(sp)
    2c18:	048e                	c.slli	s1,0x3
    2c1a:	52f2                	c.lwsp	t0,60(sp)
    2c1c:	491a                	c.lwsp	s2,132(sp)
    2c1e:	943e                	c.add	s0,a5
    2c20:	9726                	c.add	a4,s1
    2c22:	9fa6                	c.add	t6,s1
    2c24:	0012f793          	andi	a5,t0,1
    2c28:	16078a63          	beqz	a5,2d9c <riscv_nn_mat_mult_kernel_s8_s16+0x494>
    2c2c:	47e2                	c.lwsp	a5,24(sp)
    2c2e:	00191e93          	slli	t4,s2,0x1
    2c32:	9ebe                	c.add	t4,a5
    2c34:	4681                	c.li	a3,0
    2c36:	c219                	c.beqz	a2,2c3c <riscv_nn_mat_mult_kernel_s8_s16+0x334>
    2c38:	00062683          	lw	a3,0(a2)
    2c3c:	478a                	c.lwsp	a5,128(sp)
    2c3e:	4027d393          	srai	t2,a5,0x2
    2c42:	18038b63          	beqz	t2,2dd8 <riscv_nn_mat_mult_kernel_s8_s16+0x4d0>
    2c46:	4862                	c.lwsp	a6,24(sp)
    2c48:	88f6                	c.mv	a7,t4
    2c4a:	8f1e                	c.mv	t5,t2
    2c4c:	85b6                	c.mv	a1,a3
    2c4e:	8e2a                	c.mv	t3,a0
    2c50:	00082483          	lw	s1,0(a6)
    2c54:	0008a303          	lw	t1,0(a7)
    2c58:	000e2783          	lw	a5,0(t3)
    2c5c:	893e                	c.mv	s2,a5
    2c5e:	89be                	c.mv	s3,a5
    2c60:	0e11                	c.addi	t3,4
    2c62:	de89067f          	wexti	a2,s2,8
    2c66:	ac96067f          	sunpkd820	a2,a2
    2c6a:	ac9787ff          	sunpkd820	a5,a5
    2c6e:	489796ff          	kmada	a3,a5,s1
    2c72:	486795ff          	kmada	a1,a5,t1
    2c76:	00480313          	addi	t1,a6,4
    2c7a:	00032303          	lw	t1,0(t1) # 10000 <_RAMCODE_VMA_END+0x52bc>
    2c7e:	0821                	c.addi	a6,8
    2c80:	00488793          	addi	a5,a7,4
    2c84:	439c                	c.lw	a5,0(a5)
    2c86:	08a1                	c.addi	a7,8
    2c88:	486616ff          	kmada	a3,a2,t1
    2c8c:	48f615ff          	kmada	a1,a2,a5
    2c90:	1f7d                	c.addi	t5,-1
    2c92:	fa0f1fe3          	bnez	t5,2c50 <riscv_nn_mat_mult_kernel_s8_s16+0x348>
    2c96:	4662                	c.lwsp	a2,24(sp)
    2c98:	00339793          	slli	a5,t2,0x3
    2c9c:	038a                	c.slli	t2,0x2
    2c9e:	9ebe                	c.add	t4,a5
    2ca0:	951e                	c.add	a0,t2
    2ca2:	97b2                	c.add	a5,a2
    2ca4:	00f12c23          	sw	a5,24(sp)
    2ca8:	478a                	c.lwsp	a5,128(sp)
    2caa:	8b8d                	c.andi	a5,3
    2cac:	c7b1                	c.beqz	a5,2cf8 <riscv_nn_mat_mult_kernel_s8_s16+0x3f0>
    2cae:	44e2                	c.lwsp	s1,24(sp)
    2cb0:	00050603          	lb	a2,0(a0)
    2cb4:	00049303          	lh	t1,0(s1) # 87000 <ds_cnn_s_layer_9_conv_2d_weights+0xca4>
    2cb8:	000e9883          	lh	a7,0(t4)
    2cbc:	4805                	c.li	a6,1
    2cbe:	c4c316ff          	maddr32	a3,t1,a2
    2cc2:	c4c895ff          	maddr32	a1,a7,a2
    2cc6:	03078963          	beq	a5,a6,2cf8 <riscv_nn_mat_mult_kernel_s8_s16+0x3f0>
    2cca:	00150603          	lb	a2,1(a0)
    2cce:	00249303          	lh	t1,2(s1)
    2cd2:	002e9883          	lh	a7,2(t4)
    2cd6:	4809                	c.li	a6,2
    2cd8:	c4c316ff          	maddr32	a3,t1,a2
    2cdc:	c4c895ff          	maddr32	a1,a7,a2
    2ce0:	01078c63          	beq	a5,a6,2cf8 <riscv_nn_mat_mult_kernel_s8_s16+0x3f0>
    2ce4:	00250783          	lb	a5,2(a0)
    2ce8:	004e9603          	lh	a2,4(t4)
    2cec:	00449503          	lh	a0,4(s1)
    2cf0:	c4f615ff          	maddr32	a1,a2,a5
    2cf4:	c4f516ff          	maddr32	a3,a0,a5
    2cf8:	000fae03          	lw	t3,0(t6)
    2cfc:	431c                	c.lw	a5,0(a4)
    2cfe:	4501                	c.li	a0,0
    2d00:	f2ae067f          	maxw	a2,t3,a0
    2d04:	40000837          	lui	a6,0x40000
    2d08:	4881                	c.li	a7,0
    2d0a:	00c696b3          	sll	a3,a3,a2
    2d0e:	8342                	c.mv	t1,a6
    2d10:	83c6                	c.mv	t2,a7
    2d12:	84f6937f          	smar64	t1,a3,a5
    2d16:	41c00e33          	neg	t3,t3
    2d1a:	4685                	c.li	a3,1
    2d1c:	f2ae0e7f          	maxw	t3,t3,a0
    2d20:	01c69633          	sll	a2,a3,t3
    2d24:	dff307ff          	wexti	a5,t1,31
    2d28:	167d                	c.addi	a2,-1
    2d2a:	40165313          	srai	t1,a2,0x1
    2d2e:	0007ae93          	slti	t4,a5,0
    2d32:	8e7d                	c.and	a2,a5
    2d34:	9376                	c.add	t1,t4
    2d36:	00c32633          	slt	a2,t1,a2
    2d3a:	41c7d7b3          	sra	a5,a5,t3
    2d3e:	97b2                	c.add	a5,a2
    2d40:	97de                	c.add	a5,s7
    2d42:	f2fd07ff          	maxw	a5,s10,a5
    2d46:	f0fd87ff          	minw	a5,s11,a5
    2d4a:	00f40023          	sb	a5,0(s0)
    2d4e:	000fa783          	lw	a5,0(t6)
    2d52:	4318                	c.lw	a4,0(a4)
    2d54:	f2a7867f          	maxw	a2,a5,a0
    2d58:	00c595b3          	sll	a1,a1,a2
    2d5c:	84e5987f          	smar64	a6,a1,a4
    2d60:	40f00733          	neg	a4,a5
    2d64:	f2a7077f          	maxw	a4,a4,a0
    2d68:	00e697b3          	sll	a5,a3,a4
    2d6c:	dff8087f          	wexti	a6,a6,31
    2d70:	17fd                	c.addi	a5,-1
    2d72:	4017d693          	srai	a3,a5,0x1
    2d76:	00082613          	slti	a2,a6,0
    2d7a:	0107f7b3          	and	a5,a5,a6
    2d7e:	96b2                	c.add	a3,a2
    2d80:	00f6a7b3          	slt	a5,a3,a5
    2d84:	40e85733          	sra	a4,a6,a4
    2d88:	973e                	c.add	a4,a5
    2d8a:	9bba                	c.add	s7,a4
    2d8c:	47f2                	c.lwsp	a5,28(sp)
    2d8e:	f37d0d7f          	maxw	s10,s10,s7
    2d92:	f1ad8dff          	minw	s11,s11,s10
    2d96:	0405                	c.addi	s0,1
    2d98:	01b78023          	sb	s11,0(a5)
    2d9c:	00540533          	add	a0,s0,t0
    2da0:	5476                	c.lwsp	s0,124(sp)
    2da2:	54e6                	c.lwsp	s1,120(sp)
    2da4:	5956                	c.lwsp	s2,116(sp)
    2da6:	59c6                	c.lwsp	s3,112(sp)
    2da8:	5a36                	c.lwsp	s4,108(sp)
    2daa:	5aa6                	c.lwsp	s5,104(sp)
    2dac:	5b16                	c.lwsp	s6,100(sp)
    2dae:	5b86                	c.lwsp	s7,96(sp)
    2db0:	4c76                	c.lwsp	s8,92(sp)
    2db2:	4ce6                	c.lwsp	s9,88(sp)
    2db4:	4d56                	c.lwsp	s10,84(sp)
    2db6:	4dc6                	c.lwsp	s11,80(sp)
    2db8:	6109                	c.addi16sp	sp,128
    2dba:	8082                	c.jr	ra
    2dbc:	5902                	c.lwsp	s2,32(sp)
    2dbe:	4581                	c.li	a1,0
    2dc0:	00000813          	li	a6,0
    2dc4:	be0910e3          	bnez	s2,29a4 <riscv_nn_mat_mult_kernel_s8_s16+0x9c>
    2dc8:	5792                	c.lwsp	a5,36(sp)
    2dca:	4762                	c.lwsp	a4,24(sp)
    2dcc:	88ae                	c.mv	a7,a1
    2dce:	8f42                	c.mv	t5,a6
    2dd0:	c71ff06f          	j	2a40 <riscv_nn_mat_mult_kernel_s8_s16+0x138>
    2dd4:	ce62                	c.swsp	s8,28(sp)
    2dd6:	b5b9                	c.j	2c24 <riscv_nn_mat_mult_kernel_s8_s16+0x31c>
    2dd8:	85b6                	c.mv	a1,a3
    2dda:	b5f9                	c.j	2ca8 <riscv_nn_mat_mult_kernel_s8_s16+0x3a0>

00002ddc <riscv_convolve_wrapper_s8_get_buffer_size>:
    2ddc:	491c                	c.lw	a5,16(a0)
    2dde:	4618                	c.lw	a4,8(a2)
    2de0:	00462803          	lw	a6,4(a2)
    2de4:	86aa                	c.mv	a3,a0
    2de6:	e799                	c.bnez	a5,2df4 <riscv_convolve_wrapper_s8_get_buffer_size+0x18>
    2de8:	4948                	c.lw	a0,20(a0)
    2dea:	e509                	c.bnez	a0,2df4 <riscv_convolve_wrapper_s8_get_buffer_size+0x18>
    2dec:	00100793          	li	a5,1
    2df0:	02f70e63          	beq	a4,a5,2e2c <riscv_convolve_wrapper_s8_get_buffer_size+0x50>
    2df4:	41d0                	c.lw	a2,4(a1)
    2df6:	4505                	c.li	a0,1
    2df8:	45dc                	c.lw	a5,12(a1)
    2dfa:	00a61763          	bne	a2,a0,2e08 <riscv_convolve_wrapper_s8_get_buffer_size+0x2c>
    2dfe:	4e8c                	c.lw	a1,24(a3)
    2e00:	00c59463          	bne	a1,a2,2e08 <riscv_convolve_wrapper_s8_get_buffer_size+0x2c>
    2e04:	04b80063          	beq	a6,a1,2e44 <riscv_convolve_wrapper_s8_get_buffer_size+0x68>
    2e08:	03070733          	mul	a4,a4,a6
    2e0c:	02f70533          	mul	a0,a4,a5
    2e10:	00357793          	andi	a5,a0,3
    2e14:	cb91                	c.beqz	a5,2e28 <riscv_convolve_wrapper_s8_get_buffer_size+0x4c>
    2e16:	41f55713          	srai	a4,a0,0x1f
    2e1a:	8379                	c.srli	a4,0x1e
    2e1c:	00e507b3          	add	a5,a0,a4
    2e20:	8b8d                	c.andi	a5,3
    2e22:	0511                	c.addi	a0,4
    2e24:	8f99                	c.sub	a5,a4
    2e26:	8d1d                	c.sub	a0,a5
    2e28:	050a                	c.slli	a0,0x2
    2e2a:	8082                	c.jr	ra
    2e2c:	fce814e3          	bne	a6,a4,2df4 <riscv_convolve_wrapper_s8_get_buffer_size+0x18>
    2e30:	4e9c                	c.lw	a5,24(a3)
    2e32:	01079f63          	bne	a5,a6,2e50 <riscv_convolve_wrapper_s8_get_buffer_size+0x74>
    2e36:	4edc                	c.lw	a5,28(a3)
    2e38:	00e78e63          	beq	a5,a4,2e54 <riscv_convolve_wrapper_s8_get_buffer_size+0x78>
    2e3c:	41dc                	c.lw	a5,4(a1)
    2e3e:	00e79963          	bne	a5,a4,2e50 <riscv_convolve_wrapper_s8_get_buffer_size+0x74>
    2e42:	45dc                	c.lw	a5,12(a1)
    2e44:	4694                	c.lw	a3,8(a3)
    2e46:	02d786b3          	mul	a3,a5,a3
    2e4a:	8a8d                	c.andi	a3,3
    2e4c:	fed5                	c.bnez	a3,2e08 <riscv_convolve_wrapper_s8_get_buffer_size+0x2c>
    2e4e:	bf7d                	c.j	2e0c <riscv_convolve_wrapper_s8_get_buffer_size+0x30>
    2e50:	45dc                	c.lw	a5,12(a1)
    2e52:	bf5d                	c.j	2e08 <riscv_convolve_wrapper_s8_get_buffer_size+0x2c>
    2e54:	8082                	c.jr	ra
	...

00002e58 <riscv_depthwise_conv_s8_opt_get_buffer_size>:
    2e58:	4548                	c.lw	a0,12(a0)
    2e5a:	4598                	c.lw	a4,8(a1)
    2e5c:	41dc                	c.lw	a5,4(a1)
    2e5e:	02e50533          	mul	a0,a0,a4
    2e62:	02f50533          	mul	a0,a0,a5
    2e66:	0506                	c.slli	a0,0x1
    2e68:	8082                	c.jr	ra
	...

00002e6c <riscv_depthwise_conv_wrapper_s8_get_buffer_size>:
    2e6c:	45dc                	c.lw	a5,12(a1)
    2e6e:	46d8                	c.lw	a4,12(a3)
    2e70:	00e78663          	beq	a5,a4,2e7c <riscv_depthwise_conv_wrapper_s8_get_buffer_size+0x10>
    2e74:	00000713          	li	a4,0
    2e78:	853a                	c.mv	a0,a4
    2e7a:	8082                	c.jr	ra
    2e7c:	4194                	c.lw	a3,0(a1)
    2e7e:	4585                	c.li	a1,1
    2e80:	4701                	c.li	a4,0
    2e82:	feb69be3          	bne	a3,a1,2e78 <riscv_depthwise_conv_wrapper_s8_get_buffer_size+0xc>
    2e86:	4d4c                	c.lw	a1,28(a0)
    2e88:	fed598e3          	bne	a1,a3,2e78 <riscv_depthwise_conv_wrapper_s8_get_buffer_size+0xc>
    2e8c:	5114                	c.lw	a3,32(a0)
    2e8e:	feb695e3          	bne	a3,a1,2e78 <riscv_depthwise_conv_wrapper_s8_get_buffer_size+0xc>
    2e92:	460c                	c.lw	a1,8(a2)
    2e94:	480d                	c.li	a6,3
    2e96:	4250                	c.lw	a2,4(a2)
    2e98:	01058a63          	beq	a1,a6,2eac <riscv_depthwise_conv_wrapper_s8_get_buffer_size+0x40>
    2e9c:	02b787b3          	mul	a5,a5,a1
    2ea0:	02c787b3          	mul	a5,a5,a2
    2ea4:	00179713          	slli	a4,a5,0x1
    2ea8:	fd1ff06f          	j	2e78 <riscv_depthwise_conv_wrapper_s8_get_buffer_size+0xc>
    2eac:	feb618e3          	bne	a2,a1,2e9c <riscv_depthwise_conv_wrapper_s8_get_buffer_size+0x30>
    2eb0:	01852803          	lw	a6,24(a0)
    2eb4:	ff06c4e3          	blt	a3,a6,2e9c <riscv_depthwise_conv_wrapper_s8_get_buffer_size+0x30>
    2eb8:	4948                	c.lw	a0,20(a0)
    2eba:	fea6c1e3          	blt	a3,a0,2e9c <riscv_depthwise_conv_wrapper_s8_get_buffer_size+0x30>
    2ebe:	bf6d                	c.j	2e78 <riscv_depthwise_conv_wrapper_s8_get_buffer_size+0xc>

00002ec0 <riscv_nn_mat_mult_kernel_row_offset_s8_s16>:
    2ec0:	7119                	c.addi16sp	sp,-128
    2ec2:	42ca                	c.lwsp	t0,144(sp)
    2ec4:	daca                	c.swsp	s2,116(sp)
    2ec6:	493a                	c.lwsp	s2,140(sp)
    2ec8:	dea2                	c.swsp	s0,124(sp)
    2eca:	dca6                	c.swsp	s1,120(sp)
    2ecc:	d8ce                	c.swsp	s3,112(sp)
    2ece:	00165493          	srli	s1,a2,0x1
    2ed2:	d0de                	c.swsp	s7,96(sp)
    2ed4:	cee2                	c.swsp	s8,92(sp)
    2ed6:	caea                	c.swsp	s10,84(sp)
    2ed8:	c8ee                	c.swsp	s11,80(sp)
    2eda:	d6d2                	c.swsp	s4,108(sp)
    2edc:	d4d6                	c.swsp	s5,104(sp)
    2ede:	d2da                	c.swsp	s6,100(sp)
    2ee0:	cce6                	c.swsp	s9,88(sp)
    2ee2:	cc2e                	c.swsp	a1,24(sp)
    2ee4:	8432                	c.mv	s0,a2
    2ee6:	499a                	c.lwsp	s3,132(sp)
    2ee8:	462a                	c.lwsp	a2,136(sp)
    2eea:	8fb6                	c.mv	t6,a3
    2eec:	8bbe                	c.mv	s7,a5
    2eee:	8d42                	c.mv	s10,a6
    2ef0:	8dc6                	c.mv	s11,a7
    2ef2:	01228c33          	add	s8,t0,s2
    2ef6:	4a048363          	beqz	s1,339c <riscv_nn_mat_mult_kernel_row_offset_s8_s16+0x4dc>
    2efa:	478a                	c.lwsp	a5,128(sp)
    2efc:	468a                	c.lwsp	a3,128(sp)
    2efe:	87fd                	c.srai	a5,0x1f
    2f00:	8b8d                	c.andi	a5,3
    2f02:	97b6                	c.add	a5,a3
    2f04:	4027d893          	srai	a7,a5,0x2
    2f08:	00199793          	slli	a5,s3,0x1
    2f0c:	00f58f33          	add	t5,a1,a5
    2f10:	00389693          	slli	a3,a7,0x3
    2f14:	882e                	c.mv	a6,a1
    2f16:	00149793          	slli	a5,s1,0x1
    2f1a:	458a                	c.lwsp	a1,128(sp)
    2f1c:	d27a                	c.swsp	t5,36(sp)
    2f1e:	9f36                	c.add	t5,a3
    2f20:	96c2                	c.add	a3,a6
    2f22:	00fc0a33          	add	s4,s8,a5
    2f26:	d636                	c.swsp	a3,44(sp)
    2f28:	00289693          	slli	a3,a7,0x2
    2f2c:	898d                	c.andi	a1,3
    2f2e:	ce52                	c.swsp	s4,28(sp)
    2f30:	d436                	c.swsp	a3,40(sp)
    2f32:	8b3a                	c.mv	s6,a4
    2f34:	8696                	c.mv	a3,t0
    2f36:	8a7e                	c.mv	s4,t6
    2f38:	4c85                	c.li	s9,1
    2f3a:	4a81                	c.li	s5,0
    2f3c:	d046                	c.swsp	a7,32(sp)
    2f3e:	d87a                	c.swsp	t5,48(sp)
    2f40:	da26                	c.swsp	s1,52(sp)
    2f42:	c42e                	c.swsp	a1,8(sp)
    2f44:	dc3e                	c.swsp	a5,56(sp)
    2f46:	de22                	c.swsp	s0,60(sp)
    2f48:	c0fe                	c.swsp	t6,64(sp)
    2f4a:	c2ba                	c.swsp	a4,68(sp)
    2f4c:	478a                	c.lwsp	a5,128(sp)
    2f4e:	00f509b3          	add	s3,a0,a5
    2f52:	42060963          	beqz	a2,3384 <riscv_nn_mat_mult_kernel_row_offset_s8_s16+0x4c4>
    2f56:	5902                	c.lwsp	s2,32(sp)
    2f58:	00062803          	lw	a6,0(a2)
    2f5c:	424c                	c.lw	a1,4(a2)
    2f5e:	0621                	c.addi	a2,8
    2f60:	42090863          	beqz	s2,3390 <riscv_nn_mat_mult_kernel_row_offset_s8_s16+0x4d0>
    2f64:	5292                	c.lwsp	t0,36(sp)
    2f66:	4fe2                	c.lwsp	t6,24(sp)
    2f68:	ca6e                	c.swsp	s11,20(sp)
    2f6a:	88ae                	c.mv	a7,a1
    2f6c:	8dea                	c.mv	s11,s10
    2f6e:	8f42                	c.mv	t5,a6
    2f70:	8d5e                	c.mv	s10,s7
    2f72:	84ce                	c.mv	s1,s3
    2f74:	842a                	c.mv	s0,a0
    2f76:	8baa                	c.mv	s7,a0
    2f78:	c636                	c.swsp	a3,12(sp)
    2f7a:	c862                	c.swsp	s8,16(sp)
    2f7c:	08c12423          	sw	a2,136(sp)
    2f80:	000fa503          	lw	a0,0(t6)
    2f84:	0002a603          	lw	a2,0(t0)
    2f88:	4018                	c.lw	a4,0(s0)
    2f8a:	833a                	c.mv	t1,a4
    2f8c:	83ba                	c.mv	t2,a4
    2f8e:	0411                	c.addi	s0,4
    2f90:	de830c7f          	wexti	s8,t1,8
    2f94:	ac9c0c7f          	sunpkd820	s8,s8
    2f98:	ac97077f          	sunpkd820	a4,a4
    2f9c:	409c                	c.lw	a5,0(s1)
    2f9e:	8e3e                	c.mv	t3,a5
    2fa0:	8ebe                	c.mv	t4,a5
    2fa2:	0491                	c.addi	s1,4
    2fa4:	de8e06ff          	wexti	a3,t3,8
    2fa8:	ac9686ff          	sunpkd820	a3,a3
    2fac:	ac9787ff          	sunpkd820	a5,a5
    2fb0:	48a7187f          	kmada	a6,a4,a0
    2fb4:	48c71f7f          	kmada	t5,a4,a2
    2fb8:	48a795ff          	kmada	a1,a5,a0
    2fbc:	48c798ff          	kmada	a7,a5,a2
    2fc0:	004f8713          	addi	a4,t6,4
    2fc4:	4318                	c.lw	a4,0(a4)
    2fc6:	0fa1                	c.addi	t6,8
    2fc8:	00428793          	addi	a5,t0,4
    2fcc:	439c                	c.lw	a5,0(a5)
    2fce:	02a1                	c.addi	t0,8
    2fd0:	48ec187f          	kmada	a6,s8,a4
    2fd4:	48fc1f7f          	kmada	t5,s8,a5
    2fd8:	48e695ff          	kmada	a1,a3,a4
    2fdc:	48f698ff          	kmada	a7,a3,a5
    2fe0:	197d                	c.addi	s2,-1
    2fe2:	f8091fe3          	bnez	s2,2f80 <riscv_nn_mat_mult_kernel_row_offset_s8_s16+0xc0>
    2fe6:	57a2                	c.lwsp	a5,40(sp)
    2fe8:	855e                	c.mv	a0,s7
    2fea:	99be                	c.add	s3,a5
    2fec:	8bea                	c.mv	s7,s10
    2fee:	953e                	c.add	a0,a5
    2ff0:	8d6e                	c.mv	s10,s11
    2ff2:	46b2                	c.lwsp	a3,12(sp)
    2ff4:	4c42                	c.lwsp	s8,16(sp)
    2ff6:	4dd2                	c.lwsp	s11,20(sp)
    2ff8:	462a                	c.lwsp	a2,136(sp)
    2ffa:	57c2                	c.lwsp	a5,48(sp)
    2ffc:	02c12703          	lw	a4,44(sp)
    3000:	4922                	c.lwsp	s2,8(sp)
    3002:	06090963          	beqz	s2,3074 <riscv_nn_mat_mult_kernel_row_offset_s8_s16+0x1b4>
    3006:	00050483          	lb	s1,0(a0)
    300a:	00071403          	lh	s0,0(a4) # 40000000 <_DATA_LMA_START+0x1fff5168>
    300e:	00079f83          	lh	t6,0(a5)
    3012:	00098283          	lb	t0,0(s3)
    3016:	c494187f          	maddr32	a6,s0,s1
    301a:	c49f9f7f          	maddr32	t5,t6,s1
    301e:	c48295ff          	maddr32	a1,t0,s0
    3022:	c5f298ff          	maddr32	a7,t0,t6
    3026:	05990563          	beq	s2,s9,3070 <riscv_nn_mat_mult_kernel_row_offset_s8_s16+0x1b0>
    302a:	00271403          	lh	s0,2(a4)
    302e:	00150483          	lb	s1,1(a0)
    3032:	00198283          	lb	t0,1(s3)
    3036:	00279f83          	lh	t6,2(a5)
    303a:	c494187f          	maddr32	a6,s0,s1
    303e:	c48295ff          	maddr32	a1,t0,s0
    3042:	4409                	c.li	s0,2
    3044:	c49f9f7f          	maddr32	t5,t6,s1
    3048:	c5f298ff          	maddr32	a7,t0,t6
    304c:	02890263          	beq	s2,s0,3070 <riscv_nn_mat_mult_kernel_row_offset_s8_s16+0x1b0>
    3050:	00250f83          	lb	t6,2(a0)
    3054:	00471703          	lh	a4,4(a4)
    3058:	00479783          	lh	a5,4(a5)
    305c:	00298283          	lb	t0,2(s3)
    3060:	c4ef987f          	maddr32	a6,t6,a4
    3064:	c4ff9f7f          	maddr32	t5,t6,a5
    3068:	c45715ff          	maddr32	a1,a4,t0
    306c:	c45798ff          	maddr32	a7,a5,t0
    3070:	47a2                	c.lwsp	a5,8(sp)
    3072:	953e                	c.add	a0,a5
    3074:	000a2f83          	lw	t6,0(s4)
    3078:	000b2283          	lw	t0,0(s6)
    307c:	f35f87ff          	maxw	a5,t6,s5
    3080:	00f81833          	sll	a6,a6,a5
    3084:	40000737          	lui	a4,0x40000
    3088:	4781                	c.li	a5,0
    308a:	8458177f          	smar64	a4,a6,t0
    308e:	41f00833          	neg	a6,t6
    3092:	f358087f          	maxw	a6,a6,s5
    3096:	010c9fb3          	sll	t6,s9,a6
    309a:	dff7077f          	wexti	a4,a4,31
    309e:	ffff8793          	addi	a5,t6,-1
    30a2:	4017df93          	srai	t6,a5,0x1
    30a6:	00072293          	slti	t0,a4,0
    30aa:	8ff9                	c.and	a5,a4
    30ac:	9f96                	c.add	t6,t0
    30ae:	00ffa7b3          	slt	a5,t6,a5
    30b2:	41075733          	sra	a4,a4,a6
    30b6:	973e                	c.add	a4,a5
    30b8:	975e                	c.add	a4,s7
    30ba:	f3a7077f          	maxw	a4,a4,s10
    30be:	f1b7077f          	minw	a4,a4,s11
    30c2:	00e68023          	sb	a4,0(a3)
    30c6:	000a2803          	lw	a6,0(s4)
    30ca:	000b2f83          	lw	t6,0(s6)
    30ce:	f35807ff          	maxw	a5,a6,s5
    30d2:	00ff1f33          	sll	t5,t5,a5
    30d6:	40000737          	lui	a4,0x40000
    30da:	4781                	c.li	a5,0
    30dc:	85ff177f          	smar64	a4,t5,t6
    30e0:	41000833          	neg	a6,a6
    30e4:	f358087f          	maxw	a6,a6,s5
    30e8:	010c9f33          	sll	t5,s9,a6
    30ec:	dff7077f          	wexti	a4,a4,31
    30f0:	ffff0793          	addi	a5,t5,-1
    30f4:	4017df13          	srai	t5,a5,0x1
    30f8:	00072f93          	slti	t6,a4,0
    30fc:	8ff9                	c.and	a5,a4
    30fe:	9f7e                	c.add	t5,t6
    3100:	00ff27b3          	slt	a5,t5,a5
    3104:	41075733          	sra	a4,a4,a6
    3108:	973e                	c.add	a4,a5
    310a:	975e                	c.add	a4,s7
    310c:	f3a7077f          	maxw	a4,a4,s10
    3110:	f1b7077f          	minw	a4,a4,s11
    3114:	00ec0023          	sb	a4,0(s8)
    3118:	004a2803          	lw	a6,4(s4)
    311c:	004b2f03          	lw	t5,4(s6)
    3120:	f35807ff          	maxw	a5,a6,s5
    3124:	00f595b3          	sll	a1,a1,a5
    3128:	40000737          	lui	a4,0x40000
    312c:	4781                	c.li	a5,0
    312e:	85e5977f          	smar64	a4,a1,t5
    3132:	410005b3          	neg	a1,a6
    3136:	f35585ff          	maxw	a1,a1,s5
    313a:	00bc9833          	sll	a6,s9,a1
    313e:	dff7077f          	wexti	a4,a4,31
    3142:	fff80793          	addi	a5,a6,-1 # 3fffffff <_DATA_LMA_START+0x1fff5167>
    3146:	00072f13          	slti	t5,a4,0
    314a:	4017d813          	srai	a6,a5,0x1
    314e:	987a                	c.add	a6,t5
    3150:	8ff9                	c.and	a5,a4
    3152:	00f827b3          	slt	a5,a6,a5
    3156:	40b75733          	sra	a4,a4,a1
    315a:	973e                	c.add	a4,a5
    315c:	975e                	c.add	a4,s7
    315e:	f3a7077f          	maxw	a4,a4,s10
    3162:	f1b7077f          	minw	a4,a4,s11
    3166:	00e680a3          	sb	a4,1(a3)
    316a:	004a2583          	lw	a1,4(s4)
    316e:	004b2f03          	lw	t5,4(s6)
    3172:	f355887f          	maxw	a6,a1,s5
    3176:	01089833          	sll	a6,a7,a6
    317a:	40000737          	lui	a4,0x40000
    317e:	4781                	c.li	a5,0
    3180:	85e8177f          	smar64	a4,a6,t5
    3184:	40b005b3          	neg	a1,a1
    3188:	f35585ff          	maxw	a1,a1,s5
    318c:	00bc9833          	sll	a6,s9,a1
    3190:	dff7077f          	wexti	a4,a4,31
    3194:	fff80793          	addi	a5,a6,-1
    3198:	4017d813          	srai	a6,a5,0x1
    319c:	00072893          	slti	a7,a4,0
    31a0:	8ff9                	c.and	a5,a4
    31a2:	9846                	c.add	a6,a7
    31a4:	00f827b3          	slt	a5,a6,a5
    31a8:	40b75733          	sra	a4,a4,a1
    31ac:	973e                	c.add	a4,a5
    31ae:	975e                	c.add	a4,s7
    31b0:	478a                	c.lwsp	a5,128(sp)
    31b2:	f3a7077f          	maxw	a4,a4,s10
    31b6:	0c09                	c.addi	s8,2
    31b8:	f1b7077f          	minw	a4,a4,s11
    31bc:	953e                	c.add	a0,a5
    31be:	47f2                	c.lwsp	a5,28(sp)
    31c0:	feec0fa3          	sb	a4,-1(s8)
    31c4:	0689                	c.addi	a3,2
    31c6:	0b21                	c.addi	s6,8
    31c8:	0a21                	c.addi	s4,8
    31ca:	d8fc11e3          	bne	s8,a5,2f4c <riscv_nn_mat_mult_kernel_row_offset_s8_s16+0x8c>
    31ce:	54d2                	c.lwsp	s1,52(sp)
    31d0:	57e2                	c.lwsp	a5,56(sp)
    31d2:	4f86                	c.lwsp	t6,64(sp)
    31d4:	4716                	c.lwsp	a4,68(sp)
    31d6:	42ca                	c.lwsp	t0,144(sp)
    31d8:	048e                	c.slli	s1,0x3
    31da:	5472                	c.lwsp	s0,60(sp)
    31dc:	499a                	c.lwsp	s3,132(sp)
    31de:	493a                	c.lwsp	s2,140(sp)
    31e0:	92be                	c.add	t0,a5
    31e2:	9726                	c.add	a4,s1
    31e4:	009f8fb3          	add	t6,t6,s1
    31e8:	00147793          	andi	a5,s0,1
    31ec:	16078863          	beqz	a5,335c <riscv_nn_mat_mult_kernel_row_offset_s8_s16+0x49c>
    31f0:	47e2                	c.lwsp	a5,24(sp)
    31f2:	00199e13          	slli	t3,s3,0x1
    31f6:	9e3e                	c.add	t3,a5
    31f8:	4681                	c.li	a3,0
    31fa:	c219                	c.beqz	a2,3200 <riscv_nn_mat_mult_kernel_row_offset_s8_s16+0x340>
    31fc:	00062683          	lw	a3,0(a2)
    3200:	478a                	c.lwsp	a5,128(sp)
    3202:	4027df13          	srai	t5,a5,0x2
    3206:	180f0d63          	beqz	t5,33a0 <riscv_nn_mat_mult_kernel_row_offset_s8_s16+0x4e0>
    320a:	45e2                	c.lwsp	a1,24(sp)
    320c:	8872                	c.mv	a6,t3
    320e:	8efa                	c.mv	t4,t5
    3210:	8336                	c.mv	t1,a3
    3212:	88aa                	c.mv	a7,a0
    3214:	4184                	c.lw	s1,0(a1)
    3216:	00082383          	lw	t2,0(a6)
    321a:	0008a783          	lw	a5,0(a7)
    321e:	8a3e                	c.mv	s4,a5
    3220:	8abe                	c.mv	s5,a5
    3222:	0891                	c.addi	a7,4
    3224:	de8a067f          	wexti	a2,s4,8
    3228:	ac96067f          	sunpkd820	a2,a2
    322c:	ac9787ff          	sunpkd820	a5,a5
    3230:	489796ff          	kmada	a3,a5,s1
    3234:	4877937f          	kmada	t1,a5,t2
    3238:	00458393          	addi	t2,a1,4
    323c:	0003a383          	lw	t2,0(t2)
    3240:	05a1                	c.addi	a1,8
    3242:	00480793          	addi	a5,a6,4
    3246:	439c                	c.lw	a5,0(a5)
    3248:	0821                	c.addi	a6,8
    324a:	487616ff          	kmada	a3,a2,t2
    324e:	48f6137f          	kmada	t1,a2,a5
    3252:	1efd                	c.addi	t4,-1
    3254:	fc0e90e3          	bnez	t4,3214 <riscv_nn_mat_mult_kernel_row_offset_s8_s16+0x354>
    3258:	4662                	c.lwsp	a2,24(sp)
    325a:	003f1793          	slli	a5,t5,0x3
    325e:	0f0a                	c.slli	t5,0x2
    3260:	9e3e                	c.add	t3,a5
    3262:	957a                	c.add	a0,t5
    3264:	97b2                	c.add	a5,a2
    3266:	cc3e                	c.swsp	a5,24(sp)
    3268:	478a                	c.lwsp	a5,128(sp)
    326a:	8b8d                	c.andi	a5,3
    326c:	c7b1                	c.beqz	a5,32b8 <riscv_nn_mat_mult_kernel_row_offset_s8_s16+0x3f8>
    326e:	44e2                	c.lwsp	s1,24(sp)
    3270:	00050603          	lb	a2,0(a0)
    3274:	00049883          	lh	a7,0(s1)
    3278:	000e1803          	lh	a6,0(t3)
    327c:	4585                	c.li	a1,1
    327e:	c4c896ff          	maddr32	a3,a7,a2
    3282:	c4c8137f          	maddr32	t1,a6,a2
    3286:	02b78963          	beq	a5,a1,32b8 <riscv_nn_mat_mult_kernel_row_offset_s8_s16+0x3f8>
    328a:	00150603          	lb	a2,1(a0)
    328e:	00249883          	lh	a7,2(s1)
    3292:	002e1803          	lh	a6,2(t3)
    3296:	4589                	c.li	a1,2
    3298:	c4c896ff          	maddr32	a3,a7,a2
    329c:	c4c8137f          	maddr32	t1,a6,a2
    32a0:	00b78c63          	beq	a5,a1,32b8 <riscv_nn_mat_mult_kernel_row_offset_s8_s16+0x3f8>
    32a4:	00250783          	lb	a5,2(a0)
    32a8:	00449583          	lh	a1,4(s1)
    32ac:	004e1603          	lh	a2,4(t3)
    32b0:	c4f596ff          	maddr32	a3,a1,a5
    32b4:	c4f6137f          	maddr32	t1,a2,a5
    32b8:	000fae83          	lw	t4,0(t6)
    32bc:	431c                	c.lw	a5,0(a4)
    32be:	4e01                	c.li	t3,0
    32c0:	f3ce867f          	maxw	a2,t4,t3
    32c4:	40000537          	lui	a0,0x40000
    32c8:	4581                	c.li	a1,0
    32ca:	00c696b3          	sll	a3,a3,a2
    32ce:	882a                	c.mv	a6,a0
    32d0:	88ae                	c.mv	a7,a1
    32d2:	84f6987f          	smar64	a6,a3,a5
    32d6:	41d00eb3          	neg	t4,t4
    32da:	4685                	c.li	a3,1
    32dc:	f3ce8eff          	maxw	t4,t4,t3
    32e0:	01d69633          	sll	a2,a3,t4
    32e4:	dff807ff          	wexti	a5,a6,31
    32e8:	167d                	c.addi	a2,-1
    32ea:	40165813          	srai	a6,a2,0x1
    32ee:	0007a893          	slti	a7,a5,0
    32f2:	8e7d                	c.and	a2,a5
    32f4:	9846                	c.add	a6,a7
    32f6:	00c82633          	slt	a2,a6,a2
    32fa:	41d7d7b3          	sra	a5,a5,t4
    32fe:	97b2                	c.add	a5,a2
    3300:	97de                	c.add	a5,s7
    3302:	f2fd07ff          	maxw	a5,s10,a5
    3306:	f0fd87ff          	minw	a5,s11,a5
    330a:	00f28023          	sb	a5,0(t0)
    330e:	000fa783          	lw	a5,0(t6)
    3312:	4318                	c.lw	a4,0(a4)
    3314:	f3c7867f          	maxw	a2,a5,t3
    3318:	00c31333          	sll	t1,t1,a2
    331c:	84e3157f          	smar64	a0,t1,a4
    3320:	40f00733          	neg	a4,a5
    3324:	f3c7077f          	maxw	a4,a4,t3
    3328:	00e697b3          	sll	a5,a3,a4
    332c:	dff5057f          	wexti	a0,a0,31
    3330:	17fd                	c.addi	a5,-1
    3332:	4017d693          	srai	a3,a5,0x1
    3336:	00052613          	slti	a2,a0,0
    333a:	8fe9                	c.and	a5,a0
    333c:	96b2                	c.add	a3,a2
    333e:	00f6a7b3          	slt	a5,a3,a5
    3342:	40e55733          	sra	a4,a0,a4
    3346:	973e                	c.add	a4,a5
    3348:	9bba                	c.add	s7,a4
    334a:	47f2                	c.lwsp	a5,28(sp)
    334c:	f37d0d7f          	maxw	s10,s10,s7
    3350:	f1ad8dff          	minw	s11,s11,s10
    3354:	00128293          	addi	t0,t0,1
    3358:	01b78023          	sb	s11,0(a5)
    335c:	0906                	c.slli	s2,0x1
    335e:	40890933          	sub	s2,s2,s0
    3362:	5476                	c.lwsp	s0,124(sp)
    3364:	54e6                	c.lwsp	s1,120(sp)
    3366:	59c6                	c.lwsp	s3,112(sp)
    3368:	5a36                	c.lwsp	s4,108(sp)
    336a:	5aa6                	c.lwsp	s5,104(sp)
    336c:	5b16                	c.lwsp	s6,100(sp)
    336e:	5b86                	c.lwsp	s7,96(sp)
    3370:	4c76                	c.lwsp	s8,92(sp)
    3372:	4ce6                	c.lwsp	s9,88(sp)
    3374:	4d56                	c.lwsp	s10,84(sp)
    3376:	4dc6                	c.lwsp	s11,80(sp)
    3378:	01228533          	add	a0,t0,s2
    337c:	5956                	c.lwsp	s2,116(sp)
    337e:	6109                	c.addi16sp	sp,128
    3380:	00008067          	ret
    3384:	5902                	c.lwsp	s2,32(sp)
    3386:	4581                	c.li	a1,0
    3388:	00000813          	li	a6,0
    338c:	bc091ce3          	bnez	s2,2f64 <riscv_nn_mat_mult_kernel_row_offset_s8_s16+0xa4>
    3390:	5792                	c.lwsp	a5,36(sp)
    3392:	4762                	c.lwsp	a4,24(sp)
    3394:	88ae                	c.mv	a7,a1
    3396:	8f42                	c.mv	t5,a6
    3398:	c69ff06f          	j	3000 <riscv_nn_mat_mult_kernel_row_offset_s8_s16+0x140>
    339c:	ce62                	c.swsp	s8,28(sp)
    339e:	b5a9                	c.j	31e8 <riscv_nn_mat_mult_kernel_row_offset_s8_s16+0x328>
    33a0:	8336                	c.mv	t1,a3
    33a2:	b5d9                	c.j	3268 <riscv_nn_mat_mult_kernel_row_offset_s8_s16+0x3a8>

000033a4 <riscv_convolve_1x1_s8>:
    33a4:	7119                	c.addi16sp	sp,-128
    33a6:	4988                	c.lw	a0,16(a1)
    33a8:	d6ce                	c.swsp	s3,108(sp)
    33aa:	de86                	c.swsp	ra,124(sp)
    33ac:	dca2                	c.swsp	s0,120(sp)
    33ae:	daa6                	c.swsp	s1,116(sp)
    33b0:	d8ca                	c.swsp	s2,112(sp)
    33b2:	d4d2                	c.swsp	s4,104(sp)
    33b4:	d2d6                	c.swsp	s5,100(sp)
    33b6:	d0da                	c.swsp	s6,96(sp)
    33b8:	cede                	c.swsp	s7,92(sp)
    33ba:	cce2                	c.swsp	s8,88(sp)
    33bc:	cae6                	c.swsp	s9,84(sp)
    33be:	c8ea                	c.swsp	s10,80(sp)
    33c0:	c6ee                	c.swsp	s11,76(sp)
    33c2:	479a                	c.lwsp	a5,132(sp)
    33c4:	49aa                	c.lwsp	s3,136(sp)
    33c6:	0e051f63          	bnez	a0,34c4 <riscv_convolve_1x1_s8+0x120>
    33ca:	49c8                	c.lw	a0,20(a1)
    33cc:	0e051c63          	bnez	a0,34c4 <riscv_convolve_1x1_s8+0x120>
    33d0:	4688                	c.lw	a0,8(a3)
    33d2:	00c5ac83          	lw	s9,12(a1)
    33d6:	0087ad83          	lw	s11,8(a5)
    33da:	03950cb3          	mul	s9,a0,s9
    33de:	00c7aa83          	lw	s5,12(a5)
    33e2:	00c6ad03          	lw	s10,12(a3)
    33e6:	0006ae03          	lw	t3,0(a3)
    33ea:	03ac8cb3          	mul	s9,s9,s10
    33ee:	035d8c33          	mul	s8,s11,s5
    33f2:	0085ab83          	lw	s7,8(a1)
    33f6:	0047ab03          	lw	s6,4(a5)
    33fa:	0dc05363          	blez	t3,34c0 <riscv_convolve_1x1_s8+0x11c>
    33fe:	8a32                	c.mv	s4,a2
    3400:	03ab8bb3          	mul	s7,s7,s10
    3404:	87d2                	c.mv	a5,s4
    3406:	842e                	c.mv	s0,a1
    3408:	8a5a                	c.mv	s4,s6
    340a:	4581                	c.li	a1,0
    340c:	8b56                	c.mv	s6,s5
    340e:	4601                	c.li	a2,0
    3410:	8abe                	c.mv	s5,a5
    3412:	d442                	c.swsp	a6,40(sp)
    3414:	03c12e23          	sw	t3,60(sp)
    3418:	02a60533          	mul	a0,a2,a0
    341c:	0046a803          	lw	a6,4(a3)
    3420:	893a                	c.mv	s2,a4
    3422:	c505197f          	maddr32	s2,a0,a6
    3426:	09405563          	blez	s4,34b0 <riscv_convolve_1x1_s8+0x10c>
    342a:	c54e                	c.swsp	s3,136(sp)
    342c:	4481                	c.li	s1,0
    342e:	89ca                	c.mv	s3,s2
    3430:	d62e                	c.swsp	a1,44(sp)
    3432:	895a                	c.mv	s2,s6
    3434:	d832                	c.swsp	a2,48(sp)
    3436:	4b2a                	c.lwsp	s6,136(sp)
    3438:	da36                	c.swsp	a3,52(sp)
    343a:	dc3a                	c.swsp	a4,56(sp)
    343c:	00c0006f          	j	3448 <riscv_convolve_1x1_s8+0xa4>
    3440:	99e6                	c.add	s3,s9
    3442:	9b62                	c.add	s6,s8
    3444:	069a0063          	beq	s4,s1,34a4 <riscv_convolve_1x1_s8+0x100>
    3448:	02442283          	lw	t0,36(s0)
    344c:	02042f83          	lw	t6,32(s0)
    3450:	00442f03          	lw	t5,4(s0)
    3454:	00042e83          	lw	t4,0(s0)
    3458:	004aa783          	lw	a5,4(s5)
    345c:	000aa703          	lw	a4,0(s5)
    3460:	460a                	c.lwsp	a2,128(sp)
    3462:	55a2                	c.lwsp	a1,40(sp)
    3464:	86da                	c.mv	a3,s6
    3466:	854e                	c.mv	a0,s3
    3468:	88ca                	c.mv	a7,s2
    346a:	886e                	c.mv	a6,s11
    346c:	cc5e                	c.swsp	s7,24(sp)
    346e:	ca4a                	c.swsp	s2,20(sp)
    3470:	c816                	c.swsp	t0,16(sp)
    3472:	c67e                	c.swsp	t6,12(sp)
    3474:	c47a                	c.swsp	t5,8(sp)
    3476:	c276                	c.swsp	t4,4(sp)
    3478:	c06a                	c.swsp	s10,0(sp)
    347a:	0485                	c.addi	s1,1
    347c:	789010ef          	jal	ra,5404 <riscv_nn_mat_mult_nt_t_s8>
    3480:	fc0500e3          	beqz	a0,3440 <riscv_convolve_1x1_s8+0x9c>
    3484:	50f6                	c.lwsp	ra,124(sp)
    3486:	5466                	c.lwsp	s0,120(sp)
    3488:	54d6                	c.lwsp	s1,116(sp)
    348a:	5946                	c.lwsp	s2,112(sp)
    348c:	59b6                	c.lwsp	s3,108(sp)
    348e:	5a26                	c.lwsp	s4,104(sp)
    3490:	5a96                	c.lwsp	s5,100(sp)
    3492:	5b06                	c.lwsp	s6,96(sp)
    3494:	4bf6                	c.lwsp	s7,92(sp)
    3496:	4c66                	c.lwsp	s8,88(sp)
    3498:	4cd6                	c.lwsp	s9,84(sp)
    349a:	4d46                	c.lwsp	s10,80(sp)
    349c:	4db6                	c.lwsp	s11,76(sp)
    349e:	6109                	c.addi16sp	sp,128
    34a0:	00008067          	ret
    34a4:	55b2                	c.lwsp	a1,44(sp)
    34a6:	5642                	c.lwsp	a2,48(sp)
    34a8:	56d2                	c.lwsp	a3,52(sp)
    34aa:	5762                	c.lwsp	a4,56(sp)
    34ac:	89da                	c.mv	s3,s6
    34ae:	8b4a                	c.mv	s6,s2
    34b0:	57f2                	c.lwsp	a5,60(sp)
    34b2:	0585                	c.addi	a1,1
    34b4:	966a                	c.add	a2,s10
    34b6:	00b78563          	beq	a5,a1,34c0 <riscv_convolve_1x1_s8+0x11c>
    34ba:	4688                	c.lw	a0,8(a3)
    34bc:	f5dff06f          	j	3418 <riscv_convolve_1x1_s8+0x74>
    34c0:	4501                	c.li	a0,0
    34c2:	b7c9                	c.j	3484 <riscv_convolve_1x1_s8+0xe0>
    34c4:	557d                	c.li	a0,-1
    34c6:	bf7d                	c.j	3484 <riscv_convolve_1x1_s8+0xe0>

000034c8 <riscv_depthwise_conv_wrapper_s8>:
    34c8:	1101                	c.addi	sp,-32
    34ca:	0085ae03          	lw	t3,8(a1)
    34ce:	ce22                	c.swsp	s0,28(sp)
    34d0:	cc26                	c.swsp	s1,24(sp)
    34d2:	ca4a                	c.swsp	s2,20(sp)
    34d4:	c84e                	c.swsp	s3,16(sp)
    34d6:	c652                	c.swsp	s4,12(sp)
    34d8:	c456                	c.swsp	s5,8(sp)
    34da:	4f85                	c.li	t6,1
    34dc:	c25a                	c.swsp	s6,4(sp)
    34de:	5282                	c.lwsp	t0,32(sp)
    34e0:	5392                	c.lwsp	t2,36(sp)
    34e2:	5422                	c.lwsp	s0,40(sp)
    34e4:	832e                	c.mv	t1,a1
    34e6:	84aa                	c.mv	s1,a0
    34e8:	8932                	c.mv	s2,a2
    34ea:	8eb6                	c.mv	t4,a3
    34ec:	89ba                	c.mv	s3,a4
    34ee:	8f3e                	c.mv	t5,a5
    34f0:	8a42                	c.mv	s4,a6
    34f2:	8ac6                	c.mv	s5,a7
    34f4:	01fe1663          	bne	t3,t6,3500 <riscv_depthwise_conv_wrapper_s8+0x38>
    34f8:	0006af83          	lw	t6,0(a3)
    34fc:	03cf8863          	beq	t6,t3,352c <riscv_depthwise_conv_wrapper_s8+0x64>
    3500:	d422                	c.swsp	s0,40(sp)
    3502:	4472                	c.lwsp	s0,28(sp)
    3504:	4b12                	c.lwsp	s6,4(sp)
    3506:	d21e                	c.swsp	t2,36(sp)
    3508:	d016                	c.swsp	t0,32(sp)
    350a:	88d6                	c.mv	a7,s5
    350c:	8852                	c.mv	a6,s4
    350e:	4aa2                	c.lwsp	s5,8(sp)
    3510:	4a32                	c.lwsp	s4,12(sp)
    3512:	874e                	c.mv	a4,s3
    3514:	864a                	c.mv	a2,s2
    3516:	49c2                	c.lwsp	s3,16(sp)
    3518:	4952                	c.lwsp	s2,20(sp)
    351a:	8526                	c.mv	a0,s1
    351c:	44e2                	c.lwsp	s1,24(sp)
    351e:	87fa                	c.mv	a5,t5
    3520:	86f6                	c.mv	a3,t4
    3522:	859a                	c.mv	a1,t1
    3524:	02010113          	addi	sp,sp,32
    3528:	7a10206f          	j	64c8 <riscv_depthwise_conv_s8>
    352c:	01c5ae03          	lw	t3,28(a1)
    3530:	fdfe18e3          	bne	t3,t6,3500 <riscv_depthwise_conv_wrapper_s8+0x38>
    3534:	0205af83          	lw	t6,32(a1)
    3538:	fdcf94e3          	bne	t6,t3,3500 <riscv_depthwise_conv_wrapper_s8+0x38>
    353c:	0087ae03          	lw	t3,8(a5)
    3540:	00300b13          	li	s6,3
    3544:	016e1663          	bne	t3,s6,3550 <riscv_depthwise_conv_wrapper_s8+0x88>
    3548:	0047ab03          	lw	s6,4(a5)
    354c:	03cb0863          	beq	s6,t3,357c <riscv_depthwise_conv_wrapper_s8+0xb4>
    3550:	d422                	c.swsp	s0,40(sp)
    3552:	4472                	c.lwsp	s0,28(sp)
    3554:	4b12                	c.lwsp	s6,4(sp)
    3556:	d21e                	c.swsp	t2,36(sp)
    3558:	d016                	c.swsp	t0,32(sp)
    355a:	88d6                	c.mv	a7,s5
    355c:	8852                	c.mv	a6,s4
    355e:	4aa2                	c.lwsp	s5,8(sp)
    3560:	4a32                	c.lwsp	s4,12(sp)
    3562:	874e                	c.mv	a4,s3
    3564:	864a                	c.mv	a2,s2
    3566:	49c2                	c.lwsp	s3,16(sp)
    3568:	4952                	c.lwsp	s2,20(sp)
    356a:	8526                	c.mv	a0,s1
    356c:	44e2                	c.lwsp	s1,24(sp)
    356e:	87fa                	c.mv	a5,t5
    3570:	86f6                	c.mv	a3,t4
    3572:	859a                	c.mv	a1,t1
    3574:	02010113          	addi	sp,sp,32
    3578:	6f80306f          	j	6c70 <riscv_depthwise_conv_s8_opt>
    357c:	0185ae03          	lw	t3,24(a1)
    3580:	fdcfc8e3          	blt	t6,t3,3550 <riscv_depthwise_conv_wrapper_s8+0x88>
    3584:	0145ae03          	lw	t3,20(a1)
    3588:	fdcfc4e3          	blt	t6,t3,3550 <riscv_depthwise_conv_wrapper_s8+0x88>
    358c:	4472                	c.lwsp	s0,28(sp)
    358e:	44e2                	c.lwsp	s1,24(sp)
    3590:	4952                	c.lwsp	s2,20(sp)
    3592:	49c2                	c.lwsp	s3,16(sp)
    3594:	4a32                	c.lwsp	s4,12(sp)
    3596:	4aa2                	c.lwsp	s5,8(sp)
    3598:	4b12                	c.lwsp	s6,4(sp)
    359a:	6105                	c.addi16sp	sp,32
    359c:	5b50306f          	j	7350 <riscv_depthwise_conv_3x3_s8>

000035a0 <riscv_convolve_1_x_n_s8>:
    35a0:	1141                	c.addi	sp,-16
    35a2:	0046a303          	lw	t1,4(a3)
    35a6:	4f05                	c.li	t5,1
    35a8:	c622                	c.swsp	s0,12(sp)
    35aa:	03e31b63          	bne	t1,t5,35e0 <riscv_convolve_1_x_n_s8+0x40>
    35ae:	0185af03          	lw	t5,24(a1)
    35b2:	026f1763          	bne	t5,t1,35e0 <riscv_convolve_1_x_n_s8+0x40>
    35b6:	00052303          	lw	t1,0(a0) # 40000000 <_DATA_LMA_START+0x1fff5168>
    35ba:	02030363          	beqz	t1,35e0 <riscv_convolve_1_x_n_s8+0x40>
    35be:	0085a303          	lw	t1,8(a1)
    35c2:	00030f63          	beqz	t1,35e0 <riscv_convolve_1_x_n_s8+0x40>
    35c6:	00c6ae03          	lw	t3,12(a3)
    35ca:	03c30333          	mul	t1,t1,t3
    35ce:	00337313          	andi	t1,t1,3
    35d2:	00031763          	bnez	t1,35e0 <riscv_convolve_1_x_n_s8+0x40>
    35d6:	4432                	c.lwsp	s0,12(sp)
    35d8:	01010113          	addi	sp,sp,16
    35dc:	d25fe06f          	j	2300 <riscv_convolve_s8>
    35e0:	4432                	c.lwsp	s0,12(sp)
    35e2:	557d                	c.li	a0,-1
    35e4:	0141                	c.addi	sp,16
    35e6:	8082                	c.jr	ra

000035e8 <riscv_softmax_s8>:
    35e8:	88c2                	c.mv	a7,a6
    35ea:	4801                	c.li	a6,0
    35ec:	a011                	c.j	35f0 <riscv_nn_softmax_common_s8>
	...

000035f0 <riscv_nn_softmax_common_s8>:
    35f0:	d8010113          	addi	sp,sp,-640
    35f4:	26812e23          	sw	s0,636(sp)
    35f8:	26912c23          	sw	s1,632(sp)
    35fc:	27212a23          	sw	s2,628(sp)
    3600:	27312823          	sw	s3,624(sp)
    3604:	27412623          	sw	s4,620(sp)
    3608:	27512423          	sw	s5,616(sp)
    360c:	27612223          	sw	s6,612(sp)
    3610:	27712023          	sw	s7,608(sp)
    3614:	25812e23          	sw	s8,604(sp)
    3618:	25912c23          	sw	s9,600(sp)
    361c:	25a12a23          	sw	s10,596(sp)
    3620:	25b12823          	sw	s11,592(sp)
    3624:	1eb12c23          	sw	a1,504(sp)
    3628:	c636                	c.swsp	a3,12(sp)
    362a:	da3a                	c.swsp	a4,52(sp)
    362c:	1f012e23          	sw	a6,508(sp)
    3630:	83be                	c.mv	t2,a5
    3632:	00b04463          	bgtz	a1,363a <riscv_nn_softmax_common_s8+0x4a>
    3636:	3e20106f          	j	4a18 <riscv_nn_softmax_common_s8+0x1428>
    363a:	00161793          	slli	a5,a2,0x1
    363e:	20f12023          	sw	a5,512(sp)
    3642:	97c6                	c.add	a5,a7
    3644:	c1be                	c.swsp	a5,192(sp)
    3646:	ffe60793          	addi	a5,a2,-2
    364a:	20f12223          	sw	a5,516(sp)
    364e:	800007b7          	lui	a5,0x80000
    3652:	fff78d93          	addi	s11,a5,-1 # 7fffffff <_DATA_LMA_START+0x5fff5167>
    3656:	67a1                	c.lui	a5,0x8
    3658:	00c50cb3          	add	s9,a0,a2
    365c:	17fd                	c.addi	a5,-1
    365e:	8faa                	c.mv	t6,a0
    3660:	fff54993          	not	s3,a0
    3664:	20f12e23          	sw	a5,540(sp)
    3668:	8432                	c.mv	s0,a2
    366a:	4785                	c.li	a5,1
    366c:	d866                	c.swsp	s9,48(sp)
    366e:	12012623          	sw	zero,300(sp)
    3672:	dfc6                	c.swsp	a7,252(sp)
    3674:	8f1e                	c.mv	t5,t2
    3676:	8ac6                	c.mv	s5,a7
    3678:	000f8383          	lb	t2,0(t6)
    367c:	82ce                	c.mv	t0,s3
    367e:	8a66                	c.mv	s4,s9
    3680:	2e87dae3          	bge	a5,s0,4174 <riscv_nn_softmax_common_s8+0xb84>
    3684:	20412683          	lw	a3,516(sp)
    3688:	4725                	c.li	a4,9
    368a:	fff40613          	addi	a2,s0,-1
    368e:	0032f793          	andi	a5,t0,3
    3692:	00d76463          	bltu	a4,a3,369a <riscv_nn_softmax_common_s8+0xaa>
    3696:	5370106f          	j	53cc <riscv_nn_softmax_common_s8+0x1ddc>
    369a:	4585                	c.li	a1,1
    369c:	c795                	c.beqz	a5,36c8 <riscv_nn_softmax_common_s8+0xd8>
    369e:	001f8683          	lb	a3,1(t6)
    36a2:	0022f713          	andi	a4,t0,2
    36a6:	4589                	c.li	a1,2
    36a8:	f27683ff          	maxw	t2,a3,t2
    36ac:	cf11                	c.beqz	a4,36c8 <riscv_nn_softmax_common_s8+0xd8>
    36ae:	002f8703          	lb	a4,2(t6)
    36b2:	458d                	c.li	a1,3
    36b4:	f27703ff          	maxw	t2,a4,t2
    36b8:	00b79863          	bne	a5,a1,36c8 <riscv_nn_softmax_common_s8+0xd8>
    36bc:	003f8703          	lb	a4,3(t6)
    36c0:	00400593          	li	a1,4
    36c4:	f27703ff          	maxw	t2,a4,t2
    36c8:	0ff3f713          	andi	a4,t2,255
    36cc:	8e1d                	c.sub	a2,a5
    36ce:	ac13877f          	insb	a4,t2,1
    36d2:	0785                	c.addi	a5,1
    36d4:	ac23877f          	insb	a4,t2,2
    36d8:	97fe                	c.add	a5,t6
    36da:	ffc67513          	andi	a0,a2,-4
    36de:	ac33877f          	insb	a4,t2,3
    36e2:	953e                	c.add	a0,a5
    36e4:	4394                	c.lw	a3,0(a5)
