
Nmsis_cfft_q15_SIM.adx:     file format elf32-littleriscv
Nmsis_cfft_q15_SIM.adx
architecture: riscv:rv32, flags 0x00000012:
EXEC_P, HAS_SYMS
start address 0x0001a1c0

Program Header:
    PHDR off    0x00000034 vaddr 0x00010034 paddr 0x00010034 align 2**2
         filesz 0x000000c0 memsz 0x000000c0 flags r--
    LOAD off    0x00000000 vaddr 0x00010000 paddr 0x00010000 align 2**4
         filesz 0x0000a1b4 memsz 0x0000a1b4 flags r--
    LOAD off    0x0000a1c0 vaddr 0x0001a1c0 paddr 0x0001a1c0 align 2**4
         filesz 0x0000307a memsz 0x0000307a flags r-x
    LOAD off    0x0000e000 vaddr 0x0001d240 paddr 0x0001d240 align 2**4
         filesz 0x00000020 memsz 0x00000030 flags rw-
   STACK off    0x00000000 vaddr 0x00000000 paddr 0x00000000 align 2**0
         filesz 0x00000000 memsz 0x00000000 flags rw-
0x70000000 off    0x0001c529 vaddr 0x00000000 paddr 0x00000000 align 2**0
         filesz 0x0000003d memsz 0x00000000 flags r--

Sections:
Idx Name          Size      VMA       LMA       File off  Algn
  0 .rodata       00009fc0  000100f8  000100f8  000000f8  2**3
                  CONTENTS, ALLOC, LOAD, READONLY, DATA
  1 .eh_frame     000000fc  0001a0b8  0001a0b8  0000a0b8  2**2
                  CONTENTS, ALLOC, LOAD, READONLY, DATA
  2 .text         0000307a  0001a1c0  0001a1c0  0000a1c0  2**2
                  CONTENTS, ALLOC, LOAD, READONLY, CODE
  3 .data         0000001c  0001d240  0001d240  0000e000  2**2
                  CONTENTS, ALLOC, LOAD, DATA
  4 .sdata        00000004  0001d25c  0001d25c  0000e01c  2**2
                  CONTENTS, ALLOC, LOAD, DATA
  5 .sbss         00000010  0001d260  0001d260  0000e020  2**2
                  ALLOC
  6 .comment      00000087  00000000  00000000  0000e020  2**0
                  CONTENTS, READONLY
  7 .debug_info   0000316a  00000000  00000000  0000e0a7  2**0
                  CONTENTS, READONLY, DEBUGGING
  8 .debug_abbrev 00000cd8  00000000  00000000  00011211  2**0
                  CONTENTS, READONLY, DEBUGGING
  9 .debug_loc    000050f4  00000000  00000000  00011ee9  2**0
                  CONTENTS, READONLY, DEBUGGING
 10 .debug_aranges 00000120  00000000  00000000  00016fe0  2**3
                  CONTENTS, READONLY, DEBUGGING
 11 .debug_ranges 000006f0  00000000  00000000  00017100  2**0
                  CONTENTS, READONLY, DEBUGGING
 12 .debug_line   000020b6  00000000  00000000  000177f0  2**0
                  CONTENTS, READONLY, DEBUGGING
 13 .debug_str    0000172b  00000000  00000000  000198a6  2**0
                  CONTENTS, READONLY, DEBUGGING
 14 .debug_frame  000001a0  00000000  00000000  0001afd4  2**2
                  CONTENTS, READONLY, DEBUGGING
 15 .riscv.attributes 0000003d  00000000  00000000  0001c529  2**0
                  CONTENTS, READONLY
SYMBOL TABLE:
0001a214 l       .text	00000000 $x
0001a324 l       .text	00000000 $x
0001a434 l       .text	00000000 $x
0001a564 l       .text	00000000 $x
0001a850 l       .text	00000000 $x
0001ab3c l       .text	00000000 $x
0001ab5c l       .text	00000000 $x
0001ab80 l       .text	00000000 $x
0001aba0 l       .text	00000000 $x
0001abc0 l       .text	00000000 $x
0001abe0 l       .text	00000000 $x
0001ac00 l       .text	00000000 $x
0001ac20 l       .text	00000000 $x
0001ac40 l       .text	00000000 $x
0001ac60 l       .text	00000000 $x
0001acd8 l       .text	00000000 $x
00000000 l    df *ABS*	00000000 _exit.c
00000000 l    df *ABS*	00000000 errno.c
00000000 l    df *ABS*	00000000 <artificial>
00000000 l    df *ABS*	00000000 floatunsidf.c
0001af88 l     F .text	00000064 .hidden __floatunsidf
00000000 l    df *ABS*	00000000 muldf3.c
0001afec l     F .text	00000648 .hidden __muldf3
00000000 l    df *ABS*	00000000 truncdfsf2.c
0001b638 l     F .text	00000300 .hidden __truncdfsf2
00000000 l    df *ABS*	00000000 extendsfdf2.c
0001b938 l     F .text	00000110 .hidden __extendsfdf2
00000000 l    df *ABS*	00000000 sinf.c
00000000 l    df *ABS*	00000000 ref_rredf.c
0001a048 l     O .rodata	00000020 twooverpi.2618
00000000 l    df *ABS*	00000000 puts.c
00000000 l    df *ABS*	00000000 strlen.c
00000000 l    df *ABS*	00000000 _write.c
00000000 l    df *ABS*	00000000 printf.c
00000000 l    df *ABS*	00000000 vprintf.c
0001be02 l     F .text	00000036 __vprintf_help
0001d264 l     O .sbss	00000004 __vprintf_buf
0001d268 l     O .sbss	00000004 __vprintf_buf_len
00000000 l    df *ABS*	00000000 printf_impl.c
00000000 l    df *ABS*	00000000 printf_impl_float.c
00000000 l    df *ABS*	00000000 libgcc2.c
0001c7dc l     F .text	0000002e .hidden __ashldi3
00000000 l    df *ABS*	00000000 libgcc2.c
0001c80c l     F .text	0000002e .hidden __lshrdi3
00000000 l    df *ABS*	00000000 strcpy.c
00000000 l    df *ABS*	00000000 printf_data.c
00000000 l    df *ABS*	00000000 strnlen.c
00000000 l    df *ABS*	00000000 wf_sqrt.c
00000000 l    df *ABS*	00000000 divdf3.c
0001c97c l     F .text	000007ea .hidden __divdf3
00000000 l    df *ABS*	00000000 ef_sqrt.c
00000000 l    df *ABS*	00000000 s_lib_ver.c
00000000 l    df *ABS*	00000000 s_matherr.c
03000000 l       *ABS*	00000000 .hidden _stack
00000000 l       *ABS*	00000000 .hidden _ITB_BASE_
00000000 l       *ABS*	00000000 .hidden _RELAX_END_
0001bd02 l       .text	00000000 .hidden __riscv_save_12
0001bd0a l       .text	00000000 .hidden __riscv_save_11
0001bd0a l       .text	00000000 .hidden __riscv_save_10
0001bd0a l       .text	00000000 .hidden __riscv_save_9
0001bd0a l       .text	00000000 .hidden __riscv_save_8
0001bd18 l       .text	00000000 .hidden __riscv_save_7
0001bd18 l       .text	00000000 .hidden __riscv_save_6
0001bd18 l       .text	00000000 .hidden __riscv_save_5
0001bd18 l       .text	00000000 .hidden __riscv_save_4
0001bd32 l       .text	00000000 .hidden __riscv_save_3
0001bd32 l       .text	00000000 .hidden __riscv_save_2
0001bd32 l       .text	00000000 .hidden __riscv_save_1
0001bd32 l       .text	00000000 .hidden __riscv_save_0
0001bd3e l       .text	00000000 .hidden __riscv_restore_12
0001bd42 l       .text	00000000 .hidden __riscv_restore_11
0001bd42 l       .text	00000000 .hidden __riscv_restore_10
0001bd42 l       .text	00000000 .hidden __riscv_restore_9
0001bd42 l       .text	00000000 .hidden __riscv_restore_8
0001bd4c l       .text	00000000 .hidden __riscv_restore_7
0001bd4c l       .text	00000000 .hidden __riscv_restore_6
0001bd4c l       .text	00000000 .hidden __riscv_restore_5
0001bd4c l       .text	00000000 .hidden __riscv_restore_4
0001bd56 l       .text	00000000 .hidden __riscv_restore_3
0001bd56 l       .text	00000000 .hidden __riscv_restore_2
0001bd56 l       .text	00000000 .hidden __riscv_restore_1
0001bd56 l       .text	00000000 .hidden __riscv_restore_0
0001a1c0 g     F .text	00000050 _start
000100fc g       *ABS*	00000000 __global_pointer$
0001d260 g       .sdata	00000000 _edata
0001d270 g       .sbss	00000000 _end
0001ad32 g     F .text	000000a8 memset
0001adf8 g     F .text	0000018c main
0001adda  w    F .text	0000001e _exit
0001a210 g     F .text	00000002 _init
0001a210 g     F .text	00000002 _fini
0001d168 g     F .text	000000cc __ieee754_sqrtf
0001bba0 g     F .text	00000132 ref__mathlib_rredf2
0001a030 g     O .rodata	00000018 cst_libm_rredf
0001d25c g     O .sdata	00000004 __fdlib_version
0001d236 g     F .text	00000004 matherr
0001ba48 g     F .text	00000156 sinf
0001d240 g     O .data	0000001c cst_libm_sincosf
0001c8d4 g     F .text	000000a6 sqrtf
0001a434  w    F .text	0000012e riscv_cfft_q15
0001ac60  w    F .text	00000076 riscv_cfft_init_q15
000100f8 g     O .rodata	00000010 riscv_cfft_sR_q15_len4096
00010108 g     O .rodata	00000010 riscv_cfft_sR_q15_len2048
00010118 g     O .rodata	00000010 riscv_cfft_sR_q15_len1024
00010128 g     O .rodata	00000010 riscv_cfft_sR_q15_len512
00010138 g     O .rodata	00000010 riscv_cfft_sR_q15_len256
00010148 g     O .rodata	00000010 riscv_cfft_sR_q15_len128
00010158 g     O .rodata	00000010 riscv_cfft_sR_q15_len64
00010168 g     O .rodata	00000010 riscv_cfft_sR_q15_len32
00010178 g     O .rodata	00000010 riscv_cfft_sR_q15_len16
00010188 g     O .rodata	00001f80 riscvBitRevIndexTable_fixed_4096
00012108 g     O .rodata	00000f80 riscvBitRevIndexTable_fixed_2048
00013088 g     O .rodata	000007c0 riscvBitRevIndexTable_fixed_1024
00013848 g     O .rodata	000003c0 riscvBitRevIndexTable_fixed_512
00013c08 g     O .rodata	000001e0 riscvBitRevIndexTable_fixed_256
00013de8 g     O .rodata	000000e0 riscvBitRevIndexTable_fixed_128
00013ec8 g     O .rodata	00000070 riscvBitRevIndexTable_fixed_64
00013f38 g     O .rodata	00000030 riscvBitRevIndexTable_fixed_32
00013f68 g     O .rodata	00000018 riscvBitRevIndexTable_fixed_16
00013f80 g     O .rodata	00003000 twiddleCoef_4096_q15
00016f80 g     O .rodata	00001800 twiddleCoef_2048_q15
00018780 g     O .rodata	00000c00 twiddleCoef_1024_q15
00019380 g     O .rodata	00000600 twiddleCoef_512_q15
00019980 g     O .rodata	00000300 twiddleCoef_256_q15
00019c80 g     O .rodata	00000180 twiddleCoef_128_q15
00019e00 g     O .rodata	000000c0 twiddleCoef_64_q15
00019ec0 g     O .rodata	00000060 twiddleCoef_32_q15
00019f20 g     O .rodata	00000030 twiddleCoef_16_q15
0001a214  w    F .text	0000010e riscv_cfft_radix4by2_q15
0001a324  w    F .text	0000010e riscv_cfft_radix4by2_inverse_q15
0001a564  w    F .text	000002ec riscv_radix4_butterfly_q15
0001a850  w    F .text	000002ec riscv_radix4_butterfly_inverse_q15
0001acd8  w    F .text	0000005a riscv_bitreversal_16
0001ab3c  w    F .text	0000001e riscv_cfft_init_4096_q15
0001ab5c  w    F .text	00000022 riscv_cfft_init_2048_q15
0001ab80  w    F .text	00000020 riscv_cfft_init_1024_q15
0001aba0  w    F .text	00000020 riscv_cfft_init_512_q15
0001abc0  w    F .text	00000020 riscv_cfft_init_256_q15
0001abe0  w    F .text	00000020 riscv_cfft_init_128_q15
0001ac00  w    F .text	00000020 riscv_cfft_init_64_q15
0001ac20  w    F .text	00000020 riscv_cfft_init_32_q15
0001ac40  w    F .text	0000001e riscv_cfft_init_16_q15
0001d260 g     O .sbss	00000004 __mculib_REENT_errno
0001bde4 g     F .text	0000001e printf
0001a068 g     O .rodata	00000010 __digits
0001d26c g     O .sbss	00000004 __printf_count
0001be82 g     F .text	00000046 __print_integral
0001bec8 g     F .text	00000470 __printf_impl
0001c338 g     F .text	0000001e __int_to_poly
0001c356 g     F .text	00000090 __print_integral_poly
0001c3e6 g     F .text	000003f6 __printf_float_impl
0001bcd4 g     F .text	0000002e puts
0001c83c g     F .text	0000007c strcpy
0001bd64 g     F .text	0000005e strlen
0001c8ba g     F .text	00000018 strnlen
0001be38 g     F .text	0000004a vprintf
0001bdc4  w    F .text	00000020 _write



Disassembly of section .text:

0001a1c0 <_start>:
   1a1c0:	02fe6517          	auipc	a0,0x2fe6
   1a1c4:	e4050513          	addi	a0,a0,-448 # 3000000 <_stack>
   1a1c8:	c111                	c.beqz	a0,1a1cc <_start+0xc>
   1a1ca:	812a                	c.mv	sp,a0
   1a1cc:	ffff6197          	auipc	gp,0xffff6
   1a1d0:	f3018193          	addi	gp,gp,-208 # 100fc <__global_pointer$>
   1a1d4:	4501                	c.li	a0,0
   1a1d6:	80051073          	csrw	uitb,a0
   1a1da:	6509                	c.lui	a0,0x2
   1a1dc:	30052073          	csrs	mstatus,a0
   1a1e0:	04000513          	li	a0,64
   1a1e4:	7d052073          	csrs	mmisc_ctl,a0
   1a1e8:	00003517          	auipc	a0,0x3
   1a1ec:	07850513          	addi	a0,a0,120 # 1d260 <_edata>
   1a1f0:	00003617          	auipc	a2,0x3
   1a1f4:	08060613          	addi	a2,a2,128 # 1d270 <_end>
   1a1f8:	8e09                	c.sub	a2,a0
   1a1fa:	4581                	c.li	a1,0
   1a1fc:	337000ef          	jal	ra,1ad32 <memset>
   1a200:	4501                	c.li	a0,0
   1a202:	4581                	c.li	a1,0
   1a204:	4601                	c.li	a2,0
   1a206:	3f3000ef          	jal	ra,1adf8 <main>
   1a20a:	3d1000ef          	jal	ra,1adda <_exit>
   1a20e:	a001                	c.j	1a20e <_start+0x4e>

0001a210 <_fini>:
   1a210:	8082                	c.jr	ra
	...

0001a214 <riscv_cfft_radix4by2_q15>:
   1a214:	1101                	c.addi	sp,-32
   1a216:	ca26                	c.swsp	s1,20(sp)
   1a218:	c84a                	c.swsp	s2,16(sp)
   1a21a:	c64e                	c.swsp	s3,12(sp)
   1a21c:	0015d913          	srli	s2,a1,0x1
   1a220:	00159993          	slli	s3,a1,0x1
   1a224:	ce06                	c.swsp	ra,28(sp)
   1a226:	cc22                	c.swsp	s0,24(sp)
   1a228:	84b2                	c.mv	s1,a2
   1a22a:	99aa                	c.add	s3,a0
   1a22c:	0c090c63          	beqz	s2,1a304 <riscv_cfft_radix4by2_q15+0xf0>
   1a230:	842a                	c.mv	s0,a0
   1a232:	884e                	c.mv	a6,s3
   1a234:	862a                	c.mv	a2,a0
   1a236:	8326                	c.mv	t1,s1
   1a238:	88ca                	c.mv	a7,s2
   1a23a:	4581                	c.li	a1,0
   1a23c:	00032e03          	lw	t3,0(t1)
   1a240:	0311                	c.addi	t1,4
   1a242:	4218                	c.lw	a4,0(a2)
   1a244:	00b7077f          	radd16	a4,a4,a1
   1a248:	00082683          	lw	a3,0(a6)
   1a24c:	00b686ff          	radd16	a3,a3,a1
   1a250:	12d707ff          	ksub16	a5,a4,a3
   1a254:	00d7077f          	radd16	a4,a4,a3
   1a258:	c218                	c.sw	a4,0(a2)
   1a25a:	0611                	c.addi	a2,4
   1a25c:	38fe177f          	kmda	a4,t3,a5
   1a260:	79c797ff          	smxds	a5,a5,t3
   1a264:	8741                	c.srai	a4,0x10
   1a266:	3ee797ff          	pktb16	a5,a5,a4
   1a26a:	00f82023          	sw	a5,0(a6)
   1a26e:	18fd                	c.addi	a7,-1
   1a270:	0811                	c.addi	a6,4
   1a272:	fc0895e3          	bnez	a7,1a23c <riscv_cfft_radix4by2_q15+0x28>
   1a276:	4689                	c.li	a3,2
   1a278:	8626                	c.mv	a2,s1
   1a27a:	85ca                	c.mv	a1,s2
   1a27c:	8522                	c.mv	a0,s0
   1a27e:	24dd                	c.jal	1a564 <riscv_radix4_butterfly_q15>
   1a280:	854e                	c.mv	a0,s3
   1a282:	4689                	c.li	a3,2
   1a284:	8626                	c.mv	a2,s1
   1a286:	85ca                	c.mv	a1,s2
   1a288:	2dc000ef          	jal	ra,1a564 <riscv_radix4_butterfly_q15>
   1a28c:	00347793          	andi	a5,s0,3
   1a290:	8522                	c.mv	a0,s0
   1a292:	eb8d                	c.bnez	a5,1a2c4 <riscv_cfft_radix4by2_q15+0xb0>
   1a294:	00391593          	slli	a1,s2,0x3
   1a298:	008585b3          	add	a1,a1,s0
   1a29c:	415c                	c.lw	a5,4(a0)
   1a29e:	4118                	c.lw	a4,0(a0)
   1a2a0:	0521                	c.addi	a0,8
   1a2a2:	741787ff          	slli16	a5,a5,1
   1a2a6:	7417077f          	slli16	a4,a4,1
   1a2aa:	fee52c23          	sw	a4,-8(a0)
   1a2ae:	fef52e23          	sw	a5,-4(a0)
   1a2b2:	feb515e3          	bne	a0,a1,1a29c <riscv_cfft_radix4by2_q15+0x88>
   1a2b6:	40f2                	c.lwsp	ra,28(sp)
   1a2b8:	4462                	c.lwsp	s0,24(sp)
   1a2ba:	44d2                	c.lwsp	s1,20(sp)
   1a2bc:	4942                	c.lwsp	s2,16(sp)
   1a2be:	49b2                	c.lwsp	s3,12(sp)
   1a2c0:	6105                	c.addi16sp	sp,32
   1a2c2:	8082                	c.jr	ra
   1a2c4:	090e                	c.slli	s2,0x3
   1a2c6:	9922                	c.add	s2,s0
   1a2c8:	00051603          	lh	a2,0(a0)
   1a2cc:	00451703          	lh	a4,4(a0)
   1a2d0:	00251683          	lh	a3,2(a0)
   1a2d4:	0606                	c.slli	a2,0x1
   1a2d6:	0706                	c.slli	a4,0x1
   1a2d8:	00651783          	lh	a5,6(a0)
   1a2dc:	00c51023          	sh	a2,0(a0)
   1a2e0:	00e51223          	sh	a4,4(a0)
   1a2e4:	0686                	c.slli	a3,0x1
   1a2e6:	0786                	c.slli	a5,0x1
   1a2e8:	00d51123          	sh	a3,2(a0)
   1a2ec:	00f51323          	sh	a5,6(a0)
   1a2f0:	0521                	c.addi	a0,8
   1a2f2:	fd251be3          	bne	a0,s2,1a2c8 <riscv_cfft_radix4by2_q15+0xb4>
   1a2f6:	40f2                	c.lwsp	ra,28(sp)
   1a2f8:	4462                	c.lwsp	s0,24(sp)
   1a2fa:	44d2                	c.lwsp	s1,20(sp)
   1a2fc:	4942                	c.lwsp	s2,16(sp)
   1a2fe:	49b2                	c.lwsp	s3,12(sp)
   1a300:	6105                	c.addi16sp	sp,32
   1a302:	8082                	c.jr	ra
   1a304:	4689                	c.li	a3,2
   1a306:	4581                	c.li	a1,0
   1a308:	25c000ef          	jal	ra,1a564 <riscv_radix4_butterfly_q15>
   1a30c:	4462                	c.lwsp	s0,24(sp)
   1a30e:	40f2                	c.lwsp	ra,28(sp)
   1a310:	4942                	c.lwsp	s2,16(sp)
   1a312:	8626                	c.mv	a2,s1
   1a314:	854e                	c.mv	a0,s3
   1a316:	44d2                	c.lwsp	s1,20(sp)
   1a318:	49b2                	c.lwsp	s3,12(sp)
   1a31a:	4689                	c.li	a3,2
   1a31c:	4581                	c.li	a1,0
   1a31e:	6105                	c.addi16sp	sp,32
   1a320:	a491                	c.j	1a564 <riscv_radix4_butterfly_q15>
	...

0001a324 <riscv_cfft_radix4by2_inverse_q15>:
   1a324:	1101                	c.addi	sp,-32
   1a326:	ca26                	c.swsp	s1,20(sp)
   1a328:	c84a                	c.swsp	s2,16(sp)
   1a32a:	c64e                	c.swsp	s3,12(sp)
   1a32c:	0015d913          	srli	s2,a1,0x1
   1a330:	00159993          	slli	s3,a1,0x1
   1a334:	ce06                	c.swsp	ra,28(sp)
   1a336:	cc22                	c.swsp	s0,24(sp)
   1a338:	84b2                	c.mv	s1,a2
   1a33a:	99aa                	c.add	s3,a0
   1a33c:	0c090c63          	beqz	s2,1a414 <riscv_cfft_radix4by2_inverse_q15+0xf0>
   1a340:	842a                	c.mv	s0,a0
   1a342:	884e                	c.mv	a6,s3
   1a344:	862a                	c.mv	a2,a0
   1a346:	8326                	c.mv	t1,s1
   1a348:	88ca                	c.mv	a7,s2
   1a34a:	4581                	c.li	a1,0
   1a34c:	00032783          	lw	a5,0(t1)
   1a350:	0311                	c.addi	t1,4
   1a352:	4218                	c.lw	a4,0(a2)
   1a354:	00b7077f          	radd16	a4,a4,a1
   1a358:	00082683          	lw	a3,0(a6)
   1a35c:	00b686ff          	radd16	a3,a3,a1
   1a360:	12d70e7f          	ksub16	t3,a4,a3
   1a364:	00d7077f          	radd16	a4,a4,a3
   1a368:	c218                	c.sw	a4,0(a2)
   1a36a:	0611                	c.addi	a2,4
   1a36c:	69c7977f          	smdrs	a4,a5,t3
   1a370:	3bc797ff          	kmxda	a5,a5,t3
   1a374:	8741                	c.srai	a4,0x10
   1a376:	3ee797ff          	pktb16	a5,a5,a4
   1a37a:	00f82023          	sw	a5,0(a6)
   1a37e:	18fd                	c.addi	a7,-1
   1a380:	0811                	c.addi	a6,4
   1a382:	fc0895e3          	bnez	a7,1a34c <riscv_cfft_radix4by2_inverse_q15+0x28>
   1a386:	4689                	c.li	a3,2
   1a388:	8626                	c.mv	a2,s1
   1a38a:	85ca                	c.mv	a1,s2
   1a38c:	8522                	c.mv	a0,s0
   1a38e:	21c9                	c.jal	1a850 <riscv_radix4_butterfly_inverse_q15>
   1a390:	854e                	c.mv	a0,s3
   1a392:	4689                	c.li	a3,2
   1a394:	8626                	c.mv	a2,s1
   1a396:	85ca                	c.mv	a1,s2
   1a398:	4b8000ef          	jal	ra,1a850 <riscv_radix4_butterfly_inverse_q15>
   1a39c:	00347793          	andi	a5,s0,3
   1a3a0:	8522                	c.mv	a0,s0
   1a3a2:	eb8d                	c.bnez	a5,1a3d4 <riscv_cfft_radix4by2_inverse_q15+0xb0>
   1a3a4:	00391593          	slli	a1,s2,0x3
   1a3a8:	008585b3          	add	a1,a1,s0
   1a3ac:	415c                	c.lw	a5,4(a0)
   1a3ae:	4118                	c.lw	a4,0(a0)
   1a3b0:	0521                	c.addi	a0,8
   1a3b2:	741787ff          	slli16	a5,a5,1
   1a3b6:	7417077f          	slli16	a4,a4,1
   1a3ba:	fee52c23          	sw	a4,-8(a0)
   1a3be:	fef52e23          	sw	a5,-4(a0)
   1a3c2:	feb515e3          	bne	a0,a1,1a3ac <riscv_cfft_radix4by2_inverse_q15+0x88>
   1a3c6:	40f2                	c.lwsp	ra,28(sp)
   1a3c8:	4462                	c.lwsp	s0,24(sp)
   1a3ca:	44d2                	c.lwsp	s1,20(sp)
   1a3cc:	4942                	c.lwsp	s2,16(sp)
   1a3ce:	49b2                	c.lwsp	s3,12(sp)
   1a3d0:	6105                	c.addi16sp	sp,32
   1a3d2:	8082                	c.jr	ra
   1a3d4:	090e                	c.slli	s2,0x3
   1a3d6:	9922                	c.add	s2,s0
   1a3d8:	00051603          	lh	a2,0(a0)
   1a3dc:	00451703          	lh	a4,4(a0)
   1a3e0:	00251683          	lh	a3,2(a0)
   1a3e4:	0606                	c.slli	a2,0x1
   1a3e6:	0706                	c.slli	a4,0x1
   1a3e8:	00651783          	lh	a5,6(a0)
   1a3ec:	00c51023          	sh	a2,0(a0)
   1a3f0:	00e51223          	sh	a4,4(a0)
   1a3f4:	0686                	c.slli	a3,0x1
   1a3f6:	0786                	c.slli	a5,0x1
   1a3f8:	00d51123          	sh	a3,2(a0)
   1a3fc:	00f51323          	sh	a5,6(a0)
   1a400:	0521                	c.addi	a0,8
   1a402:	fd251be3          	bne	a0,s2,1a3d8 <riscv_cfft_radix4by2_inverse_q15+0xb4>
   1a406:	40f2                	c.lwsp	ra,28(sp)
   1a408:	4462                	c.lwsp	s0,24(sp)
   1a40a:	44d2                	c.lwsp	s1,20(sp)
   1a40c:	4942                	c.lwsp	s2,16(sp)
   1a40e:	49b2                	c.lwsp	s3,12(sp)
   1a410:	6105                	c.addi16sp	sp,32
   1a412:	8082                	c.jr	ra
   1a414:	4689                	c.li	a3,2
   1a416:	4581                	c.li	a1,0
   1a418:	438000ef          	jal	ra,1a850 <riscv_radix4_butterfly_inverse_q15>
   1a41c:	4462                	c.lwsp	s0,24(sp)
   1a41e:	40f2                	c.lwsp	ra,28(sp)
   1a420:	4942                	c.lwsp	s2,16(sp)
   1a422:	8626                	c.mv	a2,s1
   1a424:	854e                	c.mv	a0,s3
   1a426:	44d2                	c.lwsp	s1,20(sp)
   1a428:	49b2                	c.lwsp	s3,12(sp)
   1a42a:	4689                	c.li	a3,2
   1a42c:	4581                	c.li	a1,0
   1a42e:	6105                	c.addi16sp	sp,32
   1a430:	a105                	c.j	1a850 <riscv_radix4_butterfly_inverse_q15>
	...

0001a434 <riscv_cfft_q15>:
   1a434:	1141                	c.addi	sp,-16
   1a436:	c422                	c.swsp	s0,8(sp)
   1a438:	c226                	c.swsp	s1,4(sp)
   1a43a:	c04a                	c.swsp	s2,0(sp)
   1a43c:	4705                	c.li	a4,1
   1a43e:	c606                	c.swsp	ra,12(sp)
   1a440:	00055783          	lhu	a5,0(a0)
   1a444:	842a                	c.mv	s0,a0
   1a446:	892e                	c.mv	s2,a1
   1a448:	84b6                	c.mv	s1,a3
   1a44a:	0ae60163          	beq	a2,a4,1a4ec <riscv_cfft_q15+0xb8>
   1a44e:	10000713          	li	a4,256
   1a452:	08e78563          	beq	a5,a4,1a4dc <riscv_cfft_q15+0xa8>
   1a456:	02f77563          	bgeu	a4,a5,1a480 <riscv_cfft_q15+0x4c>
   1a45a:	80078713          	addi	a4,a5,-2048
   1a45e:	c32d                	c.beqz	a4,1a4c0 <riscv_cfft_q15+0x8c>
   1a460:	6685                	c.lui	a3,0x1
   1a462:	80068693          	addi	a3,a3,-2048 # 800 <_ITB_BASE_+0x800>
   1a466:	6705                	c.lui	a4,0x1
   1a468:	06f6f263          	bgeu	a3,a5,1a4cc <riscv_cfft_q15+0x98>
   1a46c:	06e78863          	beq	a5,a4,1a4dc <riscv_cfft_q15+0xa8>
   1a470:	02049463          	bnez	s1,1a498 <riscv_cfft_q15+0x64>
   1a474:	40b2                	c.lwsp	ra,12(sp)
   1a476:	4422                	c.lwsp	s0,8(sp)
   1a478:	4492                	c.lwsp	s1,4(sp)
   1a47a:	4902                	c.lwsp	s2,0(sp)
   1a47c:	0141                	c.addi	sp,16
   1a47e:	8082                	c.jr	ra
   1a480:	04000713          	li	a4,64
   1a484:	04e78c63          	beq	a5,a4,1a4dc <riscv_cfft_q15+0xa8>
   1a488:	02f77463          	bgeu	a4,a5,1a4b0 <riscv_cfft_q15+0x7c>
   1a48c:	08000713          	li	a4,128
   1a490:	02e78863          	beq	a5,a4,1a4c0 <riscv_cfft_q15+0x8c>
   1a494:	fe0480e3          	beqz	s1,1a474 <riscv_cfft_q15+0x40>
   1a498:	00c45583          	lhu	a1,12(s0)
   1a49c:	4410                	c.lw	a2,8(s0)
   1a49e:	4422                	c.lwsp	s0,8(sp)
   1a4a0:	40b2                	c.lwsp	ra,12(sp)
   1a4a2:	4492                	c.lwsp	s1,4(sp)
   1a4a4:	854a                	c.mv	a0,s2
   1a4a6:	4902                	c.lwsp	s2,0(sp)
   1a4a8:	01010113          	addi	sp,sp,16
   1a4ac:	02d0006f          	j	1acd8 <riscv_bitreversal_16>
   1a4b0:	01000713          	li	a4,16
   1a4b4:	02e78463          	beq	a5,a4,1a4dc <riscv_cfft_q15+0xa8>
   1a4b8:	02000713          	li	a4,32
   1a4bc:	fae79ae3          	bne	a5,a4,1a470 <riscv_cfft_q15+0x3c>
   1a4c0:	4050                	c.lw	a2,4(s0)
   1a4c2:	85be                	c.mv	a1,a5
   1a4c4:	854a                	c.mv	a0,s2
   1a4c6:	33b9                	c.jal	1a214 <riscv_cfft_radix4by2_q15>
   1a4c8:	fa9ff06f          	j	1a470 <riscv_cfft_q15+0x3c>
   1a4cc:	20000713          	li	a4,512
   1a4d0:	fee788e3          	beq	a5,a4,1a4c0 <riscv_cfft_q15+0x8c>
   1a4d4:	40000713          	li	a4,1024
   1a4d8:	f8e79ce3          	bne	a5,a4,1a470 <riscv_cfft_q15+0x3c>
   1a4dc:	4050                	c.lw	a2,4(s0)
   1a4de:	4685                	c.li	a3,1
   1a4e0:	85be                	c.mv	a1,a5
   1a4e2:	854a                	c.mv	a0,s2
   1a4e4:	080000ef          	jal	ra,1a564 <riscv_radix4_butterfly_q15>
   1a4e8:	f89ff06f          	j	1a470 <riscv_cfft_q15+0x3c>
   1a4ec:	10000713          	li	a4,256
   1a4f0:	06e78263          	beq	a5,a4,1a554 <riscv_cfft_q15+0x120>
   1a4f4:	00f77e63          	bgeu	a4,a5,1a510 <riscv_cfft_q15+0xdc>
   1a4f8:	80078713          	addi	a4,a5,-2048
   1a4fc:	cf15                	c.beqz	a4,1a538 <riscv_cfft_q15+0x104>
   1a4fe:	6685                	c.lui	a3,0x1
   1a500:	80068693          	addi	a3,a3,-2048 # 800 <_ITB_BASE_+0x800>
   1a504:	6705                	c.lui	a4,0x1
   1a506:	02f6ff63          	bgeu	a3,a5,1a544 <riscv_cfft_q15+0x110>
   1a50a:	f6e793e3          	bne	a5,a4,1a470 <riscv_cfft_q15+0x3c>
   1a50e:	a099                	c.j	1a554 <riscv_cfft_q15+0x120>
   1a510:	04000713          	li	a4,64
   1a514:	04e78063          	beq	a5,a4,1a554 <riscv_cfft_q15+0x120>
   1a518:	00f77863          	bgeu	a4,a5,1a528 <riscv_cfft_q15+0xf4>
   1a51c:	08000713          	li	a4,128
   1a520:	00e78c63          	beq	a5,a4,1a538 <riscv_cfft_q15+0x104>
   1a524:	f4dff06f          	j	1a470 <riscv_cfft_q15+0x3c>
   1a528:	01000713          	li	a4,16
   1a52c:	02e78463          	beq	a5,a4,1a554 <riscv_cfft_q15+0x120>
   1a530:	02000713          	li	a4,32
   1a534:	f2e79ee3          	bne	a5,a4,1a470 <riscv_cfft_q15+0x3c>
   1a538:	4050                	c.lw	a2,4(s0)
   1a53a:	85be                	c.mv	a1,a5
   1a53c:	854a                	c.mv	a0,s2
   1a53e:	33dd                	c.jal	1a324 <riscv_cfft_radix4by2_inverse_q15>
   1a540:	f31ff06f          	j	1a470 <riscv_cfft_q15+0x3c>
   1a544:	20000713          	li	a4,512
   1a548:	fee788e3          	beq	a5,a4,1a538 <riscv_cfft_q15+0x104>
   1a54c:	40000713          	li	a4,1024
   1a550:	f2e790e3          	bne	a5,a4,1a470 <riscv_cfft_q15+0x3c>
   1a554:	4050                	c.lw	a2,4(s0)
   1a556:	4685                	c.li	a3,1
   1a558:	85be                	c.mv	a1,a5
   1a55a:	854a                	c.mv	a0,s2
   1a55c:	2f4000ef          	jal	ra,1a850 <riscv_radix4_butterfly_inverse_q15>
   1a560:	bf01                	c.j	1a470 <riscv_cfft_q15+0x3c>
	...

0001a564 <riscv_radix4_butterfly_q15>:
   1a564:	ffc5f313          	andi	t1,a1,-4
   1a568:	715d                	c.addi16sp	sp,-80
   1a56a:	00650e33          	add	t3,a0,t1
   1a56e:	8832                	c.mv	a6,a2
   1a570:	006e0f33          	add	t5,t3,t1
   1a574:	0025d613          	srli	a2,a1,0x2
   1a578:	c0ce                	c.swsp	s3,64(sp)
   1a57a:	49b1                	c.li	s3,12
   1a57c:	033689b3          	mul	s3,a3,s3
   1a580:	c6a2                	c.swsp	s0,76(sp)
   1a582:	c4a6                	c.swsp	s1,72(sp)
   1a584:	c2ca                	c.swsp	s2,68(sp)
   1a586:	de52                	c.swsp	s4,60(sp)
   1a588:	00269913          	slli	s2,a3,0x2
   1a58c:	00369a13          	slli	s4,a3,0x3
   1a590:	87aa                	c.mv	a5,a0
   1a592:	006f0eb3          	add	t4,t5,t1
   1a596:	84c2                	c.mv	s1,a6
   1a598:	8442                	c.mv	s0,a6
   1a59a:	83c2                	c.mv	t2,a6
   1a59c:	8faa                	c.mv	t6,a0
   1a59e:	82b2                	c.mv	t0,a2
   1a5a0:	4681                	c.li	a3,0
   1a5a2:	dc56                	c.swsp	s5,56(sp)
   1a5a4:	da5a                	c.swsp	s6,52(sp)
   1a5a6:	d85e                	c.swsp	s7,48(sp)
   1a5a8:	d662                	c.swsp	s8,44(sp)
   1a5aa:	d466                	c.swsp	s9,40(sp)
   1a5ac:	d26a                	c.swsp	s10,36(sp)
   1a5ae:	d06e                	c.swsp	s11,32(sp)
   1a5b0:	000fa703          	lw	a4,0(t6)
   1a5b4:	00d7077f          	radd16	a4,a4,a3
   1a5b8:	00d7077f          	radd16	a4,a4,a3
   1a5bc:	000f2883          	lw	a7,0(t5)
   1a5c0:	00d888ff          	radd16	a7,a7,a3
   1a5c4:	00d888ff          	radd16	a7,a7,a3
   1a5c8:	1117057f          	kadd16	a0,a4,a7
   1a5cc:	1317077f          	ksub16	a4,a4,a7
   1a5d0:	000e2883          	lw	a7,0(t3)
   1a5d4:	00d888ff          	radd16	a7,a7,a3
   1a5d8:	00d888ff          	radd16	a7,a7,a3
   1a5dc:	000eaa83          	lw	s5,0(t4)
   1a5e0:	00da8aff          	radd16	s5,s5,a3
   1a5e4:	00da8aff          	radd16	s5,s5,a3
   1a5e8:	115888ff          	kadd16	a7,a7,s5
   1a5ec:	01150aff          	radd16	s5,a0,a7
   1a5f0:	015fa023          	sw	s5,0(t6)
   1a5f4:	0f91                	c.addi	t6,4
   1a5f6:	1315057f          	ksub16	a0,a0,a7
   1a5fa:	0003a883          	lw	a7,0(t2)
   1a5fe:	38a89aff          	kmda	s5,a7,a0
   1a602:	7915157f          	smxds	a0,a0,a7
   1a606:	000e2883          	lw	a7,0(t3)
   1a60a:	00d888ff          	radd16	a7,a7,a3
   1a60e:	00d888ff          	radd16	a7,a7,a3
   1a612:	410ada93          	srai	s5,s5,0x10
   1a616:	3f55157f          	pktb16	a0,a0,s5
   1a61a:	00ae2023          	sw	a0,0(t3)
   1a61e:	0e11                	c.addi	t3,4
   1a620:	000ea503          	lw	a0,0(t4)
   1a624:	00d5057f          	radd16	a0,a0,a3
   1a628:	00d5057f          	radd16	a0,a0,a3
   1a62c:	12a8857f          	ksub16	a0,a7,a0
   1a630:	14a708ff          	kcras16	a7,a4,a0
   1a634:	16a7077f          	kcrsa16	a4,a4,a0
   1a638:	00042a83          	lw	s5,0(s0)
   1a63c:	38ea957f          	kmda	a0,s5,a4
   1a640:	7957177f          	smxds	a4,a4,s5
   1a644:	8541                	c.srai	a0,0x10
   1a646:	3ea7177f          	pktb16	a4,a4,a0
   1a64a:	00ef2023          	sw	a4,0(t5)
   1a64e:	0f11                	c.addi	t5,4
   1a650:	4098                	c.lw	a4,0(s1)
   1a652:	3917157f          	kmda	a0,a4,a7
   1a656:	78e8977f          	smxds	a4,a7,a4
   1a65a:	8541                	c.srai	a0,0x10
   1a65c:	3ea7177f          	pktb16	a4,a4,a0
   1a660:	00eea023          	sw	a4,0(t4)
   1a664:	12fd                	c.addi	t0,-1
   1a666:	0e91                	c.addi	t4,4
   1a668:	93d2                	c.add	t2,s4
   1a66a:	944a                	c.add	s0,s2
   1a66c:	94ce                	c.add	s1,s3
   1a66e:	f40291e3          	bnez	t0,1a5b0 <riscv_radix4_butterfly_q15+0x4c>
   1a672:	4711                	c.li	a4,4
   1a674:	854a                	c.mv	a0,s2
   1a676:	16c77563          	bgeu	a4,a2,1a7e0 <riscv_radix4_butterfly_q15+0x27c>
   1a67a:	0045d693          	srli	a3,a1,0x4
   1a67e:	fff68713          	addi	a4,a3,-1
   1a682:	ce3e                	c.swsp	a5,28(sp)
   1a684:	00269993          	slli	s3,a3,0x2
   1a688:	82b2                	c.mv	t0,a2
   1a68a:	4381                	c.li	t2,0
   1a68c:	8e32                	c.mv	t3,a2
   1a68e:	87b6                	c.mv	a5,a3
   1a690:	00e12c23          	sw	a4,24(sp)
   1a694:	88be                	c.mv	a7,a5
   1a696:	00f5f363          	bgeu	a1,a5,1a69c <riscv_radix4_butterfly_q15+0x138>
   1a69a:	88ae                	c.mv	a7,a1
   1a69c:	4731                	c.li	a4,12
   1a69e:	02e506b3          	mul	a3,a0,a4
   1a6a2:	4af2                	c.lwsp	s5,28(sp)
   1a6a4:	8c42                	c.mv	s8,a6
   1a6a6:	8bc2                	c.mv	s7,a6
   1a6a8:	8b42                	c.mv	s6,a6
   1a6aa:	8742                	c.mv	a4,a6
   1a6ac:	ca3e                	c.swsp	a5,20(sp)
   1a6ae:	00251c93          	slli	s9,a0,0x2
   1a6b2:	00351d13          	slli	s10,a0,0x3
   1a6b6:	4901                	c.li	s2,0
   1a6b8:	4a01                	c.li	s4,0
   1a6ba:	87f2                	c.mv	a5,t3
   1a6bc:	00d00833          	add	a6,zero,a3
   1a6c0:	000b2483          	lw	s1,0(s6)
   1a6c4:	000ba403          	lw	s0,0(s7)
   1a6c8:	000c2f83          	lw	t6,0(s8)
   1a6cc:	015986b3          	add	a3,s3,s5
   1a6d0:	00d98e33          	add	t3,s3,a3
   1a6d4:	9a2a                	c.add	s4,a0
   1a6d6:	8ed6                	c.mv	t4,s5
   1a6d8:	01c98633          	add	a2,s3,t3
   1a6dc:	8f4a                	c.mv	t5,s2
   1a6de:	c45e                	c.swsp	s7,8(sp)
   1a6e0:	c64e                	c.swsp	s3,12(sp)
   1a6e2:	c85a                	c.swsp	s6,16(sp)
   1a6e4:	000eab03          	lw	s6,0(t4)
   1a6e8:	000e2b83          	lw	s7,0(t3)
   1a6ec:	117b09ff          	kadd16	s3,s6,s7
   1a6f0:	137b0b7f          	ksub16	s6,s6,s7
   1a6f4:	0006ab83          	lw	s7,0(a3)
   1a6f8:	00062d83          	lw	s11,0(a2)
   1a6fc:	11bb8bff          	kadd16	s7,s7,s11
   1a700:	01798dff          	radd16	s11,s3,s7
   1a704:	007d8dff          	radd16	s11,s11,t2
   1a708:	01bea023          	sw	s11,0(t4)
   1a70c:	9e9a                	c.add	t4,t1
   1a70e:	037989ff          	rsub16	s3,s3,s7
   1a712:	39341bff          	kmda	s7,s0,s3
   1a716:	788999ff          	smxds	s3,s3,s0
   1a71a:	0006ad83          	lw	s11,0(a3)
   1a71e:	410bdb93          	srai	s7,s7,0x10
   1a722:	3f7999ff          	pktb16	s3,s3,s7
   1a726:	0136a023          	sw	s3,0(a3)
   1a72a:	969a                	c.add	a3,t1
   1a72c:	00062983          	lw	s3,0(a2)
   1a730:	133d89ff          	ksub16	s3,s11,s3
   1a734:	053b0bff          	rcras16	s7,s6,s3
   1a738:	073b09ff          	rcrsa16	s3,s6,s3
   1a73c:	39349b7f          	kmda	s6,s1,s3
   1a740:	789999ff          	smxds	s3,s3,s1
   1a744:	410b5b13          	srai	s6,s6,0x10
   1a748:	3f6999ff          	pktb16	s3,s3,s6
   1a74c:	013e2023          	sw	s3,0(t3)
   1a750:	9e1a                	c.add	t3,t1
   1a752:	397f99ff          	kmda	s3,t6,s7
   1a756:	79fb9bff          	smxds	s7,s7,t6
   1a75a:	4109d993          	srai	s3,s3,0x10
   1a75e:	3f3b9bff          	pktb16	s7,s7,s3
   1a762:	01762023          	sw	s7,0(a2)
   1a766:	9f16                	c.add	t5,t0
   1a768:	961a                	c.add	a2,t1
   1a76a:	f6bf6de3          	bltu	t5,a1,1a6e4 <riscv_radix4_butterfly_q15+0x180>
   1a76e:	4ba2                	c.lwsp	s7,8(sp)
   1a770:	4b42                	c.lwsp	s6,16(sp)
   1a772:	0905                	c.addi	s2,1
   1a774:	49b2                	c.lwsp	s3,12(sp)
   1a776:	9b66                	c.add	s6,s9
   1a778:	9bea                	c.add	s7,s10
   1a77a:	9c42                	c.add	s8,a6
   1a77c:	0a91                	c.addi	s5,4
   1a77e:	f51961e3          	bltu	s2,a7,1a6c0 <riscv_radix4_butterfly_q15+0x15c>
   1a782:	883a                	c.mv	a6,a4
   1a784:	4762                	c.lwsp	a4,24(sp)
   1a786:	8e3e                	c.mv	t3,a5
   1a788:	47d2                	c.lwsp	a5,20(sp)
   1a78a:	03276963          	bltu	a4,s2,1a7bc <riscv_radix4_butterfly_q15+0x258>
   1a78e:	002a1693          	slli	a3,s4,0x2
   1a792:	00d80333          	add	t1,a6,a3
   1a796:	4731                	c.li	a4,12
   1a798:	02e50533          	mul	a0,a0,a4
   1a79c:	00d308b3          	add	a7,t1,a3
   1a7a0:	4762                	c.lwsp	a4,24(sp)
   1a7a2:	96c6                	c.add	a3,a7
   1a7a4:	00032e83          	lw	t4,0(t1)
   1a7a8:	0008ae83          	lw	t4,0(a7)
   1a7ac:	0006ae83          	lw	t4,0(a3)
   1a7b0:	0905                	c.addi	s2,1
   1a7b2:	9366                	c.add	t1,s9
   1a7b4:	98ea                	c.add	a7,s10
   1a7b6:	96aa                	c.add	a3,a0
   1a7b8:	ff2776e3          	bgeu	a4,s2,1a7a4 <riscv_radix4_butterfly_q15+0x240>
   1a7bc:	4711                	c.li	a4,4
   1a7be:	8566                	c.mv	a0,s9
   1a7c0:	00f77e63          	bgeu	a4,a5,1a7dc <riscv_radix4_butterfly_q15+0x278>
   1a7c4:	0027d693          	srli	a3,a5,0x2
   1a7c8:	00279313          	slli	t1,a5,0x2
   1a7cc:	82be                	c.mv	t0,a5
   1a7ce:	fff68793          	addi	a5,a3,-1
   1a7d2:	cc3e                	c.swsp	a5,24(sp)
   1a7d4:	00269993          	slli	s3,a3,0x2
   1a7d8:	87b6                	c.mv	a5,a3
   1a7da:	bd6d                	c.j	1a694 <riscv_radix4_butterfly_q15+0x130>
   1a7dc:	47f2                	c.lwsp	a5,28(sp)
   1a7de:	8672                	c.mv	a2,t3
   1a7e0:	4398                	c.lw	a4,0(a5)
   1a7e2:	00478e93          	addi	t4,a5,4
   1a7e6:	000ea683          	lw	a3,0(t4)
   1a7ea:	00878313          	addi	t1,a5,8
   1a7ee:	00032e03          	lw	t3,0(t1)
   1a7f2:	00c78893          	addi	a7,a5,12
   1a7f6:	0008a503          	lw	a0,0(a7)
   1a7fa:	11c705ff          	kadd16	a1,a4,t3
   1a7fe:	10a6887f          	kadd16	a6,a3,a0
   1a802:	0105887f          	radd16	a6,a1,a6
   1a806:	0107a023          	sw	a6,0(a5)
   1a80a:	10a6887f          	kadd16	a6,a3,a0
   1a80e:	030585ff          	rsub16	a1,a1,a6
   1a812:	00bea023          	sw	a1,0(t4)
   1a816:	13c7077f          	ksub16	a4,a4,t3
   1a81a:	12a686ff          	ksub16	a3,a3,a0
   1a81e:	06d705ff          	rcrsa16	a1,a4,a3
   1a822:	00b32023          	sw	a1,0(t1)
   1a826:	04d7077f          	rcras16	a4,a4,a3
   1a82a:	00e8a023          	sw	a4,0(a7)
   1a82e:	167d                	c.addi	a2,-1
   1a830:	07c1                	c.addi	a5,16
   1a832:	f65d                	c.bnez	a2,1a7e0 <riscv_radix4_butterfly_q15+0x27c>
   1a834:	4436                	c.lwsp	s0,76(sp)
   1a836:	44a6                	c.lwsp	s1,72(sp)
   1a838:	4916                	c.lwsp	s2,68(sp)
   1a83a:	4986                	c.lwsp	s3,64(sp)
   1a83c:	5a72                	c.lwsp	s4,60(sp)
   1a83e:	5ae2                	c.lwsp	s5,56(sp)
   1a840:	5b52                	c.lwsp	s6,52(sp)
   1a842:	5bc2                	c.lwsp	s7,48(sp)
   1a844:	5c32                	c.lwsp	s8,44(sp)
   1a846:	5ca2                	c.lwsp	s9,40(sp)
   1a848:	5d12                	c.lwsp	s10,36(sp)
   1a84a:	5d82                	c.lwsp	s11,32(sp)
   1a84c:	6161                	c.addi16sp	sp,80
   1a84e:	8082                	c.jr	ra

0001a850 <riscv_radix4_butterfly_inverse_q15>:
   1a850:	ffc5f313          	andi	t1,a1,-4
   1a854:	715d                	c.addi16sp	sp,-80
   1a856:	006508b3          	add	a7,a0,t1
   1a85a:	8832                	c.mv	a6,a2
   1a85c:	00688eb3          	add	t4,a7,t1
   1a860:	0025d613          	srli	a2,a1,0x2
   1a864:	c2ca                	c.swsp	s2,68(sp)
   1a866:	4931                	c.li	s2,12
   1a868:	03268933          	mul	s2,a3,s2
   1a86c:	c6a2                	c.swsp	s0,76(sp)
   1a86e:	c4a6                	c.swsp	s1,72(sp)
   1a870:	c0ce                	c.swsp	s3,64(sp)
   1a872:	00269493          	slli	s1,a3,0x2
   1a876:	00369993          	slli	s3,a3,0x3
   1a87a:	87aa                	c.mv	a5,a0
   1a87c:	006e8e33          	add	t3,t4,t1
   1a880:	8442                	c.mv	s0,a6
   1a882:	83c2                	c.mv	t2,a6
   1a884:	82c2                	c.mv	t0,a6
   1a886:	8f2a                	c.mv	t5,a0
   1a888:	8fb2                	c.mv	t6,a2
   1a88a:	4681                	c.li	a3,0
   1a88c:	de52                	c.swsp	s4,60(sp)
   1a88e:	dc56                	c.swsp	s5,56(sp)
   1a890:	da5a                	c.swsp	s6,52(sp)
   1a892:	d85e                	c.swsp	s7,48(sp)
   1a894:	d662                	c.swsp	s8,44(sp)
   1a896:	d466                	c.swsp	s9,40(sp)
   1a898:	d26a                	c.swsp	s10,36(sp)
   1a89a:	d06e                	c.swsp	s11,32(sp)
   1a89c:	000f2703          	lw	a4,0(t5)
   1a8a0:	00d7077f          	radd16	a4,a4,a3
   1a8a4:	00d7077f          	radd16	a4,a4,a3
   1a8a8:	000ea503          	lw	a0,0(t4)
   1a8ac:	00d5057f          	radd16	a0,a0,a3
   1a8b0:	00d5057f          	radd16	a0,a0,a3
   1a8b4:	10a70a7f          	kadd16	s4,a4,a0
   1a8b8:	12a7077f          	ksub16	a4,a4,a0
   1a8bc:	0008a503          	lw	a0,0(a7)
   1a8c0:	00d5057f          	radd16	a0,a0,a3
   1a8c4:	00d5057f          	radd16	a0,a0,a3
   1a8c8:	000e2a83          	lw	s5,0(t3)
   1a8cc:	00da8aff          	radd16	s5,s5,a3
   1a8d0:	00da8aff          	radd16	s5,s5,a3
   1a8d4:	1155057f          	kadd16	a0,a0,s5
   1a8d8:	00aa0aff          	radd16	s5,s4,a0
   1a8dc:	015f2023          	sw	s5,0(t5)
   1a8e0:	0f11                	c.addi	t5,4
   1a8e2:	12aa0a7f          	ksub16	s4,s4,a0
   1a8e6:	0002a503          	lw	a0,0(t0)
   1a8ea:	69451aff          	smdrs	s5,a0,s4
   1a8ee:	3b451a7f          	kmxda	s4,a0,s4
   1a8f2:	0008a503          	lw	a0,0(a7)
   1a8f6:	00d5057f          	radd16	a0,a0,a3
   1a8fa:	00d5057f          	radd16	a0,a0,a3
   1a8fe:	410ada93          	srai	s5,s5,0x10
   1a902:	3f5a1a7f          	pktb16	s4,s4,s5
   1a906:	0148a023          	sw	s4,0(a7)
   1a90a:	0891                	c.addi	a7,4
   1a90c:	000e2a03          	lw	s4,0(t3)
   1a910:	00da0a7f          	radd16	s4,s4,a3
   1a914:	00da0a7f          	radd16	s4,s4,a3
   1a918:	1345057f          	ksub16	a0,a0,s4
   1a91c:	16a70a7f          	kcrsa16	s4,a4,a0
   1a920:	14a7077f          	kcras16	a4,a4,a0
   1a924:	0003a503          	lw	a0,0(t2)
   1a928:	68e51aff          	smdrs	s5,a0,a4
   1a92c:	3ae5177f          	kmxda	a4,a0,a4
   1a930:	410ad513          	srai	a0,s5,0x10
   1a934:	3ea7177f          	pktb16	a4,a4,a0
   1a938:	00eea023          	sw	a4,0(t4)
   1a93c:	0e91                	c.addi	t4,4
   1a93e:	4018                	c.lw	a4,0(s0)
   1a940:	6947157f          	smdrs	a0,a4,s4
   1a944:	3b47177f          	kmxda	a4,a4,s4
   1a948:	8541                	c.srai	a0,0x10
   1a94a:	3ea7177f          	pktb16	a4,a4,a0
   1a94e:	00ee2023          	sw	a4,0(t3)
   1a952:	1ffd                	c.addi	t6,-1
   1a954:	0e11                	c.addi	t3,4
   1a956:	92ce                	c.add	t0,s3
   1a958:	93a6                	c.add	t2,s1
   1a95a:	944a                	c.add	s0,s2
   1a95c:	f40f90e3          	bnez	t6,1a89c <riscv_radix4_butterfly_inverse_q15+0x4c>
   1a960:	4711                	c.li	a4,4
   1a962:	8526                	c.mv	a0,s1
   1a964:	16c77463          	bgeu	a4,a2,1aacc <riscv_radix4_butterfly_inverse_q15+0x27c>
   1a968:	0045d693          	srli	a3,a1,0x4
   1a96c:	fff68713          	addi	a4,a3,-1
   1a970:	ce3e                	c.swsp	a5,28(sp)
   1a972:	00269993          	slli	s3,a3,0x2
   1a976:	82b2                	c.mv	t0,a2
   1a978:	4381                	c.li	t2,0
   1a97a:	8e32                	c.mv	t3,a2
   1a97c:	87b6                	c.mv	a5,a3
   1a97e:	cc3a                	c.swsp	a4,24(sp)
   1a980:	88be                	c.mv	a7,a5
   1a982:	00f5f363          	bgeu	a1,a5,1a988 <riscv_radix4_butterfly_inverse_q15+0x138>
   1a986:	88ae                	c.mv	a7,a1
   1a988:	4731                	c.li	a4,12
   1a98a:	02e506b3          	mul	a3,a0,a4
   1a98e:	4af2                	c.lwsp	s5,28(sp)
   1a990:	8c42                	c.mv	s8,a6
   1a992:	8bc2                	c.mv	s7,a6
   1a994:	8b42                	c.mv	s6,a6
   1a996:	8742                	c.mv	a4,a6
   1a998:	ca3e                	c.swsp	a5,20(sp)
   1a99a:	00251c93          	slli	s9,a0,0x2
   1a99e:	00351d13          	slli	s10,a0,0x3
   1a9a2:	4901                	c.li	s2,0
   1a9a4:	4a01                	c.li	s4,0
   1a9a6:	87f2                	c.mv	a5,t3
   1a9a8:	00d00833          	add	a6,zero,a3
   1a9ac:	000b2483          	lw	s1,0(s6)
   1a9b0:	000ba403          	lw	s0,0(s7)
   1a9b4:	000c2f83          	lw	t6,0(s8)
   1a9b8:	015986b3          	add	a3,s3,s5
   1a9bc:	00d98e33          	add	t3,s3,a3
   1a9c0:	9a2a                	c.add	s4,a0
   1a9c2:	8ed6                	c.mv	t4,s5
   1a9c4:	01c98633          	add	a2,s3,t3
   1a9c8:	8f4a                	c.mv	t5,s2
   1a9ca:	c45e                	c.swsp	s7,8(sp)
   1a9cc:	c64e                	c.swsp	s3,12(sp)
   1a9ce:	c85a                	c.swsp	s6,16(sp)
   1a9d0:	000eab03          	lw	s6,0(t4)
   1a9d4:	000e2b83          	lw	s7,0(t3)
   1a9d8:	117b09ff          	kadd16	s3,s6,s7
   1a9dc:	137b0b7f          	ksub16	s6,s6,s7
   1a9e0:	0006ab83          	lw	s7,0(a3)
   1a9e4:	00062d83          	lw	s11,0(a2)
   1a9e8:	11bb8bff          	kadd16	s7,s7,s11
   1a9ec:	01798dff          	radd16	s11,s3,s7
   1a9f0:	007d8dff          	radd16	s11,s11,t2
   1a9f4:	01bea023          	sw	s11,0(t4)
   1a9f8:	9e9a                	c.add	t4,t1
   1a9fa:	037989ff          	rsub16	s3,s3,s7
   1a9fe:	69341bff          	smdrs	s7,s0,s3
   1aa02:	3b3419ff          	kmxda	s3,s0,s3
   1aa06:	0006ad83          	lw	s11,0(a3)
   1aa0a:	410bdb93          	srai	s7,s7,0x10
   1aa0e:	3f7999ff          	pktb16	s3,s3,s7
   1aa12:	0136a023          	sw	s3,0(a3)
   1aa16:	969a                	c.add	a3,t1
   1aa18:	00062983          	lw	s3,0(a2)
   1aa1c:	133d89ff          	ksub16	s3,s11,s3
   1aa20:	073b0bff          	rcrsa16	s7,s6,s3
   1aa24:	053b09ff          	rcras16	s3,s6,s3
   1aa28:	69349b7f          	smdrs	s6,s1,s3
   1aa2c:	3b3499ff          	kmxda	s3,s1,s3
   1aa30:	410b5b13          	srai	s6,s6,0x10
   1aa34:	3f6999ff          	pktb16	s3,s3,s6
   1aa38:	013e2023          	sw	s3,0(t3)
   1aa3c:	9e1a                	c.add	t3,t1
   1aa3e:	697f99ff          	smdrs	s3,t6,s7
   1aa42:	3b7f9bff          	kmxda	s7,t6,s7
   1aa46:	4109d993          	srai	s3,s3,0x10
   1aa4a:	3f3b9bff          	pktb16	s7,s7,s3
   1aa4e:	01762023          	sw	s7,0(a2)
   1aa52:	9f16                	c.add	t5,t0
   1aa54:	961a                	c.add	a2,t1
   1aa56:	f6bf6de3          	bltu	t5,a1,1a9d0 <riscv_radix4_butterfly_inverse_q15+0x180>
   1aa5a:	4ba2                	c.lwsp	s7,8(sp)
   1aa5c:	4b42                	c.lwsp	s6,16(sp)
   1aa5e:	0905                	c.addi	s2,1
   1aa60:	49b2                	c.lwsp	s3,12(sp)
   1aa62:	9b66                	c.add	s6,s9
   1aa64:	9bea                	c.add	s7,s10
   1aa66:	9c42                	c.add	s8,a6
   1aa68:	0a91                	c.addi	s5,4
   1aa6a:	f51961e3          	bltu	s2,a7,1a9ac <riscv_radix4_butterfly_inverse_q15+0x15c>
   1aa6e:	883a                	c.mv	a6,a4
   1aa70:	4762                	c.lwsp	a4,24(sp)
   1aa72:	8e3e                	c.mv	t3,a5
   1aa74:	47d2                	c.lwsp	a5,20(sp)
   1aa76:	03276963          	bltu	a4,s2,1aaa8 <riscv_radix4_butterfly_inverse_q15+0x258>
   1aa7a:	002a1693          	slli	a3,s4,0x2
   1aa7e:	00d80333          	add	t1,a6,a3
   1aa82:	4731                	c.li	a4,12
   1aa84:	02e50533          	mul	a0,a0,a4
   1aa88:	00d308b3          	add	a7,t1,a3
   1aa8c:	4762                	c.lwsp	a4,24(sp)
   1aa8e:	96c6                	c.add	a3,a7
   1aa90:	00032e83          	lw	t4,0(t1)
   1aa94:	0008ae83          	lw	t4,0(a7)
   1aa98:	0006ae83          	lw	t4,0(a3)
   1aa9c:	0905                	c.addi	s2,1
   1aa9e:	9366                	c.add	t1,s9
   1aaa0:	98ea                	c.add	a7,s10
   1aaa2:	96aa                	c.add	a3,a0
   1aaa4:	ff2776e3          	bgeu	a4,s2,1aa90 <riscv_radix4_butterfly_inverse_q15+0x240>
   1aaa8:	4711                	c.li	a4,4
   1aaaa:	8566                	c.mv	a0,s9
   1aaac:	00f77e63          	bgeu	a4,a5,1aac8 <riscv_radix4_butterfly_inverse_q15+0x278>
   1aab0:	0027d693          	srli	a3,a5,0x2
   1aab4:	00279313          	slli	t1,a5,0x2
   1aab8:	82be                	c.mv	t0,a5
   1aaba:	fff68793          	addi	a5,a3,-1
   1aabe:	cc3e                	c.swsp	a5,24(sp)
   1aac0:	00269993          	slli	s3,a3,0x2
   1aac4:	87b6                	c.mv	a5,a3
   1aac6:	bd6d                	c.j	1a980 <riscv_radix4_butterfly_inverse_q15+0x130>
   1aac8:	47f2                	c.lwsp	a5,28(sp)
   1aaca:	8672                	c.mv	a2,t3
   1aacc:	4398                	c.lw	a4,0(a5)
   1aace:	00478e93          	addi	t4,a5,4
   1aad2:	000ea683          	lw	a3,0(t4)
   1aad6:	00878313          	addi	t1,a5,8
   1aada:	00032e03          	lw	t3,0(t1)
   1aade:	00c78893          	addi	a7,a5,12
   1aae2:	0008a503          	lw	a0,0(a7)
   1aae6:	11c705ff          	kadd16	a1,a4,t3
   1aaea:	10a6887f          	kadd16	a6,a3,a0
   1aaee:	0105887f          	radd16	a6,a1,a6
   1aaf2:	0107a023          	sw	a6,0(a5)
   1aaf6:	10a6887f          	kadd16	a6,a3,a0
   1aafa:	030585ff          	rsub16	a1,a1,a6
   1aafe:	00bea023          	sw	a1,0(t4)
   1ab02:	13c7077f          	ksub16	a4,a4,t3
   1ab06:	12a686ff          	ksub16	a3,a3,a0
   1ab0a:	04d705ff          	rcras16	a1,a4,a3
   1ab0e:	00b32023          	sw	a1,0(t1)
   1ab12:	06d7077f          	rcrsa16	a4,a4,a3
   1ab16:	00e8a023          	sw	a4,0(a7)
   1ab1a:	167d                	c.addi	a2,-1
   1ab1c:	07c1                	c.addi	a5,16
   1ab1e:	f65d                	c.bnez	a2,1aacc <riscv_radix4_butterfly_inverse_q15+0x27c>
   1ab20:	4436                	c.lwsp	s0,76(sp)
   1ab22:	44a6                	c.lwsp	s1,72(sp)
   1ab24:	4916                	c.lwsp	s2,68(sp)
   1ab26:	4986                	c.lwsp	s3,64(sp)
   1ab28:	5a72                	c.lwsp	s4,60(sp)
   1ab2a:	5ae2                	c.lwsp	s5,56(sp)
   1ab2c:	5b52                	c.lwsp	s6,52(sp)
   1ab2e:	5bc2                	c.lwsp	s7,48(sp)
   1ab30:	5c32                	c.lwsp	s8,44(sp)
   1ab32:	5ca2                	c.lwsp	s9,40(sp)
   1ab34:	5d12                	c.lwsp	s10,36(sp)
   1ab36:	5d82                	c.lwsp	s11,32(sp)
   1ab38:	6161                	c.addi16sp	sp,80
   1ab3a:	8082                	c.jr	ra

0001ab3c <riscv_cfft_init_4096_q15>:
   1ab3c:	ffdf978b          	addigp	a5,-4 # 100f8 <riscv_cfft_sR_q15_len4096>
   1ab40:	00c7d683          	lhu	a3,12(a5)
   1ab44:	4798                	c.lw	a4,8(a5)
   1ab46:	43dc                	c.lw	a5,4(a5)
   1ab48:	6605                	c.lui	a2,0x1
   1ab4a:	00c51023          	sh	a2,0(a0)
   1ab4e:	00d51623          	sh	a3,12(a0)
   1ab52:	c15c                	c.sw	a5,4(a0)
   1ab54:	c518                	c.sw	a4,8(a0)
   1ab56:	4501                	c.li	a0,0
   1ab58:	8082                	c.jr	ra
	...

0001ab5c <riscv_cfft_init_2048_q15>:
   1ab5c:	00c0178b          	addigp	a5,12 # 10108 <riscv_cfft_sR_q15_len2048>
   1ab60:	00c7d683          	lhu	a3,12(a5)
   1ab64:	4798                	c.lw	a4,8(a5)
   1ab66:	6605                	c.lui	a2,0x1
   1ab68:	43dc                	c.lw	a5,4(a5)
   1ab6a:	80060613          	addi	a2,a2,-2048 # 800 <_ITB_BASE_+0x800>
   1ab6e:	00c51023          	sh	a2,0(a0)
   1ab72:	00d51623          	sh	a3,12(a0)
   1ab76:	c15c                	c.sw	a5,4(a0)
   1ab78:	c518                	c.sw	a4,8(a0)
   1ab7a:	4501                	c.li	a0,0
   1ab7c:	8082                	c.jr	ra
	...

0001ab80 <riscv_cfft_init_1024_q15>:
   1ab80:	01c0178b          	addigp	a5,28 # 10118 <riscv_cfft_sR_q15_len1024>
   1ab84:	00c7d683          	lhu	a3,12(a5)
   1ab88:	4798                	c.lw	a4,8(a5)
   1ab8a:	43dc                	c.lw	a5,4(a5)
   1ab8c:	40000613          	li	a2,1024
   1ab90:	00c51023          	sh	a2,0(a0)
   1ab94:	00d51623          	sh	a3,12(a0)
   1ab98:	c15c                	c.sw	a5,4(a0)
   1ab9a:	c518                	c.sw	a4,8(a0)
   1ab9c:	4501                	c.li	a0,0
   1ab9e:	8082                	c.jr	ra

0001aba0 <riscv_cfft_init_512_q15>:
   1aba0:	02c0178b          	addigp	a5,44 # 10128 <riscv_cfft_sR_q15_len512>
   1aba4:	00c7d683          	lhu	a3,12(a5)
   1aba8:	4798                	c.lw	a4,8(a5)
   1abaa:	43dc                	c.lw	a5,4(a5)
   1abac:	20000613          	li	a2,512
   1abb0:	00c51023          	sh	a2,0(a0)
   1abb4:	00d51623          	sh	a3,12(a0)
   1abb8:	c15c                	c.sw	a5,4(a0)
   1abba:	c518                	c.sw	a4,8(a0)
   1abbc:	4501                	c.li	a0,0
   1abbe:	8082                	c.jr	ra

0001abc0 <riscv_cfft_init_256_q15>:
   1abc0:	03c0178b          	addigp	a5,60 # 10138 <riscv_cfft_sR_q15_len256>
   1abc4:	00c7d683          	lhu	a3,12(a5)
   1abc8:	4798                	c.lw	a4,8(a5)
   1abca:	43dc                	c.lw	a5,4(a5)
   1abcc:	10000613          	li	a2,256
   1abd0:	00c51023          	sh	a2,0(a0)
   1abd4:	00d51623          	sh	a3,12(a0)
   1abd8:	c15c                	c.sw	a5,4(a0)
   1abda:	c518                	c.sw	a4,8(a0)
   1abdc:	4501                	c.li	a0,0
   1abde:	8082                	c.jr	ra

0001abe0 <riscv_cfft_init_128_q15>:
   1abe0:	04c0178b          	addigp	a5,76 # 10148 <riscv_cfft_sR_q15_len128>
   1abe4:	00c7d683          	lhu	a3,12(a5)
   1abe8:	4798                	c.lw	a4,8(a5)
   1abea:	43dc                	c.lw	a5,4(a5)
   1abec:	08000613          	li	a2,128
   1abf0:	00c51023          	sh	a2,0(a0)
   1abf4:	00d51623          	sh	a3,12(a0)
   1abf8:	c15c                	c.sw	a5,4(a0)
   1abfa:	c518                	c.sw	a4,8(a0)
   1abfc:	4501                	c.li	a0,0
   1abfe:	8082                	c.jr	ra

0001ac00 <riscv_cfft_init_64_q15>:
   1ac00:	05c0178b          	addigp	a5,92 # 10158 <riscv_cfft_sR_q15_len64>
   1ac04:	00c7d683          	lhu	a3,12(a5)
   1ac08:	4798                	c.lw	a4,8(a5)
   1ac0a:	43dc                	c.lw	a5,4(a5)
   1ac0c:	04000613          	li	a2,64
   1ac10:	00c51023          	sh	a2,0(a0)
   1ac14:	00d51623          	sh	a3,12(a0)
   1ac18:	c15c                	c.sw	a5,4(a0)
   1ac1a:	c518                	c.sw	a4,8(a0)
   1ac1c:	4501                	c.li	a0,0
   1ac1e:	8082                	c.jr	ra

0001ac20 <riscv_cfft_init_32_q15>:
   1ac20:	06c0178b          	addigp	a5,108 # 10168 <riscv_cfft_sR_q15_len32>
   1ac24:	00c7d683          	lhu	a3,12(a5)
   1ac28:	4798                	c.lw	a4,8(a5)
   1ac2a:	43dc                	c.lw	a5,4(a5)
   1ac2c:	02000613          	li	a2,32
   1ac30:	00c51023          	sh	a2,0(a0)
   1ac34:	00d51623          	sh	a3,12(a0)
   1ac38:	c15c                	c.sw	a5,4(a0)
   1ac3a:	c518                	c.sw	a4,8(a0)
   1ac3c:	4501                	c.li	a0,0
   1ac3e:	8082                	c.jr	ra

0001ac40 <riscv_cfft_init_16_q15>:
   1ac40:	07c0178b          	addigp	a5,124 # 10178 <riscv_cfft_sR_q15_len16>
   1ac44:	00c7d683          	lhu	a3,12(a5)
   1ac48:	4798                	c.lw	a4,8(a5)
   1ac4a:	43dc                	c.lw	a5,4(a5)
   1ac4c:	4641                	c.li	a2,16
   1ac4e:	00c51023          	sh	a2,0(a0)
   1ac52:	00d51623          	sh	a3,12(a0)
   1ac56:	c15c                	c.sw	a5,4(a0)
   1ac58:	c518                	c.sw	a4,8(a0)
   1ac5a:	4501                	c.li	a0,0
   1ac5c:	8082                	c.jr	ra
	...

0001ac60 <riscv_cfft_init_q15>:
   1ac60:	10000793          	li	a5,256
   1ac64:	04f58e63          	beq	a1,a5,1acc0 <riscv_cfft_init_q15+0x60>
   1ac68:	00b7fe63          	bgeu	a5,a1,1ac84 <riscv_cfft_init_q15+0x24>
   1ac6c:	80058793          	addi	a5,a1,-2048
   1ac70:	cbb1                	c.beqz	a5,1acc4 <riscv_cfft_init_q15+0x64>
   1ac72:	6705                	c.lui	a4,0x1
   1ac74:	80070713          	addi	a4,a4,-2048 # 800 <_ITB_BASE_+0x800>
   1ac78:	6785                	c.lui	a5,0x1
   1ac7a:	02b77163          	bgeu	a4,a1,1ac9c <riscv_cfft_init_q15+0x3c>
   1ac7e:	04f59563          	bne	a1,a5,1acc8 <riscv_cfft_init_q15+0x68>
   1ac82:	bd6d                	c.j	1ab3c <riscv_cfft_init_4096_q15>
   1ac84:	04000793          	li	a5,64
   1ac88:	04f58263          	beq	a1,a5,1accc <riscv_cfft_init_q15+0x6c>
   1ac8c:	02b7f263          	bgeu	a5,a1,1acb0 <riscv_cfft_init_q15+0x50>
   1ac90:	08000793          	li	a5,128
   1ac94:	02f59a63          	bne	a1,a5,1acc8 <riscv_cfft_init_q15+0x68>
   1ac98:	f49ff06f          	j	1abe0 <riscv_cfft_init_128_q15>
   1ac9c:	20000793          	li	a5,512
   1aca0:	02f58863          	beq	a1,a5,1acd0 <riscv_cfft_init_q15+0x70>
   1aca4:	40000793          	li	a5,1024
   1aca8:	02f59063          	bne	a1,a5,1acc8 <riscv_cfft_init_q15+0x68>
   1acac:	ed5ff06f          	j	1ab80 <riscv_cfft_init_1024_q15>
   1acb0:	47c1                	c.li	a5,16
   1acb2:	02f58163          	beq	a1,a5,1acd4 <riscv_cfft_init_q15+0x74>
   1acb6:	02000793          	li	a5,32
   1acba:	00f59763          	bne	a1,a5,1acc8 <riscv_cfft_init_q15+0x68>
   1acbe:	b78d                	c.j	1ac20 <riscv_cfft_init_32_q15>
   1acc0:	f01ff06f          	j	1abc0 <riscv_cfft_init_256_q15>
   1acc4:	e99ff06f          	j	1ab5c <riscv_cfft_init_2048_q15>
   1acc8:	557d                	c.li	a0,-1
   1acca:	8082                	c.jr	ra
   1accc:	f35ff06f          	j	1ac00 <riscv_cfft_init_64_q15>
   1acd0:	ed1ff06f          	j	1aba0 <riscv_cfft_init_512_q15>
   1acd4:	b7b5                	c.j	1ac40 <riscv_cfft_init_16_q15>
	...

0001acd8 <riscv_bitreversal_16>:
   1acd8:	cda1                	c.beqz	a1,1ad30 <riscv_bitreversal_16+0x58>
   1acda:	15fd                	c.addi	a1,-1
   1acdc:	8185                	c.srli	a1,0x1
   1acde:	00259813          	slli	a6,a1,0x2
   1ace2:	00460793          	addi	a5,a2,4
   1ace6:	983e                	c.add	a6,a5
   1ace8:	00265783          	lhu	a5,2(a2)
   1acec:	00065703          	lhu	a4,0(a2)
   1acf0:	0611                	c.addi	a2,4
   1acf2:	8389                	c.srli	a5,0x2
   1acf4:	0786                	c.slli	a5,0x1
   1acf6:	8309                	c.srli	a4,0x2
   1acf8:	00f506b3          	add	a3,a0,a5
   1acfc:	0706                	c.slli	a4,0x1
   1acfe:	0006d303          	lhu	t1,0(a3)
   1ad02:	00e505b3          	add	a1,a0,a4
   1ad06:	0005d883          	lhu	a7,0(a1)
   1ad0a:	0789                	c.addi	a5,2
   1ad0c:	00659023          	sh	t1,0(a1)
   1ad10:	97aa                	c.add	a5,a0
   1ad12:	0709                	c.addi	a4,2
   1ad14:	01169023          	sh	a7,0(a3)
   1ad18:	00a70733          	add	a4,a4,a0
   1ad1c:	0007d583          	lhu	a1,0(a5) # 1000 <_ITB_BASE_+0x1000>
   1ad20:	00075683          	lhu	a3,0(a4)
   1ad24:	00b71023          	sh	a1,0(a4)
   1ad28:	00d79023          	sh	a3,0(a5)
   1ad2c:	fac81ee3          	bne	a6,a2,1ace8 <riscv_bitreversal_16+0x10>
   1ad30:	8082                	c.jr	ra

0001ad32 <memset>:
   1ad32:	433d                	c.li	t1,15
   1ad34:	872a                	c.mv	a4,a0
   1ad36:	02c37363          	bgeu	t1,a2,1ad5c <memset+0x2a>
   1ad3a:	00f77793          	andi	a5,a4,15
   1ad3e:	efbd                	c.bnez	a5,1adbc <memset+0x8a>
   1ad40:	e5ad                	c.bnez	a1,1adaa <memset+0x78>
   1ad42:	ff067693          	andi	a3,a2,-16
   1ad46:	8a3d                	c.andi	a2,15
   1ad48:	96ba                	c.add	a3,a4
   1ad4a:	c30c                	c.sw	a1,0(a4)
   1ad4c:	c34c                	c.sw	a1,4(a4)
   1ad4e:	c70c                	c.sw	a1,8(a4)
   1ad50:	c74c                	c.sw	a1,12(a4)
   1ad52:	0741                	c.addi	a4,16
   1ad54:	fed76be3          	bltu	a4,a3,1ad4a <memset+0x18>
   1ad58:	e211                	c.bnez	a2,1ad5c <memset+0x2a>
   1ad5a:	8082                	c.jr	ra
   1ad5c:	40c306b3          	sub	a3,t1,a2
   1ad60:	068a                	c.slli	a3,0x2
   1ad62:	00000297          	auipc	t0,0x0
   1ad66:	9696                	c.add	a3,t0
   1ad68:	00a68067          	jr	10(a3)
   1ad6c:	00b70723          	sb	a1,14(a4)
   1ad70:	00b706a3          	sb	a1,13(a4)
   1ad74:	00b70623          	sb	a1,12(a4)
   1ad78:	00b705a3          	sb	a1,11(a4)
   1ad7c:	00b70523          	sb	a1,10(a4)
   1ad80:	00b704a3          	sb	a1,9(a4)
   1ad84:	00b70423          	sb	a1,8(a4)
   1ad88:	00b703a3          	sb	a1,7(a4)
   1ad8c:	00b70323          	sb	a1,6(a4)
   1ad90:	00b702a3          	sb	a1,5(a4)
   1ad94:	00b70223          	sb	a1,4(a4)
   1ad98:	00b701a3          	sb	a1,3(a4)
   1ad9c:	00b70123          	sb	a1,2(a4)
   1ada0:	00b700a3          	sb	a1,1(a4)
   1ada4:	00b70023          	sb	a1,0(a4)
   1ada8:	8082                	c.jr	ra
   1adaa:	0ff5f593          	andi	a1,a1,255
   1adae:	00859693          	slli	a3,a1,0x8
   1adb2:	8dd5                	c.or	a1,a3
   1adb4:	01059693          	slli	a3,a1,0x10
   1adb8:	8dd5                	c.or	a1,a3
   1adba:	b761                	c.j	1ad42 <memset+0x10>
   1adbc:	00279693          	slli	a3,a5,0x2
   1adc0:	00000297          	auipc	t0,0x0
   1adc4:	9696                	c.add	a3,t0
   1adc6:	8286                	c.mv	t0,ra
   1adc8:	fa8680e7          	jalr	-88(a3)
   1adcc:	8096                	c.mv	ra,t0
   1adce:	17c1                	c.addi	a5,-16
   1add0:	8f1d                	c.sub	a4,a5
   1add2:	963e                	c.add	a2,a5
   1add4:	f8c374e3          	bgeu	t1,a2,1ad5c <memset+0x2a>
   1add8:	b7a5                	c.j	1ad40 <memset+0xe>

0001adda <_exit>:
   1adda:	05d00893          	li	a7,93
   1adde:	01f01013          	slli	zero,zero,0x1f
   1ade2:	00100073          	ebreak
   1ade6:	40505013          	srai	zero,zero,0x5
   1adea:	00055663          	bgez	a0,1adf6 <_exit+0x1c>
   1adee:	40a00533          	neg	a0,a0
   1adf2:	16aac22b          	swgp	a0,53604 # 1d260 <_edata>
   1adf6:	a001                	c.j	1adf6 <_exit+0x1c>

0001adf8 <main>:
   1adf8:	711d                	c.addi16sp	sp,-96
   1adfa:	cca2                	c.swsp	s0,88(sp)
   1adfc:	caa6                	c.swsp	s1,84(sp)
   1adfe:	c8ca                	c.swsp	s2,80(sp)
   1ae00:	c6ce                	c.swsp	s3,76(sp)
   1ae02:	c4d2                	c.swsp	s4,72(sp)
   1ae04:	c2da                	c.swsp	s6,68(sp)
   1ae06:	fe22                	c.fswsp	fs0,60(sp)
   1ae08:	ce86                	c.swsp	ra,92(sp)
   1ae0a:	c0de                	c.swsp	s7,64(sp)
   1ae0c:	fc26                	c.fswsp	fs1,56(sp)
   1ae0e:	fa4a                	c.fswsp	fs2,52(sp)
   1ae10:	f84e                	c.fswsp	fs3,48(sp)
   1ae12:	f652                	c.fswsp	fs4,44(sp)
   1ae14:	81010113          	addi	sp,sp,-2032
   1ae18:	67e9                	c.lui	a5,0x1a
   1ae1a:	0800                	c.addi4spn	s0,sp,16
   1ae1c:	f687a407          	flw	fs0,-152(a5) # 19f68 <twiddleCoef_16_q15+0x48>
   1ae20:	8922                	c.mv	s2,s0
   1ae22:	f0000553          	fmv.w.x	fa0,zero
   1ae26:	4481                	c.li	s1,0
   1ae28:	20000b13          	li	s6,512
   1ae2c:	67d29a0b          	addigp	s4,40572 # 19f78 <twiddleCoef_16_q15+0x58>
   1ae30:	6852998b          	addigp	s3,40580 # 19f80 <twiddleCoef_16_q15+0x60>
   1ae34:	0280006f          	j	1ae5c <main+0x64>
   1ae38:	150000ef          	jal	ra,1af88 <__floatunsidf>
   1ae3c:	000a2603          	lw	a2,0(s4)
   1ae40:	004a2683          	lw	a3,4(s4)
   1ae44:	1a8000ef          	jal	ra,1afec <__muldf3>
   1ae48:	0009a603          	lw	a2,0(s3)
   1ae4c:	0049a683          	lw	a3,4(s3)
   1ae50:	19c000ef          	jal	ra,1afec <__muldf3>
   1ae54:	7e4000ef          	jal	ra,1b638 <__truncdfsf2>
   1ae58:	3f1000ef          	jal	ra,1ba48 <sinf>
   1ae5c:	10857553          	fmul.s	fa0,fa0,fs0
   1ae60:	00091123          	sh	zero,2(s2)
   1ae64:	0911                	c.addi	s2,4
   1ae66:	0485                	c.addi	s1,1
   1ae68:	00900533          	add	a0,zero,s1
   1ae6c:	c00517d3          	fcvt.w.s	a5,fa0,rtz
   1ae70:	fef91e23          	sh	a5,-4(s2)
   1ae74:	fd6492e3          	bne	s1,s6,1ae38 <main+0x40>
   1ae78:	6c92950b          	addigp	a0,40648 # 19fc4 <twiddleCoef_16_q15+0xa4>
   1ae7c:	659000ef          	jal	ra,1bcd4 <puts>
   1ae80:	6685                	c.lui	a3,0x1
   1ae82:	74fd                	c.lui	s1,0xfffff
   1ae84:	81068693          	addi	a3,a3,-2032 # 810 <_ITB_BASE_+0x810>
   1ae88:	968a                	c.add	a3,sp
   1ae8a:	7f048493          	addi	s1,s1,2032 # fffff7f0 <_stack+0xfcfff7f0>
   1ae8e:	94b6                	c.add	s1,a3
   1ae90:	20000593          	li	a1,512
   1ae94:	8526                	c.mv	a0,s1
   1ae96:	33e9                	c.jal	1ac60 <riscv_cfft_init_q15>
   1ae98:	6952950b          	addigp	a0,40596 # 19f90 <twiddleCoef_16_q15+0x70>
   1ae9c:	639000ef          	jal	ra,1bcd4 <puts>
   1aea0:	c0002973          	rdcycle	s2
   1aea4:	4685                	c.li	a3,1
   1aea6:	4601                	c.li	a2,0
   1aea8:	080c                	c.addi4spn	a1,sp,16
   1aeaa:	8526                	c.mv	a0,s1
   1aeac:	d88ff0ef          	jal	ra,1a434 <riscv_cfft_q15>
   1aeb0:	c0002773          	rdcycle	a4
   1aeb4:	66e9                	c.lui	a3,0x1a
   1aeb6:	f546a987          	flw	fs3,-172(a3) # 19f54 <twiddleCoef_16_q15+0x34>
   1aeba:	66e9                	c.lui	a3,0x1a
   1aebc:	f586a407          	flw	fs0,-168(a3) # 19f58 <twiddleCoef_16_q15+0x38>
   1aec0:	21398a53          	fmv.s	fs4,fs3
   1aec4:	412709b3          	sub	s3,a4,s2
   1aec8:	00000a13          	li	s4,0
   1aecc:	f0000953          	fmv.w.x	fs2,zero
   1aed0:	20000493          	li	s1,512
   1aed4:	00241703          	lh	a4,2(s0)
   1aed8:	00041783          	lh	a5,0(s0)
   1aedc:	d00777d3          	fcvt.s.w	fa5,a4
   1aee0:	0411                	c.addi	s0,4
   1aee2:	d007f553          	fcvt.s.w	fa0,a5
   1aee6:	1087f7d3          	fmul.s	fa5,fa5,fs0
   1aeea:	10857553          	fmul.s	fa0,fa0,fs0
   1aeee:	10f7f7d3          	fmul.s	fa5,fa5,fa5
   1aef2:	78a57543          	fmadd.s	fa0,fa0,fa0,fa5
   1aef6:	001025f3          	frflags	a1
   1aefa:	a12517d3          	flt.s	a5,fa0,fs2
   1aefe:	00159073          	fsflags	a1
   1af02:	580574d3          	fsqrt.s	fs1,fa0
   1af06:	e3ad                	c.bnez	a5,1af68 <main+0x170>
   1af08:	20948553          	fmv.s	fa0,fs1
   1af0c:	22d000ef          	jal	ra,1b938 <__extendsfdf2>
   1af10:	8b2a                	c.mv	s6,a0
   1af12:	8bae                	c.mv	s7,a1
   1af14:	d00a7553          	fcvt.s.w	fa0,s4
   1af18:	001a0a13          	addi	s4,s4,1
   1af1c:	11357553          	fmul.s	fa0,fa0,fs3
   1af20:	219000ef          	jal	ra,1b938 <__extendsfdf2>
   1af24:	875a                	c.mv	a4,s6
   1af26:	862a                	c.mv	a2,a0
   1af28:	87de                	c.mv	a5,s7
   1af2a:	86ae                	c.mv	a3,a1
   1af2c:	6e92950b          	addigp	a0,40680 # 19fe4 <twiddleCoef_16_q15+0xc4>
   1af30:	6b5000ef          	jal	ra,1bde4 <printf>
   1af34:	fa9a10e3          	bne	s4,s1,1aed4 <main+0xdc>
   1af38:	013005b3          	add	a1,zero,s3
   1af3c:	6a92950b          	addigp	a0,40616 # 19fa4 <twiddleCoef_16_q15+0x84>
   1af40:	6a5000ef          	jal	ra,1bde4 <printf>
   1af44:	7f010113          	addi	sp,sp,2032
   1af48:	40f6                	c.lwsp	ra,92(sp)
   1af4a:	4501                	c.li	a0,0
   1af4c:	4466                	c.lwsp	s0,88(sp)
   1af4e:	44d6                	c.lwsp	s1,84(sp)
   1af50:	4946                	c.lwsp	s2,80(sp)
   1af52:	49b6                	c.lwsp	s3,76(sp)
   1af54:	4a26                	c.lwsp	s4,72(sp)
   1af56:	4b16                	c.lwsp	s6,68(sp)
   1af58:	4b86                	c.lwsp	s7,64(sp)
   1af5a:	7472                	c.flwsp	fs0,60(sp)
   1af5c:	74e2                	c.flwsp	fs1,56(sp)
   1af5e:	7952                	c.flwsp	fs2,52(sp)
   1af60:	79c2                	c.flwsp	fs3,48(sp)
   1af62:	7a32                	c.flwsp	fs4,44(sp)
   1af64:	6125                	c.addi16sp	sp,96
   1af66:	8082                	c.jr	ra
   1af68:	16d010ef          	jal	ra,1c8d4 <sqrtf>
   1af6c:	20948553          	fmv.s	fa0,fs1
   1af70:	1c9000ef          	jal	ra,1b938 <__extendsfdf2>
   1af74:	d00a7553          	fcvt.s.w	fa0,s4
   1af78:	8b2a                	c.mv	s6,a0
   1af7a:	8bae                	c.mv	s7,a1
   1af7c:	0a05                	c.addi	s4,1
   1af7e:	11457553          	fmul.s	fa0,fa0,fs4
   1af82:	bf79                	c.j	1af20 <main+0x128>
   1af84:	0001                	c.nop
	...

0001af88 <__floatunsidf>:
   1af88:	cd31                	c.beqz	a0,1afe4 <__floatunsidf+0x5c>
   1af8a:	af9506ff          	clz32	a3,a0
   1af8e:	41e00793          	li	a5,1054
   1af92:	8f95                	c.sub	a5,a3
   1af94:	4729                	c.li	a4,10
   1af96:	7ff7f793          	andi	a5,a5,2047
   1af9a:	02d75b63          	bge	a4,a3,1afd0 <__floatunsidf+0x48>
   1af9e:	ff568713          	addi	a4,a3,-11
   1afa2:	00e51733          	sll	a4,a0,a4
   1afa6:	4c07275b          	bfoz	a4,a4,19,0
   1afaa:	4681                	c.li	a3,0
   1afac:	4581                	c.li	a1,0
   1afae:	8536                	c.mv	a0,a3
   1afb0:	fff006b7          	lui	a3,0xfff00
   1afb4:	8eed                	c.and	a3,a1
   1afb6:	4c07275b          	bfoz	a4,a4,19,0
   1afba:	8f55                	c.or	a4,a3
   1afbc:	01479693          	slli	a3,a5,0x14
   1afc0:	801007b7          	lui	a5,0x80100
   1afc4:	17fd                	c.addi	a5,-1
   1afc6:	8ff9                	c.and	a5,a4
   1afc8:	8fd5                	c.or	a5,a3
   1afca:	7807a5db          	bfoz	a1,a5,30,0
   1afce:	8082                	c.jr	ra
   1afd0:	472d                	c.li	a4,11
   1afd2:	8f15                	c.sub	a4,a3
   1afd4:	00e55733          	srl	a4,a0,a4
   1afd8:	06d5                	c.addi	a3,21
   1afda:	00d516b3          	sll	a3,a0,a3
   1afde:	4c07275b          	bfoz	a4,a4,19,0
   1afe2:	b7e9                	c.j	1afac <__floatunsidf+0x24>
   1afe4:	4781                	c.li	a5,0
   1afe6:	4701                	c.li	a4,0
   1afe8:	4681                	c.li	a3,0
   1afea:	b7c9                	c.j	1afac <__floatunsidf+0x24>

0001afec <__muldf3>:
   1afec:	1101                	c.addi	sp,-32
   1afee:	ce22                	c.swsp	s0,28(sp)
   1aff0:	cc26                	c.swsp	s1,24(sp)
   1aff2:	ca4a                	c.swsp	s2,20(sp)
   1aff4:	c84e                	c.swsp	s3,16(sp)
   1aff6:	c652                	c.swsp	s4,12(sp)
   1aff8:	c456                	c.swsp	s5,8(sp)
   1affa:	c25a                	c.swsp	s6,4(sp)
   1affc:	00202373          	frrm	t1
   1b000:	7945a75b          	bfoz	a4,a1,30,20
   1b004:	4c05a7db          	bfoz	a5,a1,19,0
   1b008:	81fd                	c.srli	a1,0x1f
   1b00a:	10070963          	beqz	a4,1b11c <__muldf3+0x130>
   1b00e:	7ff00813          	li	a6,2047
   1b012:	07070963          	beq	a4,a6,1b084 <__muldf3+0x98>
   1b016:	00800837          	lui	a6,0x800
   1b01a:	078e                	c.slli	a5,0x3
   1b01c:	01d55293          	srli	t0,a0,0x1d
   1b020:	0107e7b3          	or	a5,a5,a6
   1b024:	c0170e13          	addi	t3,a4,-1023
   1b028:	00f2e2b3          	or	t0,t0,a5
   1b02c:	050e                	c.slli	a0,0x3
   1b02e:	4701                	c.li	a4,0
   1b030:	4381                	c.li	t2,0
   1b032:	4801                	c.li	a6,0
   1b034:	7946a8db          	bfoz	a7,a3,30,20
   1b038:	4c06a7db          	bfoz	a5,a3,19,0
   1b03c:	01f6d693          	srli	a3,a3,0x1f
   1b040:	12088a63          	beqz	a7,1b174 <__muldf3+0x188>
   1b044:	7ff00e93          	li	t4,2047
   1b048:	17d88a63          	beq	a7,t4,1b1bc <__muldf3+0x1d0>
   1b04c:	00800f37          	lui	t5,0x800
   1b050:	078e                	c.slli	a5,0x3
   1b052:	01d65e93          	srli	t4,a2,0x1d
   1b056:	01e7e7b3          	or	a5,a5,t5
   1b05a:	c0188893          	addi	a7,a7,-1023
   1b05e:	00fee7b3          	or	a5,t4,a5
   1b062:	060e                	c.slli	a2,0x3
   1b064:	9e46                	c.add	t3,a7
   1b066:	4f01                	c.li	t5,0
   1b068:	48bd                	c.li	a7,15
   1b06a:	00d5ceb3          	xor	t4,a1,a3
   1b06e:	001e0f93          	addi	t6,t3,1
   1b072:	16e8e363          	bltu	a7,a4,1b1d8 <__muldf3+0x1ec>
   1b076:	6f52988b          	addigp	a7,40692 # 19ff0 <twiddleCoef_16_q15+0xd0>
   1b07a:	0ce8875b          	lea.w	a4,a7,a4
   1b07e:	4318                	c.lw	a4,0(a4)
   1b080:	00070067          	jr	a4
   1b084:	00a7e2b3          	or	t0,a5,a0
   1b088:	32028263          	beqz	t0,1b3ac <__muldf3+0x3c0>
   1b08c:	0137d713          	srli	a4,a5,0x13
   1b090:	82be                	c.mv	t0,a5
   1b092:	46070563          	beqz	a4,1b4fc <__muldf3+0x510>
   1b096:	4731                	c.li	a4,12
   1b098:	7ff00e13          	li	t3,2047
   1b09c:	438d                	c.li	t2,3
   1b09e:	4801                	c.li	a6,0
   1b0a0:	f95ff06f          	j	1b034 <__muldf3+0x48>
   1b0a4:	00d00eb3          	add	t4,zero,a3
   1b0a8:	062f605b          	bnec	t5,2,1b108 <__muldf3+0x11c>
   1b0ac:	88f6                	c.mv	a7,t4
   1b0ae:	7ff00713          	li	a4,2047
   1b0b2:	4781                	c.li	a5,0
   1b0b4:	00000613          	li	a2,0
   1b0b8:	4581                	c.li	a1,0
   1b0ba:	fff006b7          	lui	a3,0xfff00
   1b0be:	8eed                	c.and	a3,a1
   1b0c0:	4c07a7db          	bfoz	a5,a5,19,0
   1b0c4:	8fd5                	c.or	a5,a3
   1b0c6:	01471693          	slli	a3,a4,0x14
   1b0ca:	80100737          	lui	a4,0x80100
   1b0ce:	177d                	c.addi	a4,-1
   1b0d0:	8f7d                	c.and	a4,a5
   1b0d2:	8f55                	c.or	a4,a3
   1b0d4:	08fe                	c.slli	a7,0x1f
   1b0d6:	7807275b          	bfoz	a4,a4,30,0
   1b0da:	8532                	c.mv	a0,a2
   1b0dc:	011765b3          	or	a1,a4,a7
   1b0e0:	3e081e63          	bnez	a6,1b4dc <__muldf3+0x4f0>
   1b0e4:	4472                	c.lwsp	s0,28(sp)
   1b0e6:	44e2                	c.lwsp	s1,24(sp)
   1b0e8:	4952                	c.lwsp	s2,20(sp)
   1b0ea:	49c2                	c.lwsp	s3,16(sp)
   1b0ec:	4a32                	c.lwsp	s4,12(sp)
   1b0ee:	4aa2                	c.lwsp	s5,8(sp)
   1b0f0:	4b12                	c.lwsp	s6,4(sp)
   1b0f2:	6105                	c.addi16sp	sp,32
   1b0f4:	00008067          	ret
   1b0f8:	00b00eb3          	add	t4,zero,a1
   1b0fc:	8f1e                	c.mv	t5,t2
   1b0fe:	8796                	c.mv	a5,t0
   1b100:	00a00633          	add	a2,zero,a0
   1b104:	ba2f545b          	beqc	t5,2,1b0ac <__muldf3+0xc0>
   1b108:	363f525b          	beqc	t5,3,1b46c <__muldf3+0x480>
   1b10c:	221f685b          	bnec	t5,1,1b33c <__muldf3+0x350>
   1b110:	88f6                	c.mv	a7,t4
   1b112:	4701                	c.li	a4,0
   1b114:	4781                	c.li	a5,0
   1b116:	4601                	c.li	a2,0
   1b118:	fa1ff06f          	j	1b0b8 <__muldf3+0xcc>
   1b11c:	00a7e2b3          	or	t0,a5,a0
   1b120:	28028063          	beqz	t0,1b3a0 <__muldf3+0x3b4>
   1b124:	af97877f          	clz32	a4,a5
   1b128:	00079663          	bnez	a5,1b134 <__muldf3+0x148>
   1b12c:	af95077f          	clz32	a4,a0
   1b130:	02070713          	addi	a4,a4,32 # 80100020 <_stack+0x7d100020>
   1b134:	ff570893          	addi	a7,a4,-11
   1b138:	4871                	c.li	a6,28
   1b13a:	3b184b63          	blt	a6,a7,1b4f0 <__muldf3+0x504>
   1b13e:	42f5                	c.li	t0,29
   1b140:	ff870813          	addi	a6,a4,-8
   1b144:	411282b3          	sub	t0,t0,a7
   1b148:	005552b3          	srl	t0,a0,t0
   1b14c:	010797b3          	sll	a5,a5,a6
   1b150:	00f2e2b3          	or	t0,t0,a5
   1b154:	01051533          	sll	a0,a0,a6
   1b158:	c0d00e13          	li	t3,-1011
   1b15c:	7946a8db          	bfoz	a7,a3,30,20
   1b160:	40ee0e33          	sub	t3,t3,a4
   1b164:	4c06a7db          	bfoz	a5,a3,19,0
   1b168:	4701                	c.li	a4,0
   1b16a:	4381                	c.li	t2,0
   1b16c:	4801                	c.li	a6,0
   1b16e:	82fd                	c.srli	a3,0x1f
   1b170:	ec089ae3          	bnez	a7,1b044 <__muldf3+0x58>
   1b174:	00c7e8b3          	or	a7,a5,a2
   1b178:	24088263          	beqz	a7,1b3bc <__muldf3+0x3d0>
   1b17c:	af9788ff          	clz32	a7,a5
   1b180:	00079663          	bnez	a5,1b18c <__muldf3+0x1a0>
   1b184:	af9608ff          	clz32	a7,a2
   1b188:	02088893          	addi	a7,a7,32
   1b18c:	ff588f93          	addi	t6,a7,-11
   1b190:	4ef1                	c.li	t4,28
   1b192:	35fec963          	blt	t4,t6,1b4e4 <__muldf3+0x4f8>
   1b196:	4ef5                	c.li	t4,29
   1b198:	ff888f13          	addi	t5,a7,-8
   1b19c:	41fe8eb3          	sub	t4,t4,t6
   1b1a0:	01d65eb3          	srl	t4,a2,t4
   1b1a4:	01e797b3          	sll	a5,a5,t5
   1b1a8:	00fee7b3          	or	a5,t4,a5
   1b1ac:	01e61633          	sll	a2,a2,t5
   1b1b0:	411e0e33          	sub	t3,t3,a7
   1b1b4:	c0de0e13          	addi	t3,t3,-1011
   1b1b8:	4f01                	c.li	t5,0
   1b1ba:	b57d                	c.j	1b068 <__muldf3+0x7c>
   1b1bc:	00c7e8b3          	or	a7,a5,a2
   1b1c0:	7ffe0e13          	addi	t3,t3,2047
   1b1c4:	20088263          	beqz	a7,1b3c8 <__muldf3+0x3dc>
   1b1c8:	00376713          	ori	a4,a4,3
   1b1cc:	4f0d                	c.li	t5,3
   1b1ce:	e937fd5b          	bbs	a5,19,1b068 <__muldf3+0x7c>
   1b1d2:	4841                	c.li	a6,16
   1b1d4:	e95ff06f          	j	1b068 <__muldf3+0x7c>
   1b1d8:	6f41                	c.lui	t5,0x10
   1b1da:	ffff0713          	addi	a4,t5,-1 # ffff <_ITB_BASE_+0xffff>
   1b1de:	00e678b3          	and	a7,a2,a4
   1b1e2:	01055393          	srli	t2,a0,0x10
   1b1e6:	031385b3          	mul	a1,t2,a7
   1b1ea:	8d79                	c.and	a0,a4
   1b1ec:	01065913          	srli	s2,a2,0x10
   1b1f0:	02a886b3          	mul	a3,a7,a0
   1b1f4:	862e                	c.mv	a2,a1
   1b1f6:	c4a9167f          	maddr32	a2,s2,a0
   1b1fa:	03238733          	mul	a4,t2,s2
   1b1fe:	0106d413          	srli	s0,a3,0x10
   1b202:	9432                	c.add	s0,a2
   1b204:	00b47463          	bgeu	s0,a1,1b20c <__muldf3+0x220>
   1b208:	01e70733          	add	a4,a4,t5
   1b20c:	6b41                	c.lui	s6,0x10
   1b20e:	fffb0f13          	addi	t5,s6,-1 # ffff <_ITB_BASE_+0xffff>
   1b212:	01e7f5b3          	and	a1,a5,t5
   1b216:	02b38a33          	mul	s4,t2,a1
   1b21a:	0107d993          	srli	s3,a5,0x10
   1b21e:	01e47633          	and	a2,s0,t5
   1b222:	01e6f6b3          	and	a3,a3,t5
   1b226:	0642                	c.slli	a2,0x10
   1b228:	00d60f33          	add	t5,a2,a3
   1b22c:	02b50ab3          	mul	s5,a0,a1
   1b230:	01045493          	srli	s1,s0,0x10
   1b234:	87d2                	c.mv	a5,s4
   1b236:	c4a997ff          	maddr32	a5,s3,a0
   1b23a:	033383b3          	mul	t2,t2,s3
   1b23e:	010ad693          	srli	a3,s5,0x10
   1b242:	96be                	c.add	a3,a5
   1b244:	0146f463          	bgeu	a3,s4,1b24c <__muldf3+0x260>
   1b248:	016383b3          	add	t2,t2,s6
   1b24c:	6b41                	c.lui	s6,0x10
   1b24e:	fffb0413          	addi	s0,s6,-1 # ffff <_ITB_BASE_+0xffff>
   1b252:	0102da13          	srli	s4,t0,0x10
   1b256:	0082f7b3          	and	a5,t0,s0
   1b25a:	031a02b3          	mul	t0,s4,a7
   1b25e:	0086f633          	and	a2,a3,s0
   1b262:	82c1                	c.srli	a3,0x10
   1b264:	93b6                	c.add	t2,a3
   1b266:	0642                	c.slli	a2,0x10
   1b268:	008afab3          	and	s5,s5,s0
   1b26c:	02f888b3          	mul	a7,a7,a5
   1b270:	01560433          	add	s0,a2,s5
   1b274:	94a2                	c.add	s1,s0
   1b276:	8696                	c.mv	a3,t0
   1b278:	c4f916ff          	maddr32	a3,s2,a5
   1b27c:	03490633          	mul	a2,s2,s4
   1b280:	0108d513          	srli	a0,a7,0x10
   1b284:	9536                	c.add	a0,a3
   1b286:	00557363          	bgeu	a0,t0,1b28c <__muldf3+0x2a0>
   1b28a:	965a                	c.add	a2,s6
   1b28c:	02ba0ab3          	mul	s5,s4,a1
   1b290:	6b41                	c.lui	s6,0x10
   1b292:	fffb0293          	addi	t0,s6,-1 # ffff <_ITB_BASE_+0xffff>
   1b296:	005576b3          	and	a3,a0,t0
   1b29a:	06c2                	c.slli	a3,0x10
   1b29c:	0058f8b3          	and	a7,a7,t0
   1b2a0:	02b78933          	mul	s2,a5,a1
   1b2a4:	98b6                	c.add	a7,a3
   1b2a6:	8141                	c.srli	a0,0x10
   1b2a8:	9532                	c.add	a0,a2
   1b2aa:	85d6                	c.mv	a1,s5
   1b2ac:	c4f995ff          	maddr32	a1,s3,a5
   1b2b0:	034982b3          	mul	t0,s3,s4
   1b2b4:	01095693          	srli	a3,s2,0x10
   1b2b8:	00b687b3          	add	a5,a3,a1
   1b2bc:	0157f463          	bgeu	a5,s5,1b2c4 <__muldf3+0x2d8>
   1b2c0:	016282b3          	add	t0,t0,s6
   1b2c4:	65c1                	c.lui	a1,0x10
   1b2c6:	15fd                	c.addi	a1,-1
   1b2c8:	00b7f6b3          	and	a3,a5,a1
   1b2cc:	06c2                	c.slli	a3,0x10
   1b2ce:	00b975b3          	and	a1,s2,a1
   1b2d2:	9726                	c.add	a4,s1
   1b2d4:	96ae                	c.add	a3,a1
   1b2d6:	00873633          	sltu	a2,a4,s0
   1b2da:	969e                	c.add	a3,t2
   1b2dc:	9746                	c.add	a4,a7
   1b2de:	00c684b3          	add	s1,a3,a2
   1b2e2:	011735b3          	sltu	a1,a4,a7
   1b2e6:	00a488b3          	add	a7,s1,a0
   1b2ea:	00b88433          	add	s0,a7,a1
   1b2ee:	00c4b633          	sltu	a2,s1,a2
   1b2f2:	0076b6b3          	sltu	a3,a3,t2
   1b2f6:	8ed1                	c.or	a3,a2
   1b2f8:	00b435b3          	sltu	a1,s0,a1
   1b2fc:	83c1                	c.srli	a5,0x10
   1b2fe:	00a8b533          	sltu	a0,a7,a0
   1b302:	97b6                	c.add	a5,a3
   1b304:	8dc9                	c.or	a1,a0
   1b306:	00971613          	slli	a2,a4,0x9
   1b30a:	97ae                	c.add	a5,a1
   1b30c:	9796                	c.add	a5,t0
   1b30e:	01e66633          	or	a2,a2,t5
   1b312:	01745693          	srli	a3,s0,0x17
   1b316:	07a6                	c.slli	a5,0x9
   1b318:	00c03633          	snez	a2,a2
   1b31c:	835d                	c.srli	a4,0x17
   1b31e:	8e59                	c.or	a2,a4
   1b320:	0426                	c.slli	s0,0x9
   1b322:	8fd5                	c.or	a5,a3
   1b324:	8e41                	c.or	a2,s0
   1b326:	1f87f15b          	bbc	a5,24,1b508 <__muldf3+0x51c>
   1b32a:	00165713          	srli	a4,a2,0x1
   1b32e:	8a05                	c.andi	a2,1
   1b330:	01f79693          	slli	a3,a5,0x1f
   1b334:	8e59                	c.or	a2,a4
   1b336:	8e55                	c.or	a2,a3
   1b338:	0017d793          	srli	a5,a5,0x1
   1b33c:	3fff8713          	addi	a4,t6,1023
   1b340:	0ae05263          	blez	a4,1b3e4 <__muldf3+0x3f8>
   1b344:	00767693          	andi	a3,a2,7
   1b348:	c685                	c.beqz	a3,1b370 <__muldf3+0x384>
   1b34a:	00186813          	ori	a6,a6,1
   1b34e:	1c235f5b          	beqc	t1,2,1b52c <__muldf3+0x540>
   1b352:	2633535b          	beqc	t1,3,1b5b8 <__muldf3+0x5cc>
   1b356:	00031d63          	bnez	t1,1b370 <__muldf3+0x384>
   1b35a:	00f67693          	andi	a3,a2,15
   1b35e:	0046d95b          	beqc	a3,4,1b370 <__muldf3+0x384>
   1b362:	00460693          	addi	a3,a2,4
   1b366:	00c6b633          	sltu	a2,a3,a2
   1b36a:	97b2                	c.add	a5,a2
   1b36c:	00d00633          	add	a2,zero,a3
   1b370:	0187f85b          	bbc	a5,24,1b380 <__muldf3+0x394>
   1b374:	ff000737          	lui	a4,0xff000
   1b378:	177d                	c.addi	a4,-1
   1b37a:	8ff9                	c.and	a5,a4
   1b37c:	400f8713          	addi	a4,t6,1024
   1b380:	7fe00693          	li	a3,2046
   1b384:	88f6                	c.mv	a7,t4
   1b386:	18e6c363          	blt	a3,a4,1b50c <__muldf3+0x520>
   1b38a:	00365693          	srli	a3,a2,0x3
   1b38e:	01d79613          	slli	a2,a5,0x1d
   1b392:	8e55                	c.or	a2,a3
   1b394:	5837a7db          	bfoz	a5,a5,22,3
   1b398:	7ff77713          	andi	a4,a4,2047
   1b39c:	d1dff06f          	j	1b0b8 <__muldf3+0xcc>
   1b3a0:	4711                	c.li	a4,4
   1b3a2:	4501                	c.li	a0,0
   1b3a4:	4e01                	c.li	t3,0
   1b3a6:	4385                	c.li	t2,1
   1b3a8:	4801                	c.li	a6,0
   1b3aa:	b169                	c.j	1b034 <__muldf3+0x48>
   1b3ac:	4721                	c.li	a4,8
   1b3ae:	4501                	c.li	a0,0
   1b3b0:	7ff00e13          	li	t3,2047
   1b3b4:	4389                	c.li	t2,2
   1b3b6:	4801                	c.li	a6,0
   1b3b8:	c7dff06f          	j	1b034 <__muldf3+0x48>
   1b3bc:	00176713          	ori	a4,a4,1
   1b3c0:	4781                	c.li	a5,0
   1b3c2:	4601                	c.li	a2,0
   1b3c4:	4f05                	c.li	t5,1
   1b3c6:	b14d                	c.j	1b068 <__muldf3+0x7c>
   1b3c8:	00276713          	ori	a4,a4,2
   1b3cc:	4781                	c.li	a5,0
   1b3ce:	4601                	c.li	a2,0
   1b3d0:	4f09                	c.li	t5,2
   1b3d2:	b959                	c.j	1b068 <__muldf3+0x7c>
   1b3d4:	4881                	c.li	a7,0
   1b3d6:	7ff00713          	li	a4,2047
   1b3da:	000807b7          	lui	a5,0x80
   1b3de:	4601                	c.li	a2,0
   1b3e0:	4841                	c.li	a6,16
   1b3e2:	b9d9                	c.j	1b0b8 <__muldf3+0xcc>
   1b3e4:	4685                	c.li	a3,1
   1b3e6:	8e99                	c.sub	a3,a4
   1b3e8:	eb51                	c.bnez	a4,1b47c <__muldf3+0x490>
   1b3ea:	00767593          	andi	a1,a2,7
   1b3ee:	873e                	c.mv	a4,a5
   1b3f0:	00058a63          	beqz	a1,1b404 <__muldf3+0x418>
   1b3f4:	00186813          	ori	a6,a6,1
   1b3f8:	1e23565b          	beqc	t1,2,1b5e4 <__muldf3+0x5f8>
   1b3fc:	1c335c5b          	beqc	t1,3,1b5d4 <__muldf3+0x5e8>
   1b400:	1e030663          	beqz	t1,1b5ec <__muldf3+0x600>
   1b404:	01875593          	srli	a1,a4,0x18
   1b408:	0015c593          	xori	a1,a1,1
   1b40c:	0015f593          	andi	a1,a1,1
   1b410:	41ef8f93          	addi	t6,t6,1054
   1b414:	01f61733          	sll	a4,a2,t6
   1b418:	00d65533          	srl	a0,a2,a3
   1b41c:	01f79fb3          	sll	t6,a5,t6
   1b420:	00e03633          	snez	a2,a4
   1b424:	00afefb3          	or	t6,t6,a0
   1b428:	01f66633          	or	a2,a2,t6
   1b42c:	00767713          	andi	a4,a2,7
   1b430:	00d7d7b3          	srl	a5,a5,a3
   1b434:	00070a63          	beqz	a4,1b448 <__muldf3+0x45c>
   1b438:	00186813          	ori	a6,a6,1
   1b43c:	1c23545b          	beqc	t1,2,1b604 <__muldf3+0x618>
   1b440:	1c335e5b          	beqc	t1,3,1b61c <__muldf3+0x630>
   1b444:	14030a63          	beqz	t1,1b598 <__muldf3+0x5ac>
   1b448:	1777fc5b          	bbc	a5,23,1b5c0 <__muldf3+0x5d4>
   1b44c:	00186813          	ori	a6,a6,1
   1b450:	4705                	c.li	a4,1
   1b452:	4781                	c.li	a5,0
   1b454:	00000613          	li	a2,0
   1b458:	01d008b3          	add	a7,zero,t4
   1b45c:	c4058ee3          	beqz	a1,1b0b8 <__muldf3+0xcc>
   1b460:	84087c5b          	bbc	a6,0,1b0b8 <__muldf3+0xcc>
   1b464:	00286813          	ori	a6,a6,2
   1b468:	04c0006f          	j	1b4b4 <__muldf3+0x4c8>
   1b46c:	4881                	c.li	a7,0
   1b46e:	7ff00713          	li	a4,2047
   1b472:	000807b7          	lui	a5,0x80
   1b476:	4601                	c.li	a2,0
   1b478:	c41ff06f          	j	1b0b8 <__muldf3+0xcc>
   1b47c:	03800593          	li	a1,56
   1b480:	0cd5da63          	bge	a1,a3,1b554 <__muldf3+0x568>
   1b484:	8e5d                	c.or	a2,a5
   1b486:	c20d                	c.beqz	a2,1b4a8 <__muldf3+0x4bc>
   1b488:	00186813          	ori	a6,a6,1
   1b48c:	01d03633          	snez	a2,t4
   1b490:	00235c5b          	beqc	t1,2,1b4a8 <__muldf3+0x4bc>
   1b494:	ffd30793          	addi	a5,t1,-3
   1b498:	0017b793          	seqz	a5,a5
   1b49c:	001eb613          	seqz	a2,t4
   1b4a0:	40f007b3          	neg	a5,a5
   1b4a4:	00f67633          	and	a2,a2,a5
   1b4a8:	00286813          	ori	a6,a6,2
   1b4ac:	88f6                	c.mv	a7,t4
   1b4ae:	4701                	c.li	a4,0
   1b4b0:	00000793          	li	a5,0
   1b4b4:	4581                	c.li	a1,0
   1b4b6:	fff006b7          	lui	a3,0xfff00
   1b4ba:	8eed                	c.and	a3,a1
   1b4bc:	4c07a7db          	bfoz	a5,a5,19,0
   1b4c0:	8fd5                	c.or	a5,a3
   1b4c2:	801006b7          	lui	a3,0x80100
   1b4c6:	16fd                	c.addi	a3,-1
   1b4c8:	0752                	c.slli	a4,0x14
   1b4ca:	8efd                	c.and	a3,a5
   1b4cc:	8f55                	c.or	a4,a3
   1b4ce:	08fe                	c.slli	a7,0x1f
   1b4d0:	7807275b          	bfoz	a4,a4,30,0
   1b4d4:	00c00533          	add	a0,zero,a2
   1b4d8:	011765b3          	or	a1,a4,a7
   1b4dc:	00182073          	csrs	fflags,a6
   1b4e0:	c05ff06f          	j	1b0e4 <__muldf3+0xf8>
   1b4e4:	fd888793          	addi	a5,a7,-40
   1b4e8:	00f617b3          	sll	a5,a2,a5
   1b4ec:	4601                	c.li	a2,0
   1b4ee:	b1c9                	c.j	1b1b0 <__muldf3+0x1c4>
   1b4f0:	fd870793          	addi	a5,a4,-40 # feffffd8 <_stack+0xfbffffd8>
   1b4f4:	00f512b3          	sll	t0,a0,a5
   1b4f8:	4501                	c.li	a0,0
   1b4fa:	b9b9                	c.j	1b158 <__muldf3+0x16c>
   1b4fc:	4731                	c.li	a4,12
   1b4fe:	7ff00e13          	li	t3,2047
   1b502:	438d                	c.li	t2,3
   1b504:	4841                	c.li	a6,16
   1b506:	b63d                	c.j	1b034 <__muldf3+0x48>
   1b508:	8ff2                	c.mv	t6,t3
   1b50a:	bd0d                	c.j	1b33c <__muldf3+0x350>
   1b50c:	02235a5b          	beqc	t1,2,1b540 <__muldf3+0x554>
   1b510:	0a33505b          	beqc	t1,3,1b5b0 <__muldf3+0x5c4>
   1b514:	02030863          	beqz	t1,1b544 <__muldf3+0x558>
   1b518:	001007b7          	lui	a5,0x100
   1b51c:	7fe00713          	li	a4,2046
   1b520:	17fd                	c.addi	a5,-1
   1b522:	567d                	c.li	a2,-1
   1b524:	00586813          	ori	a6,a6,5
   1b528:	f8dff06f          	j	1b4b4 <__muldf3+0x4c8>
   1b52c:	e40e82e3          	beqz	t4,1b370 <__muldf3+0x384>
   1b530:	00860693          	addi	a3,a2,8
   1b534:	00c6b633          	sltu	a2,a3,a2
   1b538:	97b2                	c.add	a5,a2
   1b53a:	8636                	c.mv	a2,a3
   1b53c:	e35ff06f          	j	1b370 <__muldf3+0x384>
   1b540:	fc0e8ce3          	beqz	t4,1b518 <__muldf3+0x52c>
   1b544:	7ff00713          	li	a4,2047
   1b548:	4781                	c.li	a5,0
   1b54a:	4601                	c.li	a2,0
   1b54c:	00586813          	ori	a6,a6,5
   1b550:	f65ff06f          	j	1b4b4 <__muldf3+0x4c8>
   1b554:	45fd                	c.li	a1,31
   1b556:	0cd5dd63          	bge	a1,a3,1b630 <__muldf3+0x644>
   1b55a:	5585                	c.li	a1,-31
   1b55c:	40e58733          	sub	a4,a1,a4
   1b560:	00e7d733          	srl	a4,a5,a4
   1b564:	0006d8db          	beqc	a3,32,1b574 <__muldf3+0x588>
   1b568:	43ef8f93          	addi	t6,t6,1086
   1b56c:	01f797b3          	sll	a5,a5,t6
   1b570:	00f66633          	or	a2,a2,a5
   1b574:	00c03633          	snez	a2,a2
   1b578:	8e59                	c.or	a2,a4
   1b57a:	00767793          	andi	a5,a2,7
   1b57e:	c3dd                	c.beqz	a5,1b624 <__muldf3+0x638>
   1b580:	00186813          	ori	a6,a6,1
   1b584:	06235e5b          	beqc	t1,2,1b600 <__muldf3+0x614>
   1b588:	0833585b          	beqc	t1,3,1b618 <__muldf3+0x62c>
   1b58c:	4585                	c.li	a1,1
   1b58e:	4781                	c.li	a5,0
   1b590:	02031863          	bnez	t1,1b5c0 <__muldf3+0x5d4>
   1b594:	4781                	c.li	a5,0
   1b596:	4585                	c.li	a1,1
   1b598:	00f67713          	andi	a4,a2,15
   1b59c:	aa47565b          	beqc	a4,4,1b448 <__muldf3+0x45c>
   1b5a0:	00460713          	addi	a4,a2,4
   1b5a4:	00c73633          	sltu	a2,a4,a2
   1b5a8:	97b2                	c.add	a5,a2
   1b5aa:	863a                	c.mv	a2,a4
   1b5ac:	e9dff06f          	j	1b448 <__muldf3+0x45c>
   1b5b0:	f80e8ae3          	beqz	t4,1b544 <__muldf3+0x558>
   1b5b4:	f65ff06f          	j	1b518 <__muldf3+0x52c>
   1b5b8:	da0e9ce3          	bnez	t4,1b370 <__muldf3+0x384>
   1b5bc:	f75ff06f          	j	1b530 <__muldf3+0x544>
   1b5c0:	00365713          	srli	a4,a2,0x3
   1b5c4:	01d79613          	slli	a2,a5,0x1d
   1b5c8:	8e59                	c.or	a2,a4
   1b5ca:	5837a7db          	bfoz	a5,a5,22,3
   1b5ce:	4701                	c.li	a4,0
   1b5d0:	e89ff06f          	j	1b458 <__muldf3+0x46c>
   1b5d4:	e20e98e3          	bnez	t4,1b404 <__muldf3+0x418>
   1b5d8:	ff863713          	sltiu	a4,a2,-8
   1b5dc:	00174713          	xori	a4,a4,1
   1b5e0:	973e                	c.add	a4,a5
   1b5e2:	b50d                	c.j	1b404 <__muldf3+0x418>
   1b5e4:	e20e80e3          	beqz	t4,1b404 <__muldf3+0x418>
   1b5e8:	ff1ff06f          	j	1b5d8 <__muldf3+0x5ec>
   1b5ec:	00f67593          	andi	a1,a2,15
   1b5f0:	a045da5b          	beqc	a1,4,1b404 <__muldf3+0x418>
   1b5f4:	ffc63713          	sltiu	a4,a2,-4
   1b5f8:	00174713          	xori	a4,a4,1
   1b5fc:	973e                	c.add	a4,a5
   1b5fe:	b519                	c.j	1b404 <__muldf3+0x418>
   1b600:	4781                	c.li	a5,0
   1b602:	4585                	c.li	a1,1
   1b604:	e40e82e3          	beqz	t4,1b448 <__muldf3+0x45c>
   1b608:	00860713          	addi	a4,a2,8
   1b60c:	00c73633          	sltu	a2,a4,a2
   1b610:	97b2                	c.add	a5,a2
   1b612:	863a                	c.mv	a2,a4
   1b614:	e35ff06f          	j	1b448 <__muldf3+0x45c>
   1b618:	4781                	c.li	a5,0
   1b61a:	4585                	c.li	a1,1
   1b61c:	e20e96e3          	bnez	t4,1b448 <__muldf3+0x45c>
   1b620:	fe9ff06f          	j	1b608 <__muldf3+0x61c>
   1b624:	820d                	c.srli	a2,0x3
   1b626:	88f6                	c.mv	a7,t4
   1b628:	4701                	c.li	a4,0
   1b62a:	4781                	c.li	a5,0
   1b62c:	e35ff06f          	j	1b460 <__muldf3+0x474>
   1b630:	4585                	c.li	a1,1
   1b632:	bbf9                	c.j	1b410 <__muldf3+0x424>
   1b634:	0001                	c.nop
	...

0001b638 <__truncdfsf2>:
   1b638:	00202873          	frrm	a6
   1b63c:	7945a65b          	bfoz	a2,a1,30,20
   1b640:	00160693          	addi	a3,a2,1
   1b644:	0d65a8db          	bfoz	a7,a1,3,22
   1b648:	01d55713          	srli	a4,a0,0x1d
   1b64c:	7ff6f693          	andi	a3,a3,2047
   1b650:	4785                	c.li	a5,1
   1b652:	01176733          	or	a4,a4,a7
   1b656:	81fd                	c.srli	a1,0x1f
   1b658:	00351893          	slli	a7,a0,0x3
   1b65c:	0cd7da63          	bge	a5,a3,1b730 <__truncdfsf2+0xf8>
   1b660:	c8060693          	addi	a3,a2,-896
   1b664:	0fe00793          	li	a5,254
   1b668:	06d7c863          	blt	a5,a3,1b6d8 <__truncdfsf2+0xa0>
   1b66c:	10d05e63          	blez	a3,1b788 <__truncdfsf2+0x150>
   1b670:	051a                	c.slli	a0,0x6
   1b672:	00a03533          	snez	a0,a0
   1b676:	070e                	c.slli	a4,0x3
   1b678:	8f49                	c.or	a4,a0
   1b67a:	01d8d893          	srli	a7,a7,0x1d
   1b67e:	01176733          	or	a4,a4,a7
   1b682:	00777613          	andi	a2,a4,7
   1b686:	4781                	c.li	a5,0
   1b688:	4501                	c.li	a0,0
   1b68a:	ca49                	c.beqz	a2,1b71c <__truncdfsf2+0xe4>
   1b68c:	1628505b          	beqc	a6,2,1b7ec <__truncdfsf2+0x1b4>
   1b690:	0838525b          	beqc	a6,3,1b714 <__truncdfsf2+0xdc>
   1b694:	14080463          	beqz	a6,1b7dc <__truncdfsf2+0x1a4>
   1b698:	04000637          	lui	a2,0x4000
   1b69c:	00e67633          	and	a2,a2,a4
   1b6a0:	28078863          	beqz	a5,1b930 <__truncdfsf2+0x2f8>
   1b6a4:	0027e513          	ori	a0,a5,2
   1b6a8:	26060663          	beqz	a2,1b914 <__truncdfsf2+0x2dc>
   1b6ac:	00168693          	addi	a3,a3,1 # 80100001 <_stack+0x7d100001>
   1b6b0:	0ff00613          	li	a2,255
   1b6b4:	6437275b          	bfoz	a4,a4,25,3
   1b6b8:	0ff6f793          	andi	a5,a3,255
   1b6bc:	0ac68a63          	beq	a3,a2,1b770 <__truncdfsf2+0x138>
   1b6c0:	07de                	c.slli	a5,0x17
   1b6c2:	5807275b          	bfoz	a4,a4,22,0
   1b6c6:	05fe                	c.slli	a1,0x1f
   1b6c8:	8fd9                	c.or	a5,a4
   1b6ca:	8fcd                	c.or	a5,a1
   1b6cc:	02051e63          	bnez	a0,1b708 <__truncdfsf2+0xd0>
   1b6d0:	f0078553          	fmv.w.x	fa0,a5
   1b6d4:	00008067          	ret
   1b6d8:	16080c63          	beqz	a6,1b850 <__truncdfsf2+0x218>
   1b6dc:	1638545b          	beqc	a6,3,1b844 <__truncdfsf2+0x20c>
   1b6e0:	1e285a5b          	beqc	a6,2,1b8d4 <__truncdfsf2+0x29c>
   1b6e4:	00500513          	li	a0,5
   1b6e8:	16080a63          	beqz	a6,1b85c <__truncdfsf2+0x224>
   1b6ec:	1e385a5b          	beqc	a6,3,1b8e0 <__truncdfsf2+0x2a8>
   1b6f0:	1a285e5b          	beqc	a6,2,1b8ac <__truncdfsf2+0x274>
   1b6f4:	00800737          	lui	a4,0x800
   1b6f8:	7f0007b7          	lui	a5,0x7f000
   1b6fc:	177d                	c.addi	a4,-1
   1b6fe:	8f5d                	c.or	a4,a5
   1b700:	05fe                	c.slli	a1,0x1f
   1b702:	780727db          	bfoz	a5,a4,30,0
   1b706:	8fcd                	c.or	a5,a1
   1b708:	00152073          	csrs	fflags,a0
   1b70c:	f0078553          	fmv.w.x	fa0,a5
   1b710:	00008067          	ret
   1b714:	4505                	c.li	a0,1
   1b716:	e199                	c.bnez	a1,1b71c <__truncdfsf2+0xe4>
   1b718:	00870713          	addi	a4,a4,8 # 800008 <_end+0x7e2d98>
   1b71c:	04000637          	lui	a2,0x4000
   1b720:	8e79                	c.and	a2,a4
   1b722:	d3d9                	c.beqz	a5,1b6a8 <__truncdfsf2+0x70>
   1b724:	b805725b          	bbc	a0,0,1b6a8 <__truncdfsf2+0x70>
   1b728:	87aa                	c.mv	a5,a0
   1b72a:	0027e513          	ori	a0,a5,2
   1b72e:	bfad                	c.j	1b6a8 <__truncdfsf2+0x70>
   1b730:	011768b3          	or	a7,a4,a7
   1b734:	e615                	c.bnez	a2,1b760 <__truncdfsf2+0x128>
   1b736:	01f59793          	slli	a5,a1,0x1f
   1b73a:	f8088be3          	beqz	a7,1b6d0 <__truncdfsf2+0x98>
   1b73e:	1828535b          	beqc	a6,2,1b8c4 <__truncdfsf2+0x28c>
   1b742:	1238555b          	beqc	a6,3,1b86c <__truncdfsf2+0x234>
   1b746:	4705                	c.li	a4,1
   1b748:	4789                	c.li	a5,2
   1b74a:	4605                	c.li	a2,1
   1b74c:	1a080463          	beqz	a6,1b8f4 <__truncdfsf2+0x2bc>
   1b750:	83ed                	c.srli	a5,0x1b
   1b752:	0017c793          	xori	a5,a5,1
   1b756:	8b85                	c.andi	a5,1
   1b758:	4505                	c.li	a0,1
   1b75a:	4681                	c.li	a3,0
   1b75c:	fa05                	c.bnez	a2,1b68c <__truncdfsf2+0x54>
   1b75e:	bf7d                	c.j	1b71c <__truncdfsf2+0xe4>
   1b760:	08089a63          	bnez	a7,1b7f4 <__truncdfsf2+0x1bc>
   1b764:	05fe                	c.slli	a1,0x1f
   1b766:	7f8007b7          	lui	a5,0x7f800
   1b76a:	8fcd                	c.or	a5,a1
   1b76c:	f65ff06f          	j	1b6d0 <__truncdfsf2+0x98>
   1b770:	00556513          	ori	a0,a0,5
   1b774:	f6081ce3          	bnez	a6,1b6ec <__truncdfsf2+0xb4>
   1b778:	05fe                	c.slli	a1,0x1f
   1b77a:	7f8007b7          	lui	a5,0x7f800
   1b77e:	8fcd                	c.or	a5,a1
   1b780:	00152073          	csrs	fflags,a0
   1b784:	f89ff06f          	j	1b70c <__truncdfsf2+0xd4>
   1b788:	57a5                	c.li	a5,-23
   1b78a:	0af6c363          	blt	a3,a5,1b830 <__truncdfsf2+0x1f8>
   1b78e:	4579                	c.li	a0,30
   1b790:	008007b7          	lui	a5,0x800
   1b794:	8d15                	c.sub	a0,a3
   1b796:	437d                	c.li	t1,31
   1b798:	8fd9                	c.or	a5,a4
   1b79a:	0ea34163          	blt	t1,a0,1b87c <__truncdfsf2+0x244>
   1b79e:	c8260613          	addi	a2,a2,-894 # 3fffc82 <_stack+0xfffc82>
   1b7a2:	00c89733          	sll	a4,a7,a2
   1b7a6:	00e03733          	snez	a4,a4
   1b7aa:	00c797b3          	sll	a5,a5,a2
   1b7ae:	00a8d8b3          	srl	a7,a7,a0
   1b7b2:	8f5d                	c.or	a4,a5
   1b7b4:	00e8e733          	or	a4,a7,a4
   1b7b8:	01f59793          	slli	a5,a1,0x1f
   1b7bc:	db11                	c.beqz	a4,1b6d0 <__truncdfsf2+0x98>
   1b7be:	00171793          	slli	a5,a4,0x1
   1b7c2:	0077f693          	andi	a3,a5,7
   1b7c6:	00777613          	andi	a2,a4,7
   1b7ca:	14069763          	bnez	a3,1b918 <__truncdfsf2+0x2e0>
   1b7ce:	83ed                	c.srli	a5,0x1b
   1b7d0:	0017c793          	xori	a5,a5,1
   1b7d4:	8b85                	c.andi	a5,1
   1b7d6:	4501                	c.li	a0,0
   1b7d8:	4681                	c.li	a3,0
   1b7da:	b749                	c.j	1b75c <__truncdfsf2+0x124>
   1b7dc:	00f77613          	andi	a2,a4,15
   1b7e0:	aa465c5b          	beqc	a2,4,1b698 <__truncdfsf2+0x60>
   1b7e4:	00100513          	li	a0,1
   1b7e8:	0711                	c.addi	a4,4
   1b7ea:	bf0d                	c.j	1b71c <__truncdfsf2+0xe4>
   1b7ec:	4505                	c.li	a0,1
   1b7ee:	d59d                	c.beqz	a1,1b71c <__truncdfsf2+0xe4>
   1b7f0:	0721                	c.addi	a4,8
   1b7f2:	b72d                	c.j	1b71c <__truncdfsf2+0xe4>
   1b7f4:	7ff00793          	li	a5,2047
   1b7f8:	4501                	c.li	a0,0
   1b7fa:	00f61963          	bne	a2,a5,1b80c <__truncdfsf2+0x1d4>
   1b7fe:	00400537          	lui	a0,0x400
   1b802:	8d79                	c.and	a0,a4
   1b804:	00153513          	seqz	a0,a0
   1b808:	00451513          	slli	a0,a0,0x4
   1b80c:	070e                	c.slli	a4,0x3
   1b80e:	020007b7          	lui	a5,0x2000
   1b812:	8f5d                	c.or	a4,a5
   1b814:	0ff00693          	li	a3,255
   1b818:	0ff00793          	li	a5,255
   1b81c:	00375713          	srli	a4,a4,0x3
   1b820:	08f68a63          	beq	a3,a5,1b8b4 <__truncdfsf2+0x27c>
   1b824:	5807275b          	bfoz	a4,a4,22,0
   1b828:	0ff6f793          	andi	a5,a3,255
   1b82c:	e95ff06f          	j	1b6c0 <__truncdfsf2+0x88>
   1b830:	08285a5b          	beqc	a6,2,1b8c4 <__truncdfsf2+0x28c>
   1b834:	02385c5b          	beqc	a6,3,1b86c <__truncdfsf2+0x234>
   1b838:	0a080863          	beqz	a6,1b8e8 <__truncdfsf2+0x2b0>
   1b83c:	4705                	c.li	a4,1
   1b83e:	4681                	c.li	a3,0
   1b840:	4785                	c.li	a5,1
   1b842:	b5a9                	c.j	1b68c <__truncdfsf2+0x54>
   1b844:	edb1                	c.bnez	a1,1b8a0 <__truncdfsf2+0x268>
   1b846:	7f8007b7          	lui	a5,0x7f800
   1b84a:	4515                	c.li	a0,5
   1b84c:	ebdff06f          	j	1b708 <__truncdfsf2+0xd0>
   1b850:	05fe                	c.slli	a1,0x1f
   1b852:	7f8007b7          	lui	a5,0x7f800
   1b856:	8fcd                	c.or	a5,a1
   1b858:	4515                	c.li	a0,5
   1b85a:	b57d                	c.j	1b708 <__truncdfsf2+0xd0>
   1b85c:	577d                	c.li	a4,-1
   1b85e:	4781                	c.li	a5,0
   1b860:	4515                	c.li	a0,5
   1b862:	0fe00693          	li	a3,254
   1b866:	0711                	c.addi	a4,4
   1b868:	eb5ff06f          	j	1b71c <__truncdfsf2+0xe4>
   1b86c:	4605                	c.li	a2,1
   1b86e:	4705                	c.li	a4,1
   1b870:	00200793          	li	a5,2
   1b874:	ec059ee3          	bnez	a1,1b750 <__truncdfsf2+0x118>
   1b878:	07a1                	c.addi	a5,8
   1b87a:	bdd9                	c.j	1b750 <__truncdfsf2+0x118>
   1b87c:	5779                	c.li	a4,-2
   1b87e:	8f15                	c.sub	a4,a3
   1b880:	00e7d733          	srl	a4,a5,a4
   1b884:	000558db          	beqc	a0,32,1b894 <__truncdfsf2+0x25c>
   1b888:	ca260613          	addi	a2,a2,-862
   1b88c:	00c797b3          	sll	a5,a5,a2
   1b890:	00f8e8b3          	or	a7,a7,a5
   1b894:	011038b3          	snez	a7,a7
   1b898:	00e8e733          	or	a4,a7,a4
   1b89c:	f1dff06f          	j	1b7b8 <__truncdfsf2+0x180>
   1b8a0:	577d                	c.li	a4,-1
   1b8a2:	0fe00693          	li	a3,254
   1b8a6:	4515                	c.li	a0,5
   1b8a8:	e05ff06f          	j	1b6ac <__truncdfsf2+0x74>
   1b8ac:	e40584e3          	beqz	a1,1b6f4 <__truncdfsf2+0xbc>
   1b8b0:	4585                	c.li	a1,1
   1b8b2:	b5d9                	c.j	1b778 <__truncdfsf2+0x140>
   1b8b4:	cf21                	c.beqz	a4,1b90c <__truncdfsf2+0x2d4>
   1b8b6:	4581                	c.li	a1,0
   1b8b8:	0ff00793          	li	a5,255
   1b8bc:	00400737          	lui	a4,0x400
   1b8c0:	e01ff06f          	j	1b6c0 <__truncdfsf2+0x88>
   1b8c4:	4605                	c.li	a2,1
   1b8c6:	4705                	c.li	a4,1
   1b8c8:	00200793          	li	a5,2
   1b8cc:	e80582e3          	beqz	a1,1b750 <__truncdfsf2+0x118>
   1b8d0:	07a1                	c.addi	a5,8
   1b8d2:	bdbd                	c.j	1b750 <__truncdfsf2+0x118>
   1b8d4:	d5f1                	c.beqz	a1,1b8a0 <__truncdfsf2+0x268>
   1b8d6:	ff8007b7          	lui	a5,0xff800
   1b8da:	4515                	c.li	a0,5
   1b8dc:	e2dff06f          	j	1b708 <__truncdfsf2+0xd0>
   1b8e0:	e8058ce3          	beqz	a1,1b778 <__truncdfsf2+0x140>
   1b8e4:	e11ff06f          	j	1b6f4 <__truncdfsf2+0xbc>
   1b8e8:	4785                	c.li	a5,1
   1b8ea:	4681                	c.li	a3,0
   1b8ec:	4705                	c.li	a4,1
   1b8ee:	4505                	c.li	a0,1
   1b8f0:	ef9ff06f          	j	1b7e8 <__truncdfsf2+0x1b0>
   1b8f4:	4705                	c.li	a4,1
   1b8f6:	4789                	c.li	a5,2
   1b8f8:	00100613          	li	a2,1
   1b8fc:	0791                	c.addi	a5,4
   1b8fe:	83ed                	c.srli	a5,0x1b
   1b900:	0017c793          	xori	a5,a5,1
   1b904:	8b85                	c.andi	a5,1
   1b906:	4505                	c.li	a0,1
   1b908:	4681                	c.li	a3,0
   1b90a:	bd89                	c.j	1b75c <__truncdfsf2+0x124>
   1b90c:	0ff00793          	li	a5,255
   1b910:	4701                	c.li	a4,0
   1b912:	b37d                	c.j	1b6c0 <__truncdfsf2+0x88>
   1b914:	830d                	c.srli	a4,0x3
   1b916:	b739                	c.j	1b824 <__truncdfsf2+0x1ec>
   1b918:	ba285a5b          	beqc	a6,2,1b8cc <__truncdfsf2+0x294>
   1b91c:	b4385c5b          	beqc	a6,3,1b874 <__truncdfsf2+0x23c>
   1b920:	e20818e3          	bnez	a6,1b750 <__truncdfsf2+0x118>
   1b924:	00f7f693          	andi	a3,a5,15
   1b928:	a246d45b          	beqc	a3,4,1b750 <__truncdfsf2+0x118>
   1b92c:	fd1ff06f          	j	1b8fc <__truncdfsf2+0x2c4>
   1b930:	4505                	c.li	a0,1
   1b932:	d6061de3          	bnez	a2,1b6ac <__truncdfsf2+0x74>
   1b936:	b5cd                	c.j	1b818 <__truncdfsf2+0x1e0>

0001b938 <__extendsfdf2>:
   1b938:	e0050753          	fmv.x.w	a4,fa0
   1b93c:	002027f3          	frrm	a5
   1b940:	797727db          	bfoz	a5,a4,30,23
   1b944:	00178593          	addi	a1,a5,1 # ff800001 <_stack+0xfc800001>
   1b948:	0ff5f593          	andi	a1,a1,255
   1b94c:	4505                	c.li	a0,1
   1b94e:	580726db          	bfoz	a3,a4,22,0
   1b952:	01f75613          	srli	a2,a4,0x1f
   1b956:	02b55d63          	bge	a0,a1,1b990 <__extendsfdf2+0x58>
   1b95a:	0036d713          	srli	a4,a3,0x3
   1b95e:	38078793          	addi	a5,a5,896
   1b962:	06f6                	c.slli	a3,0x1d
   1b964:	4581                	c.li	a1,0
   1b966:	8536                	c.mv	a0,a3
   1b968:	fff006b7          	lui	a3,0xfff00
   1b96c:	8eed                	c.and	a3,a1
   1b96e:	4c07275b          	bfoz	a4,a4,19,0
   1b972:	8ed9                	c.or	a3,a4
   1b974:	51e7a75b          	bfoz	a4,a5,20,30
   1b978:	801007b7          	lui	a5,0x80100
   1b97c:	17fd                	c.addi	a5,-1
   1b97e:	8ff5                	c.and	a5,a3
   1b980:	8fd9                	c.or	a5,a4
   1b982:	7807a7db          	bfoz	a5,a5,30,0
   1b986:	01f61713          	slli	a4,a2,0x1f
   1b98a:	00e7e5b3          	or	a1,a5,a4
   1b98e:	8082                	c.jr	ra
   1b990:	e785                	c.bnez	a5,1b9b8 <__extendsfdf2+0x80>
   1b992:	cabd                	c.beqz	a3,1ba08 <__extendsfdf2+0xd0>
   1b994:	af9685ff          	clz32	a1,a3
   1b998:	47a9                	c.li	a5,10
   1b99a:	06b7db63          	bge	a5,a1,1ba10 <__extendsfdf2+0xd8>
   1b99e:	ff558713          	addi	a4,a1,-11 # fff5 <_ITB_BASE_+0xfff5>
   1b9a2:	00e69733          	sll	a4,a3,a4
   1b9a6:	4681                	c.li	a3,0
   1b9a8:	38900793          	li	a5,905
   1b9ac:	8f8d                	c.sub	a5,a1
   1b9ae:	4c07275b          	bfoz	a4,a4,19,0
   1b9b2:	7ff7f793          	andi	a5,a5,2047
   1b9b6:	b77d                	c.j	1b964 <__extendsfdf2+0x2c>
   1b9b8:	c6a1                	c.beqz	a3,1ba00 <__extendsfdf2+0xc8>
   1b9ba:	00080737          	lui	a4,0x80
   1b9be:	0036d793          	srli	a5,a3,0x3
   1b9c2:	00100837          	lui	a6,0x100
   1b9c6:	8fd9                	c.or	a5,a4
   1b9c8:	187d                	c.addi	a6,-1
   1b9ca:	01d69713          	slli	a4,a3,0x1d
   1b9ce:	0107f7b3          	and	a5,a5,a6
   1b9d2:	4566f95b          	bbs	a3,22,1ba24 <__extendsfdf2+0xec>
   1b9d6:	4581                	c.li	a1,0
   1b9d8:	853a                	c.mv	a0,a4
   1b9da:	fff00737          	lui	a4,0xfff00
   1b9de:	8f6d                	c.and	a4,a1
   1b9e0:	0107f7b3          	and	a5,a5,a6
   1b9e4:	8fd9                	c.or	a5,a4
   1b9e6:	7ff006b7          	lui	a3,0x7ff00
   1b9ea:	8edd                	c.or	a3,a5
   1b9ec:	01f61713          	slli	a4,a2,0x1f
   1b9f0:	7806a6db          	bfoz	a3,a3,30,0
   1b9f4:	00e6e5b3          	or	a1,a3,a4
   1b9f8:	00186073          	csrsi	fflags,16
   1b9fc:	00008067          	ret
   1ba00:	7ff00793          	li	a5,2047
   1ba04:	4701                	c.li	a4,0
   1ba06:	bfb9                	c.j	1b964 <__extendsfdf2+0x2c>
   1ba08:	4781                	c.li	a5,0
   1ba0a:	4701                	c.li	a4,0
   1ba0c:	f59ff06f          	j	1b964 <__extendsfdf2+0x2c>
   1ba10:	472d                	c.li	a4,11
   1ba12:	8f0d                	c.sub	a4,a1
   1ba14:	01558793          	addi	a5,a1,21
   1ba18:	00e6d733          	srl	a4,a3,a4
   1ba1c:	00f696b3          	sll	a3,a3,a5
   1ba20:	f89ff06f          	j	1b9a8 <__extendsfdf2+0x70>
   1ba24:	4581                	c.li	a1,0
   1ba26:	853a                	c.mv	a0,a4
   1ba28:	fff00737          	lui	a4,0xfff00
   1ba2c:	8f6d                	c.and	a4,a1
   1ba2e:	0107f7b3          	and	a5,a5,a6
   1ba32:	8fd9                	c.or	a5,a4
   1ba34:	7ff006b7          	lui	a3,0x7ff00
   1ba38:	8edd                	c.or	a3,a5
   1ba3a:	01f61713          	slli	a4,a2,0x1f
   1ba3e:	7806a6db          	bfoz	a3,a3,30,0
   1ba42:	00e6e5b3          	or	a1,a3,a4
   1ba46:	8082                	c.jr	ra

0001ba48 <sinf>:
   1ba48:	3f491737          	lui	a4,0x3f491
   1ba4c:	e00507d3          	fmv.x.w	a5,fa0
   1ba50:	fda70713          	addi	a4,a4,-38 # 3f490fda <_stack+0x3c490fda>
   1ba54:	85be                	c.mv	a1,a5
   1ba56:	7807a6db          	bfoz	a3,a5,30,0
   1ba5a:	02d76963          	bltu	a4,a3,1ba8c <sinf+0x44>
   1ba5e:	39800737          	lui	a4,0x39800
   1ba62:	0ae6e763          	bltu	a3,a4,1bb10 <sinf+0xc8>
   1ba66:	10a577d3          	fmul.s	fa5,fa0,fa0
   1ba6a:	144a970b          	addigp	a4,53572 # 1d240 <cst_libm_sincosf>
   1ba6e:	20a505d3          	fmv.s	fa1,fa0
   1ba72:	6354                	c.flw	fa3,4(a4)
   1ba74:	6708                	c.flw	fa0,8(a4)
   1ba76:	6318                	c.flw	fa4,0(a4)
   1ba78:	68f57543          	fmadd.s	fa0,fa0,fa5,fa3
   1ba7c:	70f57543          	fmadd.s	fa0,fa0,fa5,fa4
   1ba80:	10f57553          	fmul.s	fa0,fa0,fa5
   1ba84:	58a5f543          	fmadd.s	fa0,fa1,fa0,fa1
   1ba88:	00008067          	ret
   1ba8c:	1101                	c.addi	sp,-32
   1ba8e:	46491737          	lui	a4,0x46491
   1ba92:	ce06                	c.swsp	ra,28(sp)
   1ba94:	e4870713          	addi	a4,a4,-440 # 46490e48 <_stack+0x43490e48>
   1ba98:	0ad76463          	bltu	a4,a3,1bb40 <sinf+0xf8>
   1ba9c:	6769                	c.lui	a4,0x1a
   1ba9e:	66e9                	c.lui	a3,0x1a
   1baa0:	f5c6a587          	flw	fa1,-164(a3) # 19f5c <twiddleCoef_16_q15+0x3c>
   1baa4:	03072787          	flw	fa5,48(a4) # 1a030 <cst_libm_rredf>
   1baa8:	7352970b          	addigp	a4,40756 # 1a030 <cst_libm_rredf>
   1baac:	6710                	c.flw	fa2,8(a4)
   1baae:	58f577c3          	fmadd.s	fa5,fa0,fa5,fa1
   1bab2:	6754                	c.flw	fa3,12(a4)
   1bab4:	6b18                	c.flw	fa4,16(a4)
   1bab6:	6b48                	c.flw	fa0,20(a4)
   1bab8:	08b7f7d3          	fsub.s	fa5,fa5,fa1
   1babc:	f00785d3          	fmv.w.x	fa1,a5
   1bac0:	58c7f64b          	fnmsub.s	fa2,fa5,fa2,fa1
   1bac4:	c0079753          	fcvt.w.s	a4,fa5,rtz
   1bac8:	60d7f6cb          	fnmsub.s	fa3,fa5,fa3,fa2
   1bacc:	00177693          	andi	a3,a4,1
   1bad0:	00277713          	andi	a4,a4,2
   1bad4:	68e7f74b          	fnmsub.s	fa4,fa5,fa4,fa3
   1bad8:	70a7f5cb          	fnmsub.s	fa1,fa5,fa0,fa4
   1badc:	e00587d3          	fmv.x.w	a5,fa1
   1bae0:	f00785d3          	fmv.w.x	fa1,a5
   1bae4:	10b5f7d3          	fmul.s	fa5,fa1,fa1
   1bae8:	cec1                	c.beqz	a3,1bb80 <sinf+0x138>
   1baea:	144a978b          	addigp	a5,53572 # 1d240 <cst_libm_sincosf>
   1baee:	6f88                	c.flw	fa0,24(a5)
   1baf0:	6bd0                	c.flw	fa2,20(a5)
   1baf2:	6b94                	c.flw	fa3,16(a5)
   1baf4:	67d8                	c.flw	fa4,12(a5)
   1baf6:	60f57543          	fmadd.s	fa0,fa0,fa5,fa2
   1bafa:	68f57543          	fmadd.s	fa0,fa0,fa5,fa3
   1bafe:	70f57543          	fmadd.s	fa0,fa0,fa5,fa4
   1bb02:	c319                	c.beqz	a4,1bb08 <sinf+0xc0>
   1bb04:	20a51553          	fneg.s	fa0,fa0
   1bb08:	40f2                	c.lwsp	ra,28(sp)
   1bb0a:	6105                	c.addi16sp	sp,32
   1bb0c:	00008067          	ret
   1bb10:	00179593          	slli	a1,a5,0x1
   1bb14:	ff000737          	lui	a4,0xff000
   1bb18:	00e5e863          	bltu	a1,a4,1bb28 <sinf+0xe0>
   1bb1c:	00e58863          	beq	a1,a4,1bb2c <sinf+0xe4>
   1bb20:	00a57553          	fadd.s	fa0,fa0,fa0
   1bb24:	00008067          	ret
   1bb28:	00008067          	ret
   1bb2c:	02100713          	li	a4,33
   1bb30:	f0000553          	fmv.w.x	fa0,zero
   1bb34:	16eac22b          	swgp	a4,53604 # 1d260 <_edata>
   1bb38:	18a57553          	fdiv.s	fa0,fa0,fa0
   1bb3c:	00008067          	ret
   1bb40:	0068                	c.addi4spn	a0,sp,12
   1bb42:	28b9                	c.jal	1bba0 <ref__mathlib_rredf2>
   1bb44:	4732                	c.lwsp	a4,12(sp)
   1bb46:	e00507d3          	fmv.x.w	a5,fa0
   1bb4a:	02075763          	bgez	a4,1bb78 <sinf+0x130>
   1bb4e:	00179593          	slli	a1,a5,0x1
   1bb52:	ff000737          	lui	a4,0xff000
   1bb56:	fae5e9e3          	bltu	a1,a4,1bb08 <sinf+0xc0>
   1bb5a:	00e58563          	beq	a1,a4,1bb64 <sinf+0x11c>
   1bb5e:	00a57553          	fadd.s	fa0,fa0,fa0
   1bb62:	b75d                	c.j	1bb08 <sinf+0xc0>
   1bb64:	f0000553          	fmv.w.x	fa0,zero
   1bb68:	02100713          	li	a4,33
   1bb6c:	16eac22b          	swgp	a4,53604 # 1d260 <_edata>
   1bb70:	18a57553          	fdiv.s	fa0,fa0,fa0
   1bb74:	f95ff06f          	j	1bb08 <sinf+0xc0>
   1bb78:	00177693          	andi	a3,a4,1
   1bb7c:	8b09                	c.andi	a4,2
   1bb7e:	b78d                	c.j	1bae0 <sinf+0x98>
   1bb80:	144a968b          	addigp	a3,53572 # 1d240 <cst_libm_sincosf>
   1bb84:	6688                	c.flw	fa0,8(a3)
   1bb86:	62d4                	c.flw	fa3,4(a3)
   1bb88:	6298                	c.flw	fa4,0(a3)
   1bb8a:	68f57543          	fmadd.s	fa0,fa0,fa5,fa3
   1bb8e:	70f57543          	fmadd.s	fa0,fa0,fa5,fa4
   1bb92:	10f57553          	fmul.s	fa0,fa0,fa5
   1bb96:	58a5f543          	fmadd.s	fa0,fa1,fa0,fa1
   1bb9a:	f72d                	c.bnez	a4,1bb04 <sinf+0xbc>
   1bb9c:	b7b5                	c.j	1bb08 <sinf+0xc0>
   1bb9e:	0001                	c.nop

0001bba0 <ref__mathlib_rredf2>:
   1bba0:	00159713          	slli	a4,a1,0x1
   1bba4:	ff0007b7          	lui	a5,0xff000
   1bba8:	12f77263          	bgeu	a4,a5,1bccc <ref__mathlib_rredf2+0x12c>
   1bbac:	7975a7db          	bfoz	a5,a1,30,23
   1bbb0:	f8878793          	addi	a5,a5,-120 # feffff88 <_stack+0xfbffff88>
   1bbb4:	4057d613          	srai	a2,a5,0x5
   1bbb8:	74d2968b          	addigp	a3,40780 # 1a048 <twooverpi.2618>
   1bbbc:	0cc688db          	lea.w	a7,a3,a2
   1bbc0:	00859313          	slli	t1,a1,0x8
   1bbc4:	80000e37          	lui	t3,0x80000
   1bbc8:	8bfd                	c.andi	a5,31
   1bbca:	01c36e33          	or	t3,t1,t3
   1bbce:	0048a703          	lw	a4,4(a7)
   1bbd2:	0008a303          	lw	t1,0(a7)
   1bbd6:	0088a803          	lw	a6,8(a7)
   1bbda:	cb8d                	c.beqz	a5,1bc0c <ref__mathlib_rredf2+0x6c>
   1bbdc:	00c8a603          	lw	a2,12(a7)
   1bbe0:	02000693          	li	a3,32
   1bbe4:	40f686b3          	sub	a3,a3,a5
   1bbe8:	00d75eb3          	srl	t4,a4,a3
   1bbec:	00d858b3          	srl	a7,a6,a3
   1bbf0:	00f31333          	sll	t1,t1,a5
   1bbf4:	00f71733          	sll	a4,a4,a5
   1bbf8:	00f81833          	sll	a6,a6,a5
   1bbfc:	00d656b3          	srl	a3,a2,a3
   1bc00:	006ee333          	or	t1,t4,t1
   1bc04:	00e8e733          	or	a4,a7,a4
   1bc08:	0106e833          	or	a6,a3,a6
   1bc0c:	f0ee167f          	mulr64	a2,t3,a4
   1bc10:	f10e187f          	mulr64	a6,t3,a6
   1bc14:	f1c3137f          	mulr64	t1,t1,t3
   1bc18:	00c88733          	add	a4,a7,a2
   1bc1c:	006687b3          	add	a5,a3,t1
   1bc20:	01173e33          	sltu	t3,a4,a7
   1bc24:	01c787b3          	add	a5,a5,t3
   1bc28:	09176c63          	bltu	a4,a7,1bcc0 <ref__mathlib_rredf2+0x120>
   1bc2c:	00d7b633          	sltu	a2,a5,a3
   1bc30:	961e                	c.add	a2,t2
   1bc32:	0137d693          	srli	a3,a5,0x13
   1bc36:	01a61813          	slli	a6,a2,0x1a
   1bc3a:	06b6                	c.slli	a3,0xd
   1bc3c:	0106e6b3          	or	a3,a3,a6
   1bc40:	07b6                	c.slli	a5,0xd
   1bc42:	d006f6d3          	fcvt.s.w	fa3,a3
   1bc46:	66e9                	c.lui	a3,0x1a
   1bc48:	f6c6a587          	flw	fa1,-148(a3) # 19f6c <twiddleCoef_16_q15+0x4c>
   1bc4c:	d017f753          	fcvt.s.wu	fa4,a5
   1bc50:	67e9                	c.lui	a5,0x1a
   1bc52:	f507a607          	flw	fa2,-176(a5) # 19f50 <twiddleCoef_16_q15+0x30>
   1bc56:	d0177553          	fcvt.s.wu	fa0,a4
   1bc5a:	6685                	c.lui	a3,0x1
   1bc5c:	80068693          	addi	a3,a3,-2048 # 800 <_ITB_BASE_+0x800>
   1bc60:	68b777c3          	fmadd.s	fa5,fa4,fa1,fa3
   1bc64:	777d                	c.lui	a4,0xfffff
   1bc66:	02060613          	addi	a2,a2,32
   1bc6a:	8219                	c.srli	a2,0x6
   1bc6c:	78c577c3          	fmadd.s	fa5,fa0,fa2,fa5
   1bc70:	e00787d3          	fmv.x.w	a5,fa5
   1bc74:	97b6                	c.add	a5,a3
   1bc76:	8ff9                	c.and	a5,a4
   1bc78:	f00787d3          	fmv.w.x	fa5,a5
   1bc7c:	08d7f6d3          	fsub.s	fa3,fa5,fa3
   1bc80:	6769                	c.lui	a4,0x1a
   1bc82:	68b7774b          	fnmsub.s	fa4,fa4,fa1,fa3
   1bc86:	70c57747          	fmsub.s	fa4,fa0,fa2,fa4
   1bc8a:	f6072507          	flw	fa0,-160(a4) # 19f60 <twiddleCoef_16_q15+0x40>
   1bc8e:	6769                	c.lui	a4,0x1a
   1bc90:	f0078653          	fmv.w.x	fa2,a5
   1bc94:	10a77753          	fmul.s	fa4,fa4,fa0
   1bc98:	f7072507          	flw	fa0,-144(a4) # 19f70 <twiddleCoef_16_q15+0x50>
   1bc9c:	0001a737          	lui	a4,0x1a
   1bca0:	70a7f543          	fmadd.s	fa0,fa5,fa0,fa4
   1bca4:	f6472787          	flw	fa5,-156(a4) # 19f64 <twiddleCoef_16_q15+0x44>
   1bca8:	50f67543          	fmadd.s	fa0,fa2,fa5,fa0
   1bcac:	0005d863          	bgez	a1,1bcbc <ref__mathlib_rredf2+0x11c>
   1bcb0:	20a51553          	fneg.s	fa0,fa0
   1bcb4:	100007b7          	lui	a5,0x10000
   1bcb8:	40c78633          	sub	a2,a5,a2
   1bcbc:	c110                	c.sw	a2,0(a0)
   1bcbe:	8082                	c.jr	ra
   1bcc0:	00f6b633          	sltu	a2,a3,a5
   1bcc4:	00164613          	xori	a2,a2,1
   1bcc8:	f69ff06f          	j	1bc30 <ref__mathlib_rredf2+0x90>
   1bccc:	57fd                	c.li	a5,-1
   1bcce:	c11c                	c.sw	a5,0(a0)
   1bcd0:	8082                	c.jr	ra
   1bcd2:	0001                	c.nop

0001bcd4 <puts>:
   1bcd4:	05e002ef          	jal	t0,1bd32 <__riscv_save_0>
   1bcd8:	1101                	c.addi	sp,-32
   1bcda:	c62a                	c.swsp	a0,12(sp)
   1bcdc:	2061                	c.jal	1bd64 <strlen>
   1bcde:	45b2                	c.lwsp	a1,12(sp)
   1bce0:	862a                	c.mv	a2,a0
   1bce2:	4505                	c.li	a0,1
   1bce4:	20c5                	c.jal	1bdc4 <_write>
   1bce6:	00054c63          	bltz	a0,1bcfe <puts+0x2a>
   1bcea:	47a9                	c.li	a5,10
   1bcec:	4605                	c.li	a2,1
   1bcee:	01f10593          	addi	a1,sp,31
   1bcf2:	4505                	c.li	a0,1
   1bcf4:	00f10fa3          	sb	a5,31(sp)
   1bcf8:	20f1                	c.jal	1bdc4 <_write>
   1bcfa:	6105                	c.addi16sp	sp,32
   1bcfc:	a8a9                	c.j	1bd56 <__riscv_restore_0>
   1bcfe:	557d                	c.li	a0,-1
   1bd00:	bfed                	c.j	1bcfa <puts+0x26>

0001bd02 <__riscv_save_12>:
   1bd02:	7139                	c.addi16sp	sp,-64
   1bd04:	4301                	c.li	t1,0
   1bd06:	c66e                	c.swsp	s11,12(sp)
   1bd08:	a019                	c.j	1bd0e <__riscv_save_10+0x4>

0001bd0a <__riscv_save_10>:
   1bd0a:	7139                	c.addi16sp	sp,-64
   1bd0c:	5341                	c.li	t1,-16
   1bd0e:	c86a                	c.swsp	s10,16(sp)
   1bd10:	ca66                	c.swsp	s9,20(sp)
   1bd12:	cc62                	c.swsp	s8,24(sp)
   1bd14:	ce5e                	c.swsp	s7,28(sp)
   1bd16:	a019                	c.j	1bd1c <__riscv_save_4+0x4>

0001bd18 <__riscv_save_4>:
   1bd18:	7139                	c.addi16sp	sp,-64
   1bd1a:	5301                	c.li	t1,-32
   1bd1c:	d05a                	c.swsp	s6,32(sp)
   1bd1e:	d256                	c.swsp	s5,36(sp)
   1bd20:	d452                	c.swsp	s4,40(sp)
   1bd22:	d64e                	c.swsp	s3,44(sp)
   1bd24:	d84a                	c.swsp	s2,48(sp)
   1bd26:	da26                	c.swsp	s1,52(sp)
   1bd28:	dc22                	c.swsp	s0,56(sp)
   1bd2a:	de06                	c.swsp	ra,60(sp)
   1bd2c:	40610133          	sub	sp,sp,t1
   1bd30:	8282                	c.jr	t0

0001bd32 <__riscv_save_0>:
   1bd32:	1141                	c.addi	sp,-16
   1bd34:	c04a                	c.swsp	s2,0(sp)
   1bd36:	c226                	c.swsp	s1,4(sp)
   1bd38:	c422                	c.swsp	s0,8(sp)
   1bd3a:	c606                	c.swsp	ra,12(sp)
   1bd3c:	8282                	c.jr	t0

0001bd3e <__riscv_restore_12>:
   1bd3e:	4db2                	c.lwsp	s11,12(sp)
   1bd40:	0141                	c.addi	sp,16

0001bd42 <__riscv_restore_10>:
   1bd42:	4d02                	c.lwsp	s10,0(sp)
   1bd44:	4c92                	c.lwsp	s9,4(sp)
   1bd46:	4c22                	c.lwsp	s8,8(sp)
   1bd48:	4bb2                	c.lwsp	s7,12(sp)
   1bd4a:	0141                	c.addi	sp,16

0001bd4c <__riscv_restore_4>:
   1bd4c:	4b02                	c.lwsp	s6,0(sp)
   1bd4e:	4a92                	c.lwsp	s5,4(sp)
   1bd50:	4a22                	c.lwsp	s4,8(sp)
   1bd52:	49b2                	c.lwsp	s3,12(sp)
   1bd54:	0141                	c.addi	sp,16

0001bd56 <__riscv_restore_0>:
   1bd56:	4902                	c.lwsp	s2,0(sp)
   1bd58:	4492                	c.lwsp	s1,4(sp)
   1bd5a:	4422                	c.lwsp	s0,8(sp)
   1bd5c:	40b2                	c.lwsp	ra,12(sp)
   1bd5e:	0141                	c.addi	sp,16
   1bd60:	8082                	c.jr	ra
	...

0001bd64 <strlen>:
   1bd64:	00357793          	andi	a5,a0,3
   1bd68:	872a                	c.mv	a4,a0
   1bd6a:	e79d                	c.bnez	a5,1bd98 <strlen+0x34>
   1bd6c:	0511                	c.addi	a0,4
   1bd6e:	ffc52783          	lw	a5,-4(a0) # 3ffffc <_end+0x3e2d8c>
   1bd72:	200787db          	ffb	a5,a5,zero
   1bd76:	dbfd                	c.beqz	a5,1bd6c <strlen+0x8>
   1bd78:	ffc54783          	lbu	a5,-4(a0)
   1bd7c:	40e50733          	sub	a4,a0,a4
   1bd80:	ffd54683          	lbu	a3,-3(a0)
   1bd84:	ffe54603          	lbu	a2,-2(a0)
   1bd88:	c795                	c.beqz	a5,1bdb4 <strlen+0x50>
   1bd8a:	c28d                	c.beqz	a3,1bdac <strlen+0x48>
   1bd8c:	ca05                	c.beqz	a2,1bdbc <strlen+0x58>
   1bd8e:	fff70513          	addi	a0,a4,-1
   1bd92:	8082                	c.jr	ra
   1bd94:	fc068ce3          	beqz	a3,1bd6c <strlen+0x8>
   1bd98:	00054783          	lbu	a5,0(a0)
   1bd9c:	0505                	c.addi	a0,1
   1bd9e:	00357693          	andi	a3,a0,3
   1bda2:	fbed                	c.bnez	a5,1bd94 <strlen+0x30>
   1bda4:	8d19                	c.sub	a0,a4
   1bda6:	157d                	c.addi	a0,-1
   1bda8:	00008067          	ret
   1bdac:	ffd70513          	addi	a0,a4,-3
   1bdb0:	00008067          	ret
   1bdb4:	ffc70513          	addi	a0,a4,-4
   1bdb8:	00008067          	ret
   1bdbc:	ffe70513          	addi	a0,a4,-2
   1bdc0:	8082                	c.jr	ra
   1bdc2:	0001                	c.nop

0001bdc4 <_write>:
   1bdc4:	04000893          	li	a7,64
   1bdc8:	01f01013          	slli	zero,zero,0x1f
   1bdcc:	00100073          	ebreak
   1bdd0:	40505013          	srai	zero,zero,0x5
   1bdd4:	00055763          	bgez	a0,1bde2 <_write+0x1e>
   1bdd8:	40a00533          	neg	a0,a0
   1bddc:	16aac22b          	swgp	a0,53604 # 1d260 <_edata>
   1bde0:	557d                	c.li	a0,-1
   1bde2:	8082                	c.jr	ra

0001bde4 <printf>:
   1bde4:	7139                	c.addi16sp	sp,-64
   1bde6:	d22e                	c.swsp	a1,36(sp)
   1bde8:	104c                	c.addi4spn	a1,sp,36
   1bdea:	ce06                	c.swsp	ra,28(sp)
   1bdec:	d432                	c.swsp	a2,40(sp)
   1bdee:	d636                	c.swsp	a3,44(sp)
   1bdf0:	d83a                	c.swsp	a4,48(sp)
   1bdf2:	da3e                	c.swsp	a5,52(sp)
   1bdf4:	dc42                	c.swsp	a6,56(sp)
   1bdf6:	de46                	c.swsp	a7,60(sp)
   1bdf8:	c62e                	c.swsp	a1,12(sp)
   1bdfa:	283d                	c.jal	1be38 <vprintf>
   1bdfc:	40f2                	c.lwsp	ra,28(sp)
   1bdfe:	6121                	c.addi16sp	sp,64
   1be00:	8082                	c.jr	ra

0001be02 <__vprintf_help>:
   1be02:	f31ff2ef          	jal	t0,1bd32 <__riscv_save_0>
   1be06:	170aa7ab          	lwgp	a5,53616 # 1d26c <__printf_count>
   1be0a:	0785                	c.addi	a5,1
   1be0c:	16fac82b          	swgp	a5,53616 # 1d26c <__printf_count>
   1be10:	16ca940b          	addigp	s0,53612 # 1d268 <__vprintf_buf_len>
   1be14:	168aa5ab          	lwgp	a1,53608 # 1d264 <__vprintf_buf>
   1be18:	401c                	c.lw	a5,0(s0)
   1be1a:	00178713          	addi	a4,a5,1 # 10000001 <_stack+0xd000001>
   1be1e:	97ae                	c.add	a5,a1
   1be20:	c018                	c.sw	a4,0(s0)
   1be22:	00a78023          	sb	a0,0(a5)
   1be26:	4007685b          	bnec	a4,64,1be36 <__vprintf_help+0x34>
   1be2a:	04000613          	li	a2,64
   1be2e:	4505                	c.li	a0,1
   1be30:	3f51                	c.jal	1bdc4 <_write>
   1be32:	00042023          	sw	zero,0(s0)
   1be36:	b705                	c.j	1bd56 <__riscv_restore_0>

0001be38 <vprintf>:
   1be38:	1141                	c.addi	sp,-16
   1be3a:	c606                	c.swsp	ra,12(sp)
   1be3c:	c422                	c.swsp	s0,8(sp)
   1be3e:	c226                	c.swsp	s1,4(sp)
   1be40:	c04a                	c.swsp	s2,0(sp)
   1be42:	0800                	c.addi4spn	s0,sp,16
   1be44:	715d                	c.addi16sp	sp,-80
   1be46:	00f10793          	addi	a5,sp,15
   1be4a:	0001c637          	lui	a2,0x1c
   1be4e:	9bc1                	c.andi	a5,-16
   1be50:	168a948b          	addigp	s1,53608 # 1d264 <__vprintf_buf>
   1be54:	16ca990b          	addigp	s2,53612 # 1d268 <__vprintf_buf_len>
   1be58:	e0260613          	addi	a2,a2,-510 # 1be02 <__vprintf_help>
   1be5c:	c09c                	c.sw	a5,0(s1)
   1be5e:	00092023          	sw	zero,0(s2)
   1be62:	209d                	c.jal	1bec8 <__printf_impl>
   1be64:	00092603          	lw	a2,0(s2)
   1be68:	408c                	c.lw	a1,0(s1)
   1be6a:	4505                	c.li	a0,1
   1be6c:	3fa1                	c.jal	1bdc4 <_write>
   1be6e:	170aa52b          	lwgp	a0,53616 # 1d26c <__printf_count>
   1be72:	ff040113          	addi	sp,s0,-16
   1be76:	40b2                	c.lwsp	ra,12(sp)
   1be78:	4422                	c.lwsp	s0,8(sp)
   1be7a:	4492                	c.lwsp	s1,4(sp)
   1be7c:	4902                	c.lwsp	s2,0(sp)
   1be7e:	0141                	c.addi	sp,16
   1be80:	8082                	c.jr	ra

0001be82 <__print_integral>:
   1be82:	eb1ff2ef          	jal	t0,1bd32 <__riscv_save_0>
   1be86:	1101                	c.addi	sp,-32
   1be88:	842a                	c.mv	s0,a0
   1be8a:	84ae                	c.mv	s1,a1
   1be8c:	8932                	c.mv	s2,a2
   1be8e:	c636                	c.swsp	a3,12(sp)
   1be90:	85be                	c.mv	a1,a5
   1be92:	ca32                	c.swsp	a2,20(sp)
   1be94:	853a                	c.mv	a0,a4
   1be96:	0830                	c.addi4spn	a2,sp,24
   1be98:	2145                	c.jal	1c338 <__int_to_poly>
   1be9a:	46b2                	c.lwsp	a3,12(sp)
   1be9c:	882a                	c.mv	a6,a0
   1be9e:	083c                	c.addi4spn	a5,sp,24
   1bea0:	0858                	c.addi4spn	a4,sp,20
   1bea2:	864a                	c.mv	a2,s2
   1bea4:	85a6                	c.mv	a1,s1
   1bea6:	8522                	c.mv	a0,s0
   1bea8:	217d                	c.jal	1c356 <__print_integral_poly>
   1beaa:	76d2978b          	addigp	a5,40812 # 1a068 <__digits>
   1beae:	00a46463          	bltu	s0,a0,1beb6 <__print_integral+0x34>
   1beb2:	6105                	c.addi16sp	sp,32
   1beb4:	b54d                	c.j	1bd56 <__riscv_restore_0>
   1beb6:	00044703          	lbu	a4,0(s0)
   1beba:	0405                	c.addi	s0,1
   1bebc:	973e                	c.add	a4,a5
   1bebe:	00070703          	lb	a4,0(a4)
   1bec2:	fee40fa3          	sb	a4,-1(s0)
   1bec6:	b7e5                	c.j	1beae <__print_integral+0x2c>

0001bec8 <__printf_impl>:
   1bec8:	e3bff2ef          	jal	t0,1bd02 <__riscv_save_12>
   1becc:	a6010113          	addi	sp,sp,-1440
   1bed0:	6b05                	c.lui	s6,0x1
   1bed2:	892a                	c.mv	s2,a0
   1bed4:	842e                	c.mv	s0,a1
   1bed6:	89b2                	c.mv	s3,a2
   1bed8:	01c10a13          	addi	s4,sp,28
   1bedc:	800b0b13          	addi	s6,s6,-2048 # 800 <_ITB_BASE_+0x800>
   1bee0:	160ac82b          	swgp	zero,53616 # 1d26c <__printf_count>
   1bee4:	c456                	c.swsp	s5,8(sp)
   1bee6:	00094503          	lbu	a0,0(s2)
   1beea:	e501                	c.bnez	a0,1bef2 <__printf_impl+0x2a>
   1beec:	5a010113          	addi	sp,sp,1440
   1bef0:	b5b9                	c.j	1bd3e <__riscv_restore_12>
   1bef2:	00190493          	addi	s1,s2,1
   1bef6:	005555db          	beqc	a0,37,1bf00 <__printf_impl+0x38>
   1befa:	9982                	c.jalr	s3
   1befc:	8926                	c.mv	s2,s1
   1befe:	b7e5                	c.j	1bee6 <__printf_impl+0x1e>
   1bf00:	00194783          	lbu	a5,1(s2)
   1bf04:	0057e8db          	bnec	a5,37,1bf14 <__printf_impl+0x4c>
   1bf08:	02500513          	li	a0,37
   1bf0c:	9982                	c.jalr	s3
   1bf0e:	00290493          	addi	s1,s2,2
   1bf12:	b7ed                	c.j	1befc <__printf_impl+0x34>
   1bf14:	4681                	c.li	a3,0
   1bf16:	4701                	c.li	a4,0
   1bf18:	d002                	c.swsp	zero,32(sp)
   1bf1a:	0004c783          	lbu	a5,0(s1)
   1bf1e:	0007e7db          	bnec	a5,32,1bf2c <__printf_impl+0x64>
   1bf22:	00276713          	ori	a4,a4,2
   1bf26:	0485                	c.addi	s1,1
   1bf28:	4685                	c.li	a3,1
   1bf2a:	bfc5                	c.j	1bf1a <__printf_impl+0x52>
   1bf2c:	00d7e5db          	bnec	a5,45,1bf36 <__printf_impl+0x6e>
   1bf30:	00476713          	ori	a4,a4,4
   1bf34:	bfcd                	c.j	1bf26 <__printf_impl+0x5e>
   1bf36:	00b7e5db          	bnec	a5,43,1bf40 <__printf_impl+0x78>
   1bf3a:	00876713          	ori	a4,a4,8
   1bf3e:	b7e5                	c.j	1bf26 <__printf_impl+0x5e>
   1bf40:	0037e5db          	bnec	a5,35,1bf4a <__printf_impl+0x82>
   1bf44:	01076713          	ori	a4,a4,16
   1bf48:	bff9                	c.j	1bf26 <__printf_impl+0x5e>
   1bf4a:	0107e5db          	bnec	a5,48,1bf54 <__printf_impl+0x8c>
   1bf4e:	02076713          	ori	a4,a4,32
   1bf52:	bfd1                	c.j	1bf26 <__printf_impl+0x5e>
   1bf54:	c291                	c.beqz	a3,1bf58 <__printf_impl+0x90>
   1bf56:	d03a                	c.swsp	a4,32(sp)
   1bf58:	04a7eadb          	bnec	a5,42,1bfac <__printf_impl+0xe4>
   1bf5c:	00042c03          	lw	s8,0(s0)
   1bf60:	00440713          	addi	a4,s0,4
   1bf64:	000c5863          	bgez	s8,1bf74 <__printf_impl+0xac>
   1bf68:	5782                	c.lwsp	a5,32(sp)
   1bf6a:	41800c33          	neg	s8,s8
   1bf6e:	0047e793          	ori	a5,a5,4
   1bf72:	d03e                	c.swsp	a5,32(sp)
   1bf74:	0485                	c.addi	s1,1
   1bf76:	843a                	c.mv	s0,a4
   1bf78:	0004c783          	lbu	a5,0(s1)
   1bf7c:	5cfd                	c.li	s9,-1
   1bf7e:	06e7e4db          	bnec	a5,46,1bfe6 <__printf_impl+0x11e>
   1bf82:	0014c783          	lbu	a5,1(s1)
   1bf86:	04a7dbdb          	beqc	a5,42,1bfdc <__printf_impl+0x114>
   1bf8a:	0485                	c.addi	s1,1
   1bf8c:	4c81                	c.li	s9,0
   1bf8e:	4725                	c.li	a4,9
   1bf90:	4629                	c.li	a2,10
   1bf92:	0004c783          	lbu	a5,0(s1)
   1bf96:	fd078793          	addi	a5,a5,-48
   1bf9a:	0ff7f693          	andi	a3,a5,255
   1bf9e:	04d76463          	bltu	a4,a3,1bfe6 <__printf_impl+0x11e>
   1bfa2:	c4cc97ff          	maddr32	a5,s9,a2
   1bfa6:	0485                	c.addi	s1,1
   1bfa8:	8cbe                	c.mv	s9,a5
   1bfaa:	b7e5                	c.j	1bf92 <__printf_impl+0xca>
   1bfac:	fd078793          	addi	a5,a5,-48
   1bfb0:	0ff7f793          	andi	a5,a5,255
   1bfb4:	4725                	c.li	a4,9
   1bfb6:	4c01                	c.li	s8,0
   1bfb8:	fcf760e3          	bltu	a4,a5,1bf78 <__printf_impl+0xb0>
   1bfbc:	4725                	c.li	a4,9
   1bfbe:	4629                	c.li	a2,10
   1bfc0:	a029                	c.j	1bfca <__printf_impl+0x102>
   1bfc2:	c4cc17ff          	maddr32	a5,s8,a2
   1bfc6:	0485                	c.addi	s1,1
   1bfc8:	8c3e                	c.mv	s8,a5
   1bfca:	0004c783          	lbu	a5,0(s1)
   1bfce:	fd078793          	addi	a5,a5,-48
   1bfd2:	0ff7f693          	andi	a3,a5,255
   1bfd6:	fed776e3          	bgeu	a4,a3,1bfc2 <__printf_impl+0xfa>
   1bfda:	bf79                	c.j	1bf78 <__printf_impl+0xb0>
   1bfdc:	401c                	c.lw	a5,0(s0)
   1bfde:	0489                	c.addi	s1,2
   1bfe0:	0411                	c.addi	s0,4
   1bfe2:	f2fc8cff          	maxw	s9,s9,a5
   1bfe6:	43200613          	li	a2,1074
   1bfea:	f0cc867f          	minw	a2,s9,a2
   1bfee:	0004c783          	lbu	a5,0(s1)
   1bff2:	4487efdb          	bnec	a5,104,1c050 <__printf_impl+0x188>
   1bff6:	5782                	c.lwsp	a5,32(sp)
   1bff8:	0014c703          	lbu	a4,1(s1)
   1bffc:	448764db          	bnec	a4,104,1c044 <__printf_impl+0x17c>
   1c000:	0407e793          	ori	a5,a5,64
   1c004:	00248913          	addi	s2,s1,2
   1c008:	d03e                	c.swsp	a5,32(sp)
   1c00a:	00094503          	lbu	a0,0(s2)
   1c00e:	06700793          	li	a5,103
   1c012:	0aa7e263          	bltu	a5,a0,1c0b6 <__printf_impl+0x1ee>
   1c016:	06500793          	li	a5,101
   1c01a:	06f57d63          	bgeu	a0,a5,1c094 <__printf_impl+0x1cc>
   1c01e:	05800793          	li	a5,88
   1c022:	5785565b          	beqc	a0,88,1c18e <__printf_impl+0x2c6>
   1c026:	04a7ef63          	bltu	a5,a0,1c084 <__printf_impl+0x1bc>
   1c02a:	04100793          	li	a5,65
   1c02e:	4615535b          	beqc	a0,65,1c094 <__printf_impl+0x1cc>
   1c032:	00f56763          	bltu	a0,a5,1c040 <__printf_impl+0x178>
   1c036:	fbb50793          	addi	a5,a0,-69
   1c03a:	4709                	c.li	a4,2
   1c03c:	04f77c63          	bgeu	a4,a5,1c094 <__printf_impl+0x1cc>
   1c040:	84a2                	c.mv	s1,s0
   1c042:	a489                	c.j	1c284 <__printf_impl+0x3bc>
   1c044:	0807e793          	ori	a5,a5,128
   1c048:	d03e                	c.swsp	a5,32(sp)
   1c04a:	00148913          	addi	s2,s1,1
   1c04e:	bf75                	c.j	1c00a <__printf_impl+0x142>
   1c050:	40c7eddb          	bnec	a5,108,1c06a <__printf_impl+0x1a2>
   1c054:	5782                	c.lwsp	a5,32(sp)
   1c056:	0014c703          	lbu	a4,1(s1)
   1c05a:	40c765db          	bnec	a4,108,1c064 <__printf_impl+0x19c>
   1c05e:	2007e793          	ori	a5,a5,512
   1c062:	b74d                	c.j	1c004 <__printf_impl+0x13c>
   1c064:	1007e793          	ori	a5,a5,256
   1c068:	b7c5                	c.j	1c048 <__printf_impl+0x180>
   1c06a:	00148913          	addi	s2,s1,1
   1c06e:	41a7e7db          	bnec	a5,122,1c07c <__printf_impl+0x1b4>
   1c072:	5782                	c.lwsp	a5,32(sp)
   1c074:	1007e793          	ori	a5,a5,256
   1c078:	d03e                	c.swsp	a5,32(sp)
   1c07a:	bf41                	c.j	1c00a <__printf_impl+0x142>
   1c07c:	ff47dbdb          	beqc	a5,116,1c072 <__printf_impl+0x1aa>
   1c080:	8926                	c.mv	s2,s1
   1c082:	b761                	c.j	1c00a <__printf_impl+0x142>
   1c084:	06300793          	li	a5,99
   1c088:	50355ddb          	beqc	a0,99,1c1a2 <__printf_impl+0x2da>
   1c08c:	04a7e463          	bltu	a5,a0,1c0d4 <__printf_impl+0x20c>
   1c090:	fa1568db          	bnec	a0,97,1c040 <__printf_impl+0x178>
   1c094:	041d                	c.addi	s0,7
   1c096:	9861                	c.andi	s0,-8
   1c098:	00042803          	lw	a6,0(s0)
   1c09c:	00442883          	lw	a7,4(s0)
   1c0a0:	02057b93          	andi	s7,a0,32
   1c0a4:	87aa                	c.mv	a5,a0
   1c0a6:	86c2                	c.mv	a3,a6
   1c0a8:	8746                	c.mv	a4,a7
   1c0aa:	100c                	c.addi4spn	a1,sp,32
   1c0ac:	1048                	c.addi4spn	a0,sp,36
   1c0ae:	00840493          	addi	s1,s0,8
   1c0b2:	2e15                	c.jal	1c3e6 <__printf_float_impl>
   1c0b4:	aa4d                	c.j	1c266 <__printf_impl+0x39e>
   1c0b6:	07000793          	li	a5,112
   1c0ba:	4d055adb          	beqc	a0,112,1c18e <__printf_impl+0x2c6>
   1c0be:	04a7e163          	bltu	a5,a0,1c100 <__printf_impl+0x238>
   1c0c2:	06e00793          	li	a5,110
   1c0c6:	5ae554db          	beqc	a0,110,1c26e <__printf_impl+0x3a6>
   1c0ca:	45a1                	c.li	a1,8
   1c0cc:	0ca7e263          	bltu	a5,a0,1c190 <__printf_impl+0x2c8>
   1c0d0:	f69568db          	bnec	a0,105,1c040 <__printf_impl+0x178>
   1c0d4:	5682                	c.lwsp	a3,32(sp)
   1c0d6:	0e66f15b          	bbc	a3,6,1c1b8 <__printf_impl+0x2f0>
   1c0da:	00040703          	lb	a4,0(s0)
   1c0de:	00440493          	addi	s1,s0,4
   1c0e2:	41f75793          	srai	a5,a4,0x1f
   1c0e6:	1007d063          	bgez	a5,1c1e6 <__printf_impl+0x31e>
   1c0ea:	40e00733          	neg	a4,a4
   1c0ee:	00e035b3          	snez	a1,a4
   1c0f2:	40f007b3          	neg	a5,a5
   1c0f6:	8f8d                	c.sub	a5,a1
   1c0f8:	4006e693          	ori	a3,a3,1024
   1c0fc:	d036                	c.swsp	a3,32(sp)
   1c0fe:	a0e5                	c.j	1c1e6 <__printf_impl+0x31e>
   1c100:	515554db          	beqc	a0,117,1c208 <__printf_impl+0x340>
   1c104:	498555db          	beqc	a0,120,1c18e <__printf_impl+0x2c6>
   1c108:	f3356cdb          	bnec	a0,115,1c040 <__printf_impl+0x178>
   1c10c:	00042a83          	lw	s5,0(s0)
   1c110:	85b2                	c.mv	a1,a2
   1c112:	8556                	c.mv	a0,s5
   1c114:	c632                	c.swsp	a2,12(sp)
   1c116:	7a4000ef          	jal	ra,1c8ba <strnlen>
   1c11a:	57fd                	c.li	a5,-1
   1c11c:	00440493          	addi	s1,s0,4
   1c120:	00fc8563          	beq	s9,a5,1c12a <__printf_impl+0x262>
   1c124:	4632                	c.lwsp	a2,12(sp)
   1c126:	f0c5057f          	minw	a0,a0,a2
   1c12a:	00aa8433          	add	s0,s5,a0
   1c12e:	4b81                	c.li	s7,0
   1c130:	5782                	c.lwsp	a5,32(sp)
   1c132:	02d00693          	li	a3,45
   1c136:	40a7fb5b          	bbs	a5,10,1c14c <__printf_impl+0x284>
   1c13a:	02b00693          	li	a3,43
   1c13e:	4037f75b          	bbs	a5,3,1c14c <__printf_impl+0x284>
   1c142:	8cd2                	c.mv	s9,s4
   1c144:	0017f85b          	bbc	a5,1,1c154 <__printf_impl+0x28c>
   1c148:	02000693          	li	a3,32
   1c14c:	01d10c93          	addi	s9,sp,29
   1c150:	00d10e23          	sb	a3,28(sp)
   1c154:	0167f6b3          	and	a3,a5,s6
   1c158:	ca91                	c.beqz	a3,1c16c <__printf_impl+0x2a4>
   1c15a:	03000693          	li	a3,48
   1c15e:	00dc8023          	sb	a3,0(s9)
   1c162:	05800693          	li	a3,88
   1c166:	00dc80a3          	sb	a3,1(s9)
   1c16a:	0c89                	c.addi	s9,2
   1c16c:	5627f35b          	bbs	a5,2,1c2d2 <__printf_impl+0x40a>
   1c170:	41540db3          	sub	s11,s0,s5
   1c174:	4057fa5b          	bbs	a5,5,1c188 <__printf_impl+0x2c0>
   1c178:	41bc0d33          	sub	s10,s8,s11
   1c17c:	414c87b3          	sub	a5,s9,s4
   1c180:	40fd0d33          	sub	s10,s10,a5
   1c184:	17a04663          	bgtz	s10,1c2f0 <__printf_impl+0x428>
   1c188:	8d52                	c.mv	s10,s4
   1c18a:	9c52                	c.add	s8,s4
   1c18c:	aaad                	c.j	1c306 <__printf_impl+0x43e>
   1c18e:	45c1                	c.li	a1,16
   1c190:	5782                	c.lwsp	a5,32(sp)
   1c192:	0667fd5b          	bbc	a5,6,1c20c <__printf_impl+0x344>
   1c196:	00044703          	lbu	a4,0(s0)
   1c19a:	00440493          	addi	s1,s0,4
   1c19e:	4781                	c.li	a5,0
   1c1a0:	a859                	c.j	1c236 <__printf_impl+0x36e>
   1c1a2:	401c                	c.lw	a5,0(s0)
   1c1a4:	00440493          	addi	s1,s0,4
   1c1a8:	4b81                	c.li	s7,0
   1c1aa:	02510413          	addi	s0,sp,37
   1c1ae:	02f10223          	sb	a5,36(sp)
   1c1b2:	02410a93          	addi	s5,sp,36
   1c1b6:	bfad                	c.j	1c130 <__printf_impl+0x268>
   1c1b8:	0076f75b          	bbc	a3,7,1c1c6 <__printf_impl+0x2fe>
   1c1bc:	00440493          	addi	s1,s0,4
   1c1c0:	00041703          	lh	a4,0(s0)
   1c1c4:	bf39                	c.j	1c0e2 <__printf_impl+0x21a>
   1c1c6:	0086f65b          	bbc	a3,8,1c1d2 <__printf_impl+0x30a>
   1c1ca:	00440493          	addi	s1,s0,4
   1c1ce:	4018                	c.lw	a4,0(s0)
   1c1d0:	bf09                	c.j	1c0e2 <__printf_impl+0x21a>
   1c1d2:	be96fc5b          	bbc	a3,9,1c1ca <__printf_impl+0x302>
   1c1d6:	041d                	c.addi	s0,7
   1c1d8:	9861                	c.andi	s0,-8
   1c1da:	405c                	c.lw	a5,4(s0)
   1c1dc:	00840493          	addi	s1,s0,8
   1c1e0:	4018                	c.lw	a4,0(s0)
   1c1e2:	0007c963          	bltz	a5,1c1f4 <__printf_impl+0x32c>
   1c1e6:	56fd                	c.li	a3,-1
   1c1e8:	45a9                	c.li	a1,10
   1c1ea:	4b81                	c.li	s7,0
   1c1ec:	04dc9a63          	bne	s9,a3,1c240 <__printf_impl+0x378>
   1c1f0:	4605                	c.li	a2,1
   1c1f2:	a0b5                	c.j	1c25e <__printf_impl+0x396>
   1c1f4:	ee071be3          	bnez	a4,1c0ea <__printf_impl+0x222>
   1c1f8:	800005b7          	lui	a1,0x80000
   1c1fc:	eeb797e3          	bne	a5,a1,1c0ea <__printf_impl+0x222>
   1c200:	4701                	c.li	a4,0
   1c202:	800007b7          	lui	a5,0x80000
   1c206:	bdcd                	c.j	1c0f8 <__printf_impl+0x230>
   1c208:	45a9                	c.li	a1,10
   1c20a:	b759                	c.j	1c190 <__printf_impl+0x2c8>
   1c20c:	0077f75b          	bbc	a5,7,1c21a <__printf_impl+0x352>
   1c210:	00440493          	addi	s1,s0,4
   1c214:	00045703          	lhu	a4,0(s0)
   1c218:	b759                	c.j	1c19e <__printf_impl+0x2d6>
   1c21a:	0087f65b          	bbc	a5,8,1c226 <__printf_impl+0x35e>
   1c21e:	00440493          	addi	s1,s0,4
   1c222:	4018                	c.lw	a4,0(s0)
   1c224:	bfad                	c.j	1c19e <__printf_impl+0x2d6>
   1c226:	be97fc5b          	bbc	a5,9,1c21e <__printf_impl+0x356>
   1c22a:	041d                	c.addi	s0,7
   1c22c:	9861                	c.andi	s0,-8
   1c22e:	4018                	c.lw	a4,0(s0)
   1c230:	405c                	c.lw	a5,4(s0)
   1c232:	00840493          	addi	s1,s0,8
   1c236:	56fd                	c.li	a3,-1
   1c238:	02057b93          	andi	s7,a0,32
   1c23c:	02dc8763          	beq	s9,a3,1c26a <__printf_impl+0x3a2>
   1c240:	5682                	c.lwsp	a3,32(sp)
   1c242:	fdf6f693          	andi	a3,a3,-33
   1c246:	d036                	c.swsp	a3,32(sp)
   1c248:	0105eb5b          	bnec	a1,16,1c25e <__printf_impl+0x396>
   1c24c:	5682                	c.lwsp	a3,32(sp)
   1c24e:	0046f85b          	bbc	a3,4,1c25e <__printf_impl+0x396>
   1c252:	00f76533          	or	a0,a4,a5
   1c256:	c501                	c.beqz	a0,1c25e <__printf_impl+0x396>
   1c258:	0166e6b3          	or	a3,a3,s6
   1c25c:	d036                	c.swsp	a3,32(sp)
   1c25e:	86b2                	c.mv	a3,a2
   1c260:	5602                	c.lwsp	a2,32(sp)
   1c262:	1048                	c.addi4spn	a0,sp,36
   1c264:	3939                	c.jal	1be82 <__print_integral>
   1c266:	842a                	c.mv	s0,a0
   1c268:	b7a9                	c.j	1c1b2 <__printf_impl+0x2ea>
   1c26a:	4605                	c.li	a2,1
   1c26c:	bff1                	c.j	1c248 <__printf_impl+0x380>
   1c26e:	45a2                	c.lwsp	a1,8(sp)
   1c270:	5682                	c.lwsp	a3,32(sp)
   1c272:	00440493          	addi	s1,s0,4
   1c276:	170aa7ab          	lwgp	a5,53616 # 1d26c <__printf_count>
   1c27a:	4018                	c.lw	a4,0(s0)
   1c27c:	0066f85b          	bbc	a3,6,1c28c <__printf_impl+0x3c4>
   1c280:	00f70023          	sb	a5,0(a4)
   1c284:	1040                	c.addi4spn	s0,sp,36
   1c286:	4b81                	c.li	s7,0
   1c288:	8aa2                	c.mv	s5,s0
   1c28a:	b55d                	c.j	1c130 <__printf_impl+0x268>
   1c28c:	0076f55b          	bbc	a3,7,1c296 <__printf_impl+0x3ce>
   1c290:	00f71023          	sh	a5,0(a4)
   1c294:	bfc5                	c.j	1c284 <__printf_impl+0x3bc>
   1c296:	c31c                	c.sw	a5,0(a4)
   1c298:	fe86f65b          	bbs	a3,8,1c284 <__printf_impl+0x3bc>
   1c29c:	be96f45b          	bbc	a3,9,1c284 <__printf_impl+0x3bc>
   1c2a0:	87fd                	c.srai	a5,0x1f
   1c2a2:	c35c                	c.sw	a5,4(a4)
   1c2a4:	b7c5                	c.j	1c284 <__printf_impl+0x3bc>
   1c2a6:	000dc503          	lbu	a0,0(s11)
   1c2aa:	0d85                	c.addi	s11,1
   1c2ac:	01756533          	or	a0,a0,s7
   1c2b0:	9982                	c.jalr	s3
   1c2b2:	41bc0d33          	sub	s10,s8,s11
   1c2b6:	ff9de8e3          	bltu	s11,s9,1c2a6 <__printf_impl+0x3de>
   1c2ba:	8c56                	c.mv	s8,s5
   1c2bc:	01841e63          	bne	s0,s8,1c2d8 <__printf_impl+0x410>
   1c2c0:	41540433          	sub	s0,s0,s5
   1c2c4:	408d0433          	sub	s0,s10,s0
   1c2c8:	00804f63          	bgtz	s0,1c2e6 <__printf_impl+0x41e>
   1c2cc:	0905                	c.addi	s2,1
   1c2ce:	8426                	c.mv	s0,s1
   1c2d0:	b919                	c.j	1bee6 <__printf_impl+0x1e>
   1c2d2:	8dd2                	c.mv	s11,s4
   1c2d4:	9c52                	c.add	s8,s4
   1c2d6:	bff1                	c.j	1c2b2 <__printf_impl+0x3ea>
   1c2d8:	000c4503          	lbu	a0,0(s8)
   1c2dc:	0c05                	c.addi	s8,1
   1c2de:	01756533          	or	a0,a0,s7
   1c2e2:	9982                	c.jalr	s3
   1c2e4:	bfe1                	c.j	1c2bc <__printf_impl+0x3f4>
   1c2e6:	02000513          	li	a0,32
   1c2ea:	9982                	c.jalr	s3
   1c2ec:	147d                	c.addi	s0,-1
   1c2ee:	bfe9                	c.j	1c2c8 <__printf_impl+0x400>
   1c2f0:	02000513          	li	a0,32
   1c2f4:	9982                	c.jalr	s3
   1c2f6:	1d7d                	c.addi	s10,-1
   1c2f8:	b571                	c.j	1c184 <__printf_impl+0x2bc>
   1c2fa:	000d4503          	lbu	a0,0(s10)
   1c2fe:	0d05                	c.addi	s10,1
   1c300:	01756533          	or	a0,a0,s7
   1c304:	9982                	c.jalr	s3
   1c306:	41ac07b3          	sub	a5,s8,s10
   1c30a:	ff9d68e3          	bltu	s10,s9,1c2fa <__printf_impl+0x432>
   1c30e:	5682                	c.lwsp	a3,32(sp)
   1c310:	0056f65b          	bbc	a3,5,1c31c <__printf_impl+0x454>
   1c314:	41b78db3          	sub	s11,a5,s11
   1c318:	01b04b63          	bgtz	s11,1c32e <__printf_impl+0x466>
   1c31c:	fb5408e3          	beq	s0,s5,1c2cc <__printf_impl+0x404>
   1c320:	000ac503          	lbu	a0,0(s5)
   1c324:	0a85                	c.addi	s5,1
   1c326:	01756533          	or	a0,a0,s7
   1c32a:	9982                	c.jalr	s3
   1c32c:	bfc5                	c.j	1c31c <__printf_impl+0x454>
   1c32e:	03000513          	li	a0,48
   1c332:	9982                	c.jalr	s3
   1c334:	1dfd                	c.addi	s11,-1
   1c336:	b7cd                	c.j	1c318 <__printf_impl+0x450>

0001c338 <__int_to_poly>:
   1c338:	872a                	c.mv	a4,a0
   1c33a:	87ae                	c.mv	a5,a1
   1c33c:	4501                	c.li	a0,0
   1c33e:	00f766b3          	or	a3,a4,a5
   1c342:	e291                	c.bnez	a3,1c346 <__int_to_poly+0xe>
   1c344:	8082                	c.jr	ra
   1c346:	00e61023          	sh	a4,0(a2)
   1c34a:	0505                	c.addi	a0,1
   1c34c:	df07077f          	wexti	a4,a4,16
   1c350:	0609                	c.addi	a2,2
   1c352:	83c1                	c.srli	a5,0x10
   1c354:	b7ed                	c.j	1c33e <__int_to_poly+0x6>

0001c356 <__print_integral_poly>:
   1c356:	9ddff2ef          	jal	t0,1bd32 <__riscv_save_0>
   1c35a:	88c2                	c.mv	a7,a6
   1c35c:	84ba                	c.mv	s1,a4
   1c35e:	187d                	c.addi	a6,-1
   1c360:	0b17875b          	lea.h	a4,a5,a7
   1c364:	8342                	c.mv	t1,a6
   1c366:	4401                	c.li	s0,0
   1c368:	8e3a                	c.mv	t3,a4
   1c36a:	1779                	c.addi	a4,-2
   1c36c:	02035463          	bgez	t1,1c394 <__print_integral_poly+0x3e>
   1c370:	05105063          	blez	a7,1c3b0 <__print_integral_poly+0x5a>
   1c374:	ffee5703          	lhu	a4,-2(t3) # 7ffffffe <_stack+0x7cfffffe>
   1c378:	eb15                	c.bnez	a4,1c3ac <__print_integral_poly+0x56>
   1c37a:	03005b63          	blez	a6,1c3b0 <__print_integral_poly+0x5a>
   1c37e:	8726                	c.mv	a4,s1
   1c380:	16fd                	c.addi	a3,-1
   1c382:	3fd1                	c.jal	1c356 <__print_integral_poly>
   1c384:	87aa                	c.mv	a5,a0
   1c386:	0505                	c.addi	a0,1
   1c388:	00878023          	sb	s0,0(a5) # 80000000 <_stack+0x7d000000>
   1c38c:	409c                	c.lw	a5,0(s1)
   1c38e:	0785                	c.addi	a5,1
   1c390:	c09c                	c.sw	a5,0(s1)
   1c392:	b2d1                	c.j	1bd56 <__riscv_restore_0>
   1c394:	00075e83          	lhu	t4,0(a4)
   1c398:	0442                	c.slli	s0,0x10
   1c39a:	9476                	c.add	s0,t4
   1c39c:	02b45eb3          	divu	t4,s0,a1
   1c3a0:	137d                	c.addi	t1,-1
   1c3a2:	02b47433          	remu	s0,s0,a1
   1c3a6:	01d71023          	sh	t4,0(a4)
   1c3aa:	b7c1                	c.j	1c36a <__print_integral_poly+0x14>
   1c3ac:	8846                	c.mv	a6,a7
   1c3ae:	bfc1                	c.j	1c37e <__print_integral_poly+0x28>
   1c3b0:	c011                	c.beqz	s0,1c3b4 <__print_integral_poly+0x5e>
   1c3b2:	16fd                	c.addi	a3,-1
   1c3b4:	00d04763          	bgtz	a3,1c3c2 <__print_integral_poly+0x6c>
   1c3b8:	0085ee5b          	bnec	a1,8,1c3d4 <__print_integral_poly+0x7e>
   1c3bc:	00467c5b          	bbc	a2,4,1c3d4 <__print_integral_poly+0x7e>
   1c3c0:	4685                	c.li	a3,1
   1c3c2:	87aa                	c.mv	a5,a0
   1c3c4:	40a78733          	sub	a4,a5,a0
   1c3c8:	00d74b63          	blt	a4,a3,1c3de <__print_integral_poly+0x88>
   1c3cc:	4781                	c.li	a5,0
   1c3ce:	f2f686ff          	maxw	a3,a3,a5
   1c3d2:	9536                	c.add	a0,a3
   1c3d4:	dc45                	c.beqz	s0,1c38c <__print_integral_poly+0x36>
   1c3d6:	00850023          	sb	s0,0(a0)
   1c3da:	0505                	c.addi	a0,1
   1c3dc:	bf45                	c.j	1c38c <__print_integral_poly+0x36>
   1c3de:	0785                	c.addi	a5,1
   1c3e0:	fe078fa3          	sb	zero,-1(a5)
   1c3e4:	b7c5                	c.j	1c3c4 <__print_integral_poly+0x6e>

0001c3e6 <__printf_float_impl>:
   1c3e6:	91dff2ef          	jal	t0,1bd02 <__riscv_save_12>
   1c3ea:	0df7fc13          	andi	s8,a5,223
   1c3ee:	8b2a                	c.mv	s6,a0
   1c3f0:	892e                	c.mv	s2,a1
   1c3f2:	7169                	c.addi16sp	sp,-304
   1c3f4:	84b2                	c.mv	s1,a2
   1c3f6:	8536                	c.mv	a0,a3
   1c3f8:	85ba                	c.mv	a1,a4
   1c3fa:	8a3e                	c.mv	s4,a5
   1c3fc:	467c6a5b          	bnec	s8,71,1c470 <__printf_float_impl+0x8a>
   1c400:	00092983          	lw	s3,0(s2)
   1c404:	0109c993          	xori	s3,s3,16
   1c408:	1049a9db          	bfoz	s3,s3,4,4
   1c40c:	0604d863          	bgez	s1,1c47c <__printf_float_impl+0x96>
   1c410:	4499                	c.li	s1,6
   1c412:	401c635b          	bnec	s8,65,1c418 <__printf_float_impl+0x32>
   1c416:	44b5                	c.li	s1,13
   1c418:	dff5047f          	wexti	s0,a0,31
   1c41c:	8055                	c.srli	s0,0x15
   1c41e:	8aaa                	c.mv	s5,a0
   1c420:	4c05ad5b          	bfoz	s10,a1,19,0
   1c424:	0005d863          	bgez	a1,1c434 <__printf_float_impl+0x4e>
   1c428:	00092783          	lw	a5,0(s2)
   1c42c:	4007e793          	ori	a5,a5,1024
   1c430:	00f92023          	sw	a5,0(s2)
   1c434:	401c6a5b          	bnec	s8,65,1c448 <__printf_float_impl+0x62>
   1c438:	00092783          	lw	a5,0(s2)
   1c43c:	6705                	c.lui	a4,0x1
   1c43e:	80070713          	addi	a4,a4,-2048 # 800 <_ITB_BASE_+0x800>
   1c442:	8fd9                	c.or	a5,a4
   1c444:	00f92023          	sw	a5,0(s2)
   1c448:	7ff00793          	li	a5,2047
   1c44c:	04f41163          	bne	s0,a5,1c48e <__printf_float_impl+0xa8>
   1c450:	00092783          	lw	a5,0(s2)
   1c454:	00ad66b3          	or	a3,s10,a0
   1c458:	fdf7f793          	andi	a5,a5,-33
   1c45c:	00f92023          	sw	a5,0(s2)
   1c460:	c685                	c.beqz	a3,1c488 <__printf_float_impl+0xa2>
   1c462:	6e52958b          	addigp	a1,40676 # 19fe0 <twiddleCoef_16_q15+0xc0>
   1c466:	855a                	c.mv	a0,s6
   1c468:	2ed1                	c.jal	1c83c <strcpy>
   1c46a:	050d                	c.addi	a0,3
   1c46c:	6155                	c.addi16sp	sp,304
   1c46e:	b8c1                	c.j	1bd3e <__riscv_restore_12>
   1c470:	4981                	c.li	s3,0
   1c472:	f81c6d5b          	bnec	s8,65,1c40c <__printf_float_impl+0x26>
   1c476:	01f65993          	srli	s3,a2,0x1f
   1c47a:	bf49                	c.j	1c40c <__printf_float_impl+0x26>
   1c47c:	fcd1                	c.bnez	s1,1c418 <__printf_float_impl+0x32>
   1c47e:	fb9c0493          	addi	s1,s8,-71
   1c482:	0014b493          	seqz	s1,s1
   1c486:	bf49                	c.j	1c418 <__printf_float_impl+0x32>
   1c488:	6e12958b          	addigp	a1,40672 # 19fdc <twiddleCoef_16_q15+0xbc>
   1c48c:	bfe9                	c.j	1c466 <__printf_float_impl+0x80>
   1c48e:	e811                	c.bnez	s0,1c4a2 <__printf_float_impl+0xbc>
   1c490:	00ad66b3          	or	a3,s10,a0
   1c494:	c0300413          	li	s0,-1021
   1c498:	18069363          	bnez	a3,1c61e <__printf_float_impl+0x238>
   1c49c:	03500413          	li	s0,53
   1c4a0:	a829                	c.j	1c4ba <__printf_float_impl+0xd4>
   1c4a2:	00100db7          	lui	s11,0x100
   1c4a6:	01adedb3          	or	s11,s11,s10
   1c4aa:	c0240413          	addi	s0,s0,-1022
   1c4ae:	03400793          	li	a5,52
   1c4b2:	8aaa                	c.mv	s5,a0
   1c4b4:	8d6e                	c.mv	s10,s11
   1c4b6:	1687d263          	bge	a5,s0,1c61a <__printf_float_impl+0x234>
   1c4ba:	fcb40413          	addi	s0,s0,-53
   1c4be:	00445b93          	srli	s7,s0,0x4
   1c4c2:	001b9c93          	slli	s9,s7,0x1
   1c4c6:	8666                	c.mv	a2,s9
   1c4c8:	4581                	c.li	a1,0
   1c4ca:	1008                	c.addi4spn	a0,sp,32
   1c4cc:	867fe0ef          	jal	ra,1ad32 <memset>
   1c4d0:	883d                	c.andi	s0,15
   1c4d2:	1a0c                	c.addi4spn	a1,sp,304
   1c4d4:	9cae                	c.add	s9,a1
   1c4d6:	8622                	c.mv	a2,s0
   1c4d8:	8556                	c.mv	a0,s5
   1c4da:	85ea                	c.mv	a1,s10
   1c4dc:	2601                	c.jal	1c7dc <__ashldi3>
   1c4de:	4641                	c.li	a2,16
   1c4e0:	eeac9823          	sh	a0,-272(s9)
   1c4e4:	1014                	c.addi4spn	a3,sp,32
   1c4e6:	0b85                	c.addi	s7,1
   1c4e8:	8e01                	c.sub	a2,s0
   1c4ea:	8556                	c.mv	a0,s5
   1c4ec:	85ea                	c.mv	a1,s10
   1c4ee:	0b768cdb          	lea.h	s9,a3,s7
   1c4f2:	2e29                	c.jal	1c80c <__lshrdi3>
   1c4f4:	8666                	c.mv	a2,s9
   1c4f6:	3589                	c.jal	1c338 <__int_to_poly>
   1c4f8:	4c81                	c.li	s9,0
   1c4fa:	9baa                	c.add	s7,a0
   1c4fc:	57fd                	c.li	a5,-1
   1c4fe:	ce3e                	c.swsp	a5,28(sp)
   1c500:	4429                	c.li	s0,10
   1c502:	401c635b          	bnec	s8,65,1c508 <__printf_float_impl+0x122>
   1c506:	4441                	c.li	s0,16
   1c508:	885e                	c.mv	a6,s7
   1c50a:	101c                	c.addi4spn	a5,sp,32
   1c50c:	4685                	c.li	a3,1
   1c50e:	0878                	c.addi4spn	a4,sp,28
   1c510:	4601                	c.li	a2,0
   1c512:	85a2                	c.mv	a1,s0
   1c514:	855a                	c.mv	a0,s6
   1c516:	3581                	c.jal	1c356 <__print_integral_poly>
   1c518:	02e00793          	li	a5,46
   1c51c:	00f50023          	sb	a5,0(a0)
   1c520:	001bbb93          	seqz	s7,s7
   1c524:	0dba7a13          	andi	s4,s4,219
   1c528:	00150693          	addi	a3,a0,1
   1c52c:	87de                	c.mv	a5,s7
   1c52e:	401a535b          	beqc	s4,65,1c534 <__printf_float_impl+0x14e>
   1c532:	4781                	c.li	a5,0
   1c534:	00148713          	addi	a4,s1,1
   1c538:	973e                	c.add	a4,a5
   1c53a:	fffc8893          	addi	a7,s9,-1
   1c53e:	001c9613          	slli	a2,s9,0x1
   1c542:	112c                	c.addi4spn	a1,sp,168
   1c544:	95b2                	c.add	a1,a2
   1c546:	8846                	c.mv	a6,a7
   1c548:	4781                	c.li	a5,0
   1c54a:	15f9                	c.addi	a1,-2
   1c54c:	16085d63          	bgez	a6,1c6c6 <__printf_float_impl+0x2e0>
   1c550:	01905863          	blez	s9,1c560 <__printf_float_impl+0x17a>
   1c554:	1a0c                	c.addi4spn	a1,sp,304
   1c556:	962e                	c.add	a2,a1
   1c558:	f7665603          	lhu	a2,-138(a2)
   1c55c:	e211                	c.bnez	a2,1c560 <__printf_float_impl+0x17a>
   1c55e:	8cc6                	c.mv	s9,a7
   1c560:	160b8c63          	beqz	s7,1c6d8 <__printf_float_impl+0x2f2>
   1c564:	4672                	c.lwsp	a2,28(sp)
   1c566:	0017bb93          	seqz	s7,a5
   1c56a:	167d                	c.addi	a2,-1
   1c56c:	ce32                	c.swsp	a2,28(sp)
   1c56e:	0685                	c.addi	a3,1
   1c570:	fef68fa3          	sb	a5,-1(a3)
   1c574:	f379                	c.bnez	a4,1c53a <__printf_float_impl+0x154>
   1c576:	567c645b          	bnec	s8,71,1c6de <__printf_float_impl+0x2f8>
   1c57a:	47f2                	c.lwsp	a5,28(sp)
   1c57c:	fff48713          	addi	a4,s1,-1
   1c580:	1897d163          	bge	a5,s1,1c702 <__printf_float_impl+0x31c>
   1c584:	5671                	c.li	a2,-4
   1c586:	16c7ce63          	blt	a5,a2,1c702 <__printf_float_impl+0x31c>
   1c58a:	40f704b3          	sub	s1,a4,a5
   1c58e:	04600c13          	li	s8,70
   1c592:	0489                	c.addi	s1,2
   1c594:	9526                	c.add	a0,s1
   1c596:	fff54683          	lbu	a3,-1(a0)
   1c59a:	40145713          	srai	a4,s0,0x1
   1c59e:	fff50793          	addi	a5,a0,-1
   1c5a2:	00e6a6b3          	slt	a3,a3,a4
   1c5a6:	0016c693          	xori	a3,a3,1
   1c5aa:	863e                	c.mv	a2,a5
   1c5ac:	1acb7663          	bgeu	s6,a2,1c758 <__printf_float_impl+0x372>
   1c5b0:	18069263          	bnez	a3,1c734 <__printf_float_impl+0x34e>
   1c5b4:	17fd                	c.addi	a5,-1
   1c5b6:	00178513          	addi	a0,a5,1
   1c5ba:	00fb7763          	bgeu	s6,a5,1c5c8 <__printf_float_impl+0x1e2>
   1c5be:	00098563          	beqz	s3,1c5c8 <__printf_float_impl+0x1e2>
   1c5c2:	0007c703          	lbu	a4,0(a5)
   1c5c6:	d77d                	c.beqz	a4,1c5b4 <__printf_float_impl+0x1ce>
   1c5c8:	fff54783          	lbu	a5,-1(a0)
   1c5cc:	00e7e7db          	bnec	a5,46,1c5da <__printf_float_impl+0x1f4>
   1c5d0:	00092783          	lw	a5,0(s2)
   1c5d4:	4047f35b          	bbs	a5,4,1c5da <__printf_float_impl+0x1f4>
   1c5d8:	157d                	c.addi	a0,-1
   1c5da:	46bd                	c.li	a3,15
   1c5dc:	76d2970b          	addigp	a4,40812 # 1a068 <__digits>
   1c5e0:	1aab6a63          	bltu	s6,a0,1c794 <__printf_float_impl+0x3ae>
   1c5e4:	5c5c635b          	bnec	s8,69,1c7aa <__printf_float_impl+0x3c4>
   1c5e8:	01850023          	sb	s8,0(a0)
   1c5ec:	4772                	c.lwsp	a4,28(sp)
   1c5ee:	02d00793          	li	a5,45
   1c5f2:	00074463          	bltz	a4,1c5fa <__printf_float_impl+0x214>
   1c5f6:	02b00793          	li	a5,43
   1c5fa:	00f500a3          	sb	a5,1(a0)
   1c5fe:	47f2                	c.lwsp	a5,28(sp)
   1c600:	4689                	c.li	a3,2
   1c602:	40f00733          	neg	a4,a5
   1c606:	f2f7077f          	maxw	a4,a4,a5
   1c60a:	41f75793          	srai	a5,a4,0x1f
   1c60e:	4601                	c.li	a2,0
   1c610:	45a9                	c.li	a1,10
   1c612:	0509                	c.addi	a0,2
   1c614:	86fff0ef          	jal	ra,1be82 <__print_integral>
   1c618:	bd91                	c.j	1c46c <__printf_float_impl+0x86>
   1c61a:	06804363          	bgtz	s0,1c680 <__printf_float_impl+0x29a>
   1c61e:	40800433          	neg	s0,s0
   1c622:	00445b93          	srli	s7,s0,0x4
   1c626:	001b9d93          	slli	s11,s7,0x1
   1c62a:	866e                	c.mv	a2,s11
   1c62c:	4581                	c.li	a1,0
   1c62e:	1128                	c.addi4spn	a0,sp,168
   1c630:	f02fe0ef          	jal	ra,1ad32 <memset>
   1c634:	112c                	c.addi4spn	a1,sp,168
   1c636:	883d                	c.andi	s0,15
   1c638:	9dae                	c.add	s11,a1
   1c63a:	02540413          	addi	s0,s0,37
   1c63e:	876e                	c.mv	a4,s11
   1c640:	4c81                	c.li	s9,0
   1c642:	001c8793          	addi	a5,s9,1
   1c646:	8622                	c.mv	a2,s0
   1c648:	8556                	c.mv	a0,s5
   1c64a:	85ea                	c.mv	a1,s10
   1c64c:	c63a                	c.swsp	a4,12(sp)
   1c64e:	c43e                	c.swsp	a5,8(sp)
   1c650:	2a75                	c.jal	1c80c <__lshrdi3>
   1c652:	4732                	c.lwsp	a4,12(sp)
   1c654:	1441                	c.addi	s0,-16
   1c656:	00a71023          	sh	a0,0(a4)
   1c65a:	47a2                	c.lwsp	a5,8(sp)
   1c65c:	0709                	c.addi	a4,2
   1c65e:	00045f63          	bgez	s0,1c67c <__printf_float_impl+0x296>
   1c662:	0afd8ddb          	lea.h	s11,s11,a5
   1c666:	40800633          	neg	a2,s0
   1c66a:	8556                	c.mv	a0,s5
   1c66c:	85ea                	c.mv	a1,s10
   1c66e:	0c89                	c.addi	s9,2
   1c670:	22b5                	c.jal	1c7dc <__ashldi3>
   1c672:	9cde                	c.add	s9,s7
   1c674:	00ad9023          	sh	a0,0(s11) # 100000 <_end+0xe2d90>
   1c678:	4b81                	c.li	s7,0
   1c67a:	b549                	c.j	1c4fc <__printf_float_impl+0x116>
   1c67c:	8cbe                	c.mv	s9,a5
   1c67e:	b7d1                	c.j	1c642 <__printf_float_impl+0x25c>
   1c680:	03500613          	li	a2,53
   1c684:	8e01                	c.sub	a2,s0
   1c686:	85ee                	c.mv	a1,s11
   1c688:	2251                	c.jal	1c80c <__lshrdi3>
   1c68a:	1010                	c.addi4spn	a2,sp,32
   1c68c:	3175                	c.jal	1c338 <__int_to_poly>
   1c68e:	02500793          	li	a5,37
   1c692:	8baa                	c.mv	s7,a0
   1c694:	40878433          	sub	s0,a5,s0
   1c698:	0a810d13          	addi	s10,sp,168
   1c69c:	4c81                	c.li	s9,0
   1c69e:	0c85                	c.addi	s9,1
   1c6a0:	00045a63          	bgez	s0,1c6b4 <__printf_float_impl+0x2ce>
   1c6a4:	40800633          	neg	a2,s0
   1c6a8:	8556                	c.mv	a0,s5
   1c6aa:	85ee                	c.mv	a1,s11
   1c6ac:	2a05                	c.jal	1c7dc <__ashldi3>
   1c6ae:	00ad1023          	sh	a0,0(s10)
   1c6b2:	b5a9                	c.j	1c4fc <__printf_float_impl+0x116>
   1c6b4:	8622                	c.mv	a2,s0
   1c6b6:	8556                	c.mv	a0,s5
   1c6b8:	85ee                	c.mv	a1,s11
   1c6ba:	2a89                	c.jal	1c80c <__lshrdi3>
   1c6bc:	1441                	c.addi	s0,-16
   1c6be:	00ad1023          	sh	a0,0(s10)
   1c6c2:	0d09                	c.addi	s10,2
   1c6c4:	bfe9                	c.j	1c69e <__printf_float_impl+0x2b8>
   1c6c6:	0005d303          	lhu	t1,0(a1) # 80000000 <_stack+0x7d000000>
   1c6ca:	187d                	c.addi	a6,-1
   1c6cc:	c48317ff          	maddr32	a5,t1,s0
   1c6d0:	00f59023          	sh	a5,0(a1)
   1c6d4:	83c1                	c.srli	a5,0x10
   1c6d6:	bd95                	c.j	1c54a <__printf_float_impl+0x164>
   1c6d8:	177d                	c.addi	a4,-1
   1c6da:	4b81                	c.li	s7,0
   1c6dc:	bd49                	c.j	1c56e <__printf_float_impl+0x188>
   1c6de:	8726                	c.mv	a4,s1
   1c6e0:	ea6c595b          	beqc	s8,70,1c592 <__printf_float_impl+0x1ac>
   1c6e4:	47f2                	c.lwsp	a5,28(sp)
   1c6e6:	001b0613          	addi	a2,s6,1
   1c6ea:	02f04463          	bgtz	a5,1c712 <__printf_float_impl+0x32c>
   1c6ee:	c785                	c.beqz	a5,1c716 <__printf_float_impl+0x330>
   1c6f0:	40f507b3          	sub	a5,a0,a5
   1c6f4:	02d7e963          	bltu	a5,a3,1c726 <__printf_float_impl+0x340>
   1c6f8:	001b0783          	lb	a5,1(s6)
   1c6fc:	00fb0023          	sb	a5,0(s6)
   1c700:	a819                	c.j	1c716 <__printf_float_impl+0x330>
   1c702:	04500c13          	li	s8,69
   1c706:	bff9                	c.j	1c6e4 <__printf_float_impl+0x2fe>
   1c708:	fff50783          	lb	a5,-1(a0)
   1c70c:	157d                	c.addi	a0,-1
   1c70e:	00f500a3          	sb	a5,1(a0)
   1c712:	fec51be3          	bne	a0,a2,1c708 <__printf_float_impl+0x322>
   1c716:	02e00793          	li	a5,46
   1c71a:	001b0513          	addi	a0,s6,1
   1c71e:	00fb00a3          	sb	a5,1(s6)
   1c722:	84ba                	c.mv	s1,a4
   1c724:	b5bd                	c.j	1c592 <__printf_float_impl+0x1ac>
   1c726:	0785                	c.addi	a5,1
   1c728:	fff7c603          	lbu	a2,-1(a5)
   1c72c:	0505                	c.addi	a0,1
   1c72e:	fec50fa3          	sb	a2,-1(a0)
   1c732:	b7c9                	c.j	1c6f4 <__printf_float_impl+0x30e>
   1c734:	167d                	c.addi	a2,-1
   1c736:	00064703          	lbu	a4,0(a2)
   1c73a:	a6e759db          	beqc	a4,46,1c5ac <__printf_float_impl+0x1c6>
   1c73e:	0705                	c.addi	a4,1
   1c740:	0ff77713          	andi	a4,a4,255
   1c744:	00875663          	bge	a4,s0,1c750 <__printf_float_impl+0x36a>
   1c748:	00e60023          	sb	a4,0(a2)
   1c74c:	4681                	c.li	a3,0
   1c74e:	bdb9                	c.j	1c5ac <__printf_float_impl+0x1c6>
   1c750:	8f01                	c.sub	a4,s0
   1c752:	00e60023          	sb	a4,0(a2)
   1c756:	bd99                	c.j	1c5ac <__printf_float_impl+0x1c6>
   1c758:	873e                	c.mv	a4,a5
   1c75a:	e4068de3          	beqz	a3,1c5b4 <__printf_float_impl+0x1ce>
   1c75e:	02eb6363          	bltu	s6,a4,1c784 <__printf_float_impl+0x39e>
   1c762:	4705                	c.li	a4,1
   1c764:	00eb0023          	sb	a4,0(s6)
   1c768:	4772                	c.lwsp	a4,28(sp)
   1c76a:	0705                	c.addi	a4,1
   1c76c:	ce3a                	c.swsp	a4,28(sp)
   1c76e:	426c515b          	beqc	s8,70,1c790 <__printf_float_impl+0x3aa>
   1c772:	001b0703          	lb	a4,1(s6)
   1c776:	00eb0123          	sb	a4,2(s6)
   1c77a:	02e00713          	li	a4,46
   1c77e:	00eb00a3          	sb	a4,1(s6)
   1c782:	bd0d                	c.j	1c5b4 <__printf_float_impl+0x1ce>
   1c784:	fff70683          	lb	a3,-1(a4)
   1c788:	177d                	c.addi	a4,-1
   1c78a:	00d700a3          	sb	a3,1(a4)
   1c78e:	bfc1                	c.j	1c75e <__printf_float_impl+0x378>
   1c790:	87aa                	c.mv	a5,a0
   1c792:	b50d                	c.j	1c5b4 <__printf_float_impl+0x1ce>
   1c794:	000b4783          	lbu	a5,0(s6)
   1c798:	00f6e763          	bltu	a3,a5,1c7a6 <__printf_float_impl+0x3c0>
   1c79c:	97ba                	c.add	a5,a4
   1c79e:	00078783          	lb	a5,0(a5)
   1c7a2:	00fb0023          	sb	a5,0(s6)
   1c7a6:	0b05                	c.addi	s6,1
   1c7a8:	bd25                	c.j	1c5e0 <__printf_float_impl+0x1fa>
   1c7aa:	cc1c615b          	bnec	s8,65,1c46c <__printf_float_impl+0x86>
   1c7ae:	05000793          	li	a5,80
   1c7b2:	00f50023          	sb	a5,0(a0)
   1c7b6:	4772                	c.lwsp	a4,28(sp)
   1c7b8:	02d00793          	li	a5,45
   1c7bc:	00074463          	bltz	a4,1c7c4 <__printf_float_impl+0x3de>
   1c7c0:	02b00793          	li	a5,43
   1c7c4:	00f500a3          	sb	a5,1(a0)
   1c7c8:	47f2                	c.lwsp	a5,28(sp)
   1c7ca:	4685                	c.li	a3,1
   1c7cc:	40f00733          	neg	a4,a5
   1c7d0:	f2f7077f          	maxw	a4,a4,a5
   1c7d4:	070a                	c.slli	a4,0x2
   1c7d6:	41f75793          	srai	a5,a4,0x1f
   1c7da:	bd15                	c.j	1c60e <__printf_float_impl+0x228>

0001c7dc <__ashldi3>:
   1c7dc:	ce11                	c.beqz	a2,1c7f8 <__ashldi3+0x1c>
   1c7de:	02000793          	li	a5,32
   1c7e2:	8f91                	c.sub	a5,a2
   1c7e4:	00f05c63          	blez	a5,1c7fc <__ashldi3+0x20>
   1c7e8:	00c595b3          	sll	a1,a1,a2
   1c7ec:	00f557b3          	srl	a5,a0,a5
   1c7f0:	00c51633          	sll	a2,a0,a2
   1c7f4:	8ddd                	c.or	a1,a5
   1c7f6:	8532                	c.mv	a0,a2
   1c7f8:	00008067          	ret
   1c7fc:	40f005b3          	neg	a1,a5
   1c800:	4601                	c.li	a2,0
   1c802:	00b515b3          	sll	a1,a0,a1
   1c806:	8532                	c.mv	a0,a2
   1c808:	bfc5                	c.j	1c7f8 <__ashldi3+0x1c>
   1c80a:	0001                	c.nop

0001c80c <__lshrdi3>:
   1c80c:	ce11                	c.beqz	a2,1c828 <__lshrdi3+0x1c>
   1c80e:	02000793          	li	a5,32
   1c812:	8f91                	c.sub	a5,a2
   1c814:	00f05c63          	blez	a5,1c82c <__lshrdi3+0x20>
   1c818:	00c55533          	srl	a0,a0,a2
   1c81c:	00f597b3          	sll	a5,a1,a5
   1c820:	00c5d633          	srl	a2,a1,a2
   1c824:	8d5d                	c.or	a0,a5
   1c826:	85b2                	c.mv	a1,a2
   1c828:	00008067          	ret
   1c82c:	40f00533          	neg	a0,a5
   1c830:	4601                	c.li	a2,0
   1c832:	00a5d533          	srl	a0,a1,a0
   1c836:	85b2                	c.mv	a1,a2
   1c838:	bfc5                	c.j	1c828 <__lshrdi3+0x1c>
   1c83a:	0001                	c.nop

0001c83c <strcpy>:
   1c83c:	00b567b3          	or	a5,a0,a1
   1c840:	8b8d                	c.andi	a5,3
   1c842:	e3ad                	c.bnez	a5,1c8a4 <strcpy+0x68>
   1c844:	4198                	c.lw	a4,0(a1)
   1c846:	200707db          	ffb	a5,a4,zero
   1c84a:	e3a9                	c.bnez	a5,1c88c <strcpy+0x50>
   1c84c:	00a007b3          	add	a5,zero,a0
   1c850:	0591                	c.addi	a1,4
   1c852:	0791                	c.addi	a5,4
   1c854:	fee7ae23          	sw	a4,-4(a5)
   1c858:	4198                	c.lw	a4,0(a1)
   1c85a:	200706db          	ffb	a3,a4,zero
   1c85e:	daed                	c.beqz	a3,1c850 <strcpy+0x14>
   1c860:	0005c703          	lbu	a4,0(a1)
   1c864:	0015c683          	lbu	a3,1(a1)
   1c868:	0025c603          	lbu	a2,2(a1)
   1c86c:	00e78023          	sb	a4,0(a5)
   1c870:	00070863          	beqz	a4,1c880 <strcpy+0x44>
   1c874:	00d780a3          	sb	a3,1(a5)
   1c878:	c681                	c.beqz	a3,1c880 <strcpy+0x44>
   1c87a:	00c78123          	sb	a2,2(a5)
   1c87e:	e219                	c.bnez	a2,1c884 <strcpy+0x48>
   1c880:	00008067          	ret
   1c884:	000781a3          	sb	zero,3(a5)
   1c888:	00008067          	ret
   1c88c:	0005c703          	lbu	a4,0(a1)
   1c890:	87aa                	c.mv	a5,a0
   1c892:	0015c683          	lbu	a3,1(a1)
   1c896:	0025c603          	lbu	a2,2(a1)
   1c89a:	00e78023          	sb	a4,0(a5)
   1c89e:	fb79                	c.bnez	a4,1c874 <strcpy+0x38>
   1c8a0:	fe1ff06f          	j	1c880 <strcpy+0x44>
   1c8a4:	00a007b3          	add	a5,zero,a0
   1c8a8:	0005c703          	lbu	a4,0(a1)
   1c8ac:	0785                	c.addi	a5,1
   1c8ae:	fee78fa3          	sb	a4,-1(a5)
   1c8b2:	0585                	c.addi	a1,1
   1c8b4:	fb75                	c.bnez	a4,1c8a8 <strcpy+0x6c>
   1c8b6:	8082                	c.jr	ra
   1c8b8:	0001                	c.nop

0001c8ba <strnlen>:
   1c8ba:	95aa                	c.add	a1,a0
   1c8bc:	87aa                	c.mv	a5,a0
   1c8be:	00b78563          	beq	a5,a1,1c8c8 <strnlen+0xe>
   1c8c2:	0007c703          	lbu	a4,0(a5)
   1c8c6:	e701                	c.bnez	a4,1c8ce <strnlen+0x14>
   1c8c8:	40a78533          	sub	a0,a5,a0
   1c8cc:	8082                	c.jr	ra
   1c8ce:	0785                	c.addi	a5,1
   1c8d0:	b7fd                	c.j	1c8be <strnlen+0x4>
	...

0001c8d4 <sqrtf>:
   1c8d4:	715d                	c.addi16sp	sp,-80
   1c8d6:	c4a2                	c.swsp	s0,72(sp)
   1c8d8:	fe22                	c.fswsp	fs0,60(sp)
   1c8da:	c686                	c.swsp	ra,76(sp)
   1c8dc:	20a50453          	fmv.s	fs0,fa0
   1c8e0:	089000ef          	jal	ra,1d168 <__ieee754_sqrtf>
   1c8e4:	160aa42b          	lwgp	s0,53600 # 1d25c <__fdlib_version>
   1c8e8:	57fd                	c.li	a5,-1
   1c8ea:	00f40b63          	beq	s0,a5,1c900 <sqrtf+0x2c>
   1c8ee:	a08427d3          	feq.s	a5,fs0,fs0
   1c8f2:	c799                	c.beqz	a5,1c900 <sqrtf+0x2c>
   1c8f4:	f00007d3          	fmv.w.x	fa5,zero
   1c8f8:	a0f417d3          	flt.s	a5,fs0,fa5
   1c8fc:	00079863          	bnez	a5,1c90c <sqrtf+0x38>
   1c900:	40b6                	c.lwsp	ra,76(sp)
   1c902:	4426                	c.lwsp	s0,72(sp)
   1c904:	7472                	c.flwsp	fs0,60(sp)
   1c906:	6161                	c.addi16sp	sp,80
   1c908:	00008067          	ret
   1c90c:	4785                	c.li	a5,1
   1c90e:	20840553          	fmv.s	fa0,fs0
   1c912:	c43e                	c.swsp	a5,8(sp)
   1c914:	68d2978b          	addigp	a5,40588 # 19f88 <twiddleCoef_16_q15+0x68>
   1c918:	c63e                	c.swsp	a5,12(sp)
   1c91a:	d402                	c.swsp	zero,40(sp)
   1c91c:	81cff0ef          	jal	ra,1b938 <__extendsfdf2>
   1c920:	cc2a                	c.swsp	a0,24(sp)
   1c922:	ce2e                	c.swsp	a1,28(sp)
   1c924:	c82a                	c.swsp	a0,16(sp)
   1c926:	ca2e                	c.swsp	a1,20(sp)
   1c928:	e405                	c.bnez	s0,1c950 <sqrtf+0x7c>
   1c92a:	d002                	c.swsp	zero,32(sp)
   1c92c:	02012223          	sw	zero,36(sp)
   1c930:	0028                	c.addi4spn	a0,sp,8
   1c932:	105000ef          	jal	ra,1d236 <matherr>
   1c936:	e509                	c.bnez	a0,1c940 <sqrtf+0x6c>
   1c938:	02100713          	li	a4,33
   1c93c:	16eac22b          	swgp	a4,53604 # 1d260 <_edata>
   1c940:	57a2                	c.lwsp	a5,40(sp)
   1c942:	c399                	c.beqz	a5,1c948 <sqrtf+0x74>
   1c944:	16fac22b          	swgp	a5,53604 # 1d260 <_edata>
   1c948:	5502                	c.lwsp	a0,32(sp)
   1c94a:	5592                	c.lwsp	a1,36(sp)
   1c94c:	0200006f          	j	1c96c <sqrtf+0x98>
   1c950:	4601                	c.li	a2,0
   1c952:	4681                	c.li	a3,0
   1c954:	8532                	c.mv	a0,a2
   1c956:	85b6                	c.mv	a1,a3
   1c958:	2015                	c.jal	1c97c <__divdf3>
   1c95a:	d02a                	c.swsp	a0,32(sp)
   1c95c:	02b12223          	sw	a1,36(sp)
   1c960:	bc24685b          	bnec	s0,2,1c930 <sqrtf+0x5c>
   1c964:	02100713          	li	a4,33
   1c968:	16eac22b          	swgp	a4,53604 # 1d260 <_edata>
   1c96c:	ccdfe0ef          	jal	ra,1b638 <__truncdfsf2>
   1c970:	40b6                	c.lwsp	ra,76(sp)
   1c972:	4426                	c.lwsp	s0,72(sp)
   1c974:	7472                	c.flwsp	fs0,60(sp)
   1c976:	6161                	c.addi16sp	sp,80
   1c978:	8082                	c.jr	ra
   1c97a:	0001                	c.nop

0001c97c <__divdf3>:
   1c97c:	1101                	c.addi	sp,-32
   1c97e:	ce22                	c.swsp	s0,28(sp)
   1c980:	cc26                	c.swsp	s1,24(sp)
   1c982:	ca4a                	c.swsp	s2,20(sp)
   1c984:	c84e                	c.swsp	s3,16(sp)
   1c986:	c652                	c.swsp	s4,12(sp)
   1c988:	00202ef3          	frrm	t4
   1c98c:	7945a75b          	bfoz	a4,a1,30,20
   1c990:	4c05a7db          	bfoz	a5,a1,19,0
   1c994:	81fd                	c.srli	a1,0x1f
   1c996:	c37d                	c.beqz	a4,1ca7c <__divdf3+0x100>
   1c998:	7ff00813          	li	a6,2047
   1c99c:	07070a63          	beq	a4,a6,1ca10 <__divdf3+0x94>
   1c9a0:	078e                	c.slli	a5,0x3
   1c9a2:	00800837          	lui	a6,0x800
   1c9a6:	01d55893          	srli	a7,a0,0x1d
   1c9aa:	0107e7b3          	or	a5,a5,a6
   1c9ae:	00f8e8b3          	or	a7,a7,a5
   1c9b2:	050e                	c.slli	a0,0x3
   1c9b4:	c0170f93          	addi	t6,a4,-1023
   1c9b8:	4781                	c.li	a5,0
   1c9ba:	4381                	c.li	t2,0
   1c9bc:	00000e13          	li	t3,0
   1c9c0:	7946a85b          	bfoz	a6,a3,30,20
   1c9c4:	4c06a75b          	bfoz	a4,a3,19,0
   1c9c8:	01f6d693          	srli	a3,a3,0x1f
   1c9cc:	06080463          	beqz	a6,1ca34 <__divdf3+0xb8>
   1c9d0:	7ff00313          	li	t1,2047
   1c9d4:	0e680a63          	beq	a6,t1,1cac8 <__divdf3+0x14c>
   1c9d8:	070e                	c.slli	a4,0x3
   1c9da:	00800f37          	lui	t5,0x800
   1c9de:	01d65313          	srli	t1,a2,0x1d
   1c9e2:	01e76733          	or	a4,a4,t5
   1c9e6:	c0180813          	addi	a6,a6,-1023 # 7ffc01 <_end+0x7e2991>
   1c9ea:	00e36733          	or	a4,t1,a4
   1c9ee:	060e                	c.slli	a2,0x3
   1c9f0:	410f8fb3          	sub	t6,t6,a6
   1c9f4:	00000293          	li	t0,0
   1c9f8:	00d5c833          	xor	a6,a1,a3
   1c9fc:	433d                	c.li	t1,15
   1c9fe:	8f42                	c.mv	t5,a6
   1ca00:	12f36063          	bltu	t1,a5,1cb20 <__divdf3+0x1a4>
   1ca04:	77d2930b          	addigp	t1,40828 # 1a078 <__digits+0x10>
   1ca08:	0cf307db          	lea.w	a5,t1,a5
   1ca0c:	439c                	c.lw	a5,0(a5)
   1ca0e:	8782                	c.jr	a5
   1ca10:	00a7e8b3          	or	a7,a5,a0
   1ca14:	0e089a63          	bnez	a7,1cb08 <__divdf3+0x18c>
   1ca18:	7946a85b          	bfoz	a6,a3,30,20
   1ca1c:	4c06a75b          	bfoz	a4,a3,19,0
   1ca20:	47a1                	c.li	a5,8
   1ca22:	4501                	c.li	a0,0
   1ca24:	7ff00f93          	li	t6,2047
   1ca28:	4389                	c.li	t2,2
   1ca2a:	4e01                	c.li	t3,0
   1ca2c:	01f6d693          	srli	a3,a3,0x1f
   1ca30:	fa0810e3          	bnez	a6,1c9d0 <__divdf3+0x54>
   1ca34:	00c76833          	or	a6,a4,a2
   1ca38:	0a080663          	beqz	a6,1cae4 <__divdf3+0x168>
   1ca3c:	af97087f          	clz32	a6,a4
   1ca40:	00071663          	bnez	a4,1ca4c <__divdf3+0xd0>
   1ca44:	af96087f          	clz32	a6,a2
   1ca48:	02080813          	addi	a6,a6,32
   1ca4c:	ff580293          	addi	t0,a6,-11
   1ca50:	4371                	c.li	t1,28
   1ca52:	36534363          	blt	t1,t0,1cdb8 <__divdf3+0x43c>
   1ca56:	4375                	c.li	t1,29
   1ca58:	ff880f13          	addi	t5,a6,-8
   1ca5c:	40530333          	sub	t1,t1,t0
   1ca60:	00665333          	srl	t1,a2,t1
   1ca64:	01e71733          	sll	a4,a4,t5
   1ca68:	00e36733          	or	a4,t1,a4
   1ca6c:	01e61633          	sll	a2,a2,t5
   1ca70:	9fc2                	c.add	t6,a6
   1ca72:	3f3f8f93          	addi	t6,t6,1011
   1ca76:	4281                	c.li	t0,0
   1ca78:	f81ff06f          	j	1c9f8 <__divdf3+0x7c>
   1ca7c:	00a7e8b3          	or	a7,a5,a0
   1ca80:	06088e63          	beqz	a7,1cafc <__divdf3+0x180>
   1ca84:	af97877f          	clz32	a4,a5
   1ca88:	00079663          	bnez	a5,1ca94 <__divdf3+0x118>
   1ca8c:	af95077f          	clz32	a4,a0
   1ca90:	02070713          	addi	a4,a4,32
   1ca94:	ff570313          	addi	t1,a4,-11
   1ca98:	4871                	c.li	a6,28
   1ca9a:	32684563          	blt	a6,t1,1cdc4 <__divdf3+0x448>
   1ca9e:	48f5                	c.li	a7,29
   1caa0:	ff870813          	addi	a6,a4,-8
   1caa4:	406888b3          	sub	a7,a7,t1
   1caa8:	011558b3          	srl	a7,a0,a7
   1caac:	010797b3          	sll	a5,a5,a6
   1cab0:	00f8e8b3          	or	a7,a7,a5
   1cab4:	01051533          	sll	a0,a0,a6
   1cab8:	c0d00f93          	li	t6,-1011
   1cabc:	40ef8fb3          	sub	t6,t6,a4
   1cac0:	4781                	c.li	a5,0
   1cac2:	4381                	c.li	t2,0
   1cac4:	4e01                	c.li	t3,0
   1cac6:	bded                	c.j	1c9c0 <__divdf3+0x44>
   1cac8:	00c76833          	or	a6,a4,a2
   1cacc:	801f8f93          	addi	t6,t6,-2047
   1cad0:	02080063          	beqz	a6,1caf0 <__divdf3+0x174>
   1cad4:	0037e793          	ori	a5,a5,3
   1cad8:	428d                	c.li	t0,3
   1cada:	f1377f5b          	bbs	a4,19,1c9f8 <__divdf3+0x7c>
   1cade:	4e41                	c.li	t3,16
   1cae0:	f19ff06f          	j	1c9f8 <__divdf3+0x7c>
   1cae4:	0017e793          	ori	a5,a5,1
   1cae8:	4701                	c.li	a4,0
   1caea:	4601                	c.li	a2,0
   1caec:	4285                	c.li	t0,1
   1caee:	b729                	c.j	1c9f8 <__divdf3+0x7c>
   1caf0:	0027e793          	ori	a5,a5,2
   1caf4:	4701                	c.li	a4,0
   1caf6:	4601                	c.li	a2,0
   1caf8:	4289                	c.li	t0,2
   1cafa:	bdfd                	c.j	1c9f8 <__divdf3+0x7c>
   1cafc:	4791                	c.li	a5,4
   1cafe:	4501                	c.li	a0,0
   1cb00:	4f81                	c.li	t6,0
   1cb02:	4385                	c.li	t2,1
   1cb04:	4e01                	c.li	t3,0
   1cb06:	bd6d                	c.j	1c9c0 <__divdf3+0x44>
   1cb08:	0137d713          	srli	a4,a5,0x13
   1cb0c:	88be                	c.mv	a7,a5
   1cb0e:	7ff00f93          	li	t6,2047
   1cb12:	47b1                	c.li	a5,12
   1cb14:	438d                	c.li	t2,3
   1cb16:	4e41                	c.li	t3,16
   1cb18:	ea0704e3          	beqz	a4,1c9c0 <__divdf3+0x44>
   1cb1c:	4e01                	c.li	t3,0
   1cb1e:	b54d                	c.j	1c9c0 <__divdf3+0x44>
   1cb20:	2f176063          	bltu	a4,a7,1ce00 <__divdf3+0x484>
   1cb24:	2ce88c63          	beq	a7,a4,1cdfc <__divdf3+0x480>
   1cb28:	85aa                	c.mv	a1,a0
   1cb2a:	1ffd                	c.addi	t6,-1
   1cb2c:	00000513          	li	a0,0
   1cb30:	0722                	c.slli	a4,0x8
   1cb32:	01865313          	srli	t1,a2,0x18
   1cb36:	00e36333          	or	t1,t1,a4
   1cb3a:	01035293          	srli	t0,t1,0x10
   1cb3e:	0258d733          	divu	a4,a7,t0
   1cb42:	3c0323db          	bfoz	t2,t1,15,0
   1cb46:	00861413          	slli	s0,a2,0x8
   1cb4a:	0105d793          	srli	a5,a1,0x10
   1cb4e:	0258f8b3          	remu	a7,a7,t0
   1cb52:	02e38633          	mul	a2,t2,a4
   1cb56:	08c2                	c.slli	a7,0x10
   1cb58:	0117e7b3          	or	a5,a5,a7
   1cb5c:	00c7fc63          	bgeu	a5,a2,1cb74 <__divdf3+0x1f8>
   1cb60:	979a                	c.add	a5,t1
   1cb62:	fff70693          	addi	a3,a4,-1
   1cb66:	3a67e963          	bltu	a5,t1,1cf18 <__divdf3+0x59c>
   1cb6a:	3ac7f763          	bgeu	a5,a2,1cf18 <__divdf3+0x59c>
   1cb6e:	1779                	c.addi	a4,-2
   1cb70:	006787b3          	add	a5,a5,t1
   1cb74:	8f91                	c.sub	a5,a2
   1cb76:	0257d6b3          	divu	a3,a5,t0
   1cb7a:	0257f7b3          	remu	a5,a5,t0
   1cb7e:	02d38933          	mul	s2,t2,a3
   1cb82:	0eb797ff          	pkbb16	a5,a5,a1
   1cb86:	0127fb63          	bgeu	a5,s2,1cb9c <__divdf3+0x220>
   1cb8a:	979a                	c.add	a5,t1
   1cb8c:	fff68613          	addi	a2,a3,-1
   1cb90:	3867e663          	bltu	a5,t1,1cf1c <__divdf3+0x5a0>
   1cb94:	3927f463          	bgeu	a5,s2,1cf1c <__divdf3+0x5a0>
   1cb98:	16f9                	c.addi	a3,-2
   1cb9a:	979a                	c.add	a5,t1
   1cb9c:	0742                	c.slli	a4,0x10
   1cb9e:	69c1                	c.lui	s3,0x10
   1cba0:	8f55                	c.or	a4,a3
   1cba2:	fff98693          	addi	a3,s3,-1 # ffff <_ITB_BASE_+0xffff>
   1cba6:	00d478b3          	and	a7,s0,a3
   1cbaa:	01075613          	srli	a2,a4,0x10
   1cbae:	031605b3          	mul	a1,a2,a7
   1cbb2:	8ef9                	c.and	a3,a4
   1cbb4:	01045493          	srli	s1,s0,0x10
   1cbb8:	412787b3          	sub	a5,a5,s2
   1cbbc:	03168a33          	mul	s4,a3,a7
   1cbc0:	892e                	c.mv	s2,a1
   1cbc2:	c4d4997f          	maddr32	s2,s1,a3
   1cbc6:	02960633          	mul	a2,a2,s1
   1cbca:	010a5693          	srli	a3,s4,0x10
   1cbce:	96ca                	c.add	a3,s2
   1cbd0:	00b6f463          	bgeu	a3,a1,1cbd8 <__divdf3+0x25c>
   1cbd4:	01360633          	add	a2,a2,s3
   1cbd8:	69c1                	c.lui	s3,0x10
   1cbda:	19fd                	c.addi	s3,-1
   1cbdc:	0106d913          	srli	s2,a3,0x10
   1cbe0:	0136f5b3          	and	a1,a3,s3
   1cbe4:	05c2                	c.slli	a1,0x10
   1cbe6:	013a76b3          	and	a3,s4,s3
   1cbea:	964a                	c.add	a2,s2
   1cbec:	00d585b3          	add	a1,a1,a3
   1cbf0:	1ec7e463          	bltu	a5,a2,1cdd8 <__divdf3+0x45c>
   1cbf4:	1cc78e63          	beq	a5,a2,1cdd0 <__divdf3+0x454>
   1cbf8:	40c786b3          	sub	a3,a5,a2
   1cbfc:	40b505b3          	sub	a1,a0,a1
   1cc00:	00b53533          	sltu	a0,a0,a1
   1cc04:	40a68533          	sub	a0,a3,a0
   1cc08:	3fff8793          	addi	a5,t6,1023
   1cc0c:	3aa30863          	beq	t1,a0,1cfbc <__divdf3+0x640>
   1cc10:	02555633          	divu	a2,a0,t0
   1cc14:	0105d693          	srli	a3,a1,0x10
   1cc18:	02557533          	remu	a0,a0,t0
   1cc1c:	02c38833          	mul	a6,t2,a2
   1cc20:	0542                	c.slli	a0,0x10
   1cc22:	8d55                	c.or	a0,a3
   1cc24:	01057c63          	bgeu	a0,a6,1cc3c <__divdf3+0x2c0>
   1cc28:	951a                	c.add	a0,t1
   1cc2a:	fff60693          	addi	a3,a2,-1
   1cc2e:	3a656763          	bltu	a0,t1,1cfdc <__divdf3+0x660>
   1cc32:	3b057563          	bgeu	a0,a6,1cfdc <__divdf3+0x660>
   1cc36:	1679                	c.addi	a2,-2
   1cc38:	00650533          	add	a0,a0,t1
   1cc3c:	41050533          	sub	a0,a0,a6
   1cc40:	025556b3          	divu	a3,a0,t0
   1cc44:	02557533          	remu	a0,a0,t0
   1cc48:	02d383b3          	mul	t2,t2,a3
   1cc4c:	0eb5157f          	pkbb16	a0,a0,a1
   1cc50:	00757c63          	bgeu	a0,t2,1cc68 <__divdf3+0x2ec>
   1cc54:	951a                	c.add	a0,t1
   1cc56:	fff68593          	addi	a1,a3,-1
   1cc5a:	36656f63          	bltu	a0,t1,1cfd8 <__divdf3+0x65c>
   1cc5e:	36757d63          	bgeu	a0,t2,1cfd8 <__divdf3+0x65c>
   1cc62:	16f9                	c.addi	a3,-2
   1cc64:	00650533          	add	a0,a0,t1
   1cc68:	0642                	c.slli	a2,0x10
   1cc6a:	8e55                	c.or	a2,a3
   1cc6c:	01065813          	srli	a6,a2,0x10
   1cc70:	031805b3          	mul	a1,a6,a7
   1cc74:	3c0626db          	bfoz	a3,a2,15,0
   1cc78:	40750533          	sub	a0,a0,t2
   1cc7c:	02d888b3          	mul	a7,a7,a3
   1cc80:	82ae                	c.mv	t0,a1
   1cc82:	c4d492ff          	maddr32	t0,s1,a3
   1cc86:	030484b3          	mul	s1,s1,a6
   1cc8a:	0108d693          	srli	a3,a7,0x10
   1cc8e:	9696                	c.add	a3,t0
   1cc90:	00b6f463          	bgeu	a3,a1,1cc98 <__divdf3+0x31c>
   1cc94:	65c1                	c.lui	a1,0x10
   1cc96:	94ae                	c.add	s1,a1
   1cc98:	6841                	c.lui	a6,0x10
   1cc9a:	187d                	c.addi	a6,-1
   1cc9c:	0106d593          	srli	a1,a3,0x10
   1cca0:	0106f6b3          	and	a3,a3,a6
   1cca4:	06c2                	c.slli	a3,0x10
   1cca6:	0108f8b3          	and	a7,a7,a6
   1ccaa:	94ae                	c.add	s1,a1
   1ccac:	00d888b3          	add	a7,a7,a3
   1ccb0:	22957263          	bgeu	a0,s1,1ced4 <__divdf3+0x558>
   1ccb4:	951a                	c.add	a0,t1
   1ccb6:	fff60693          	addi	a3,a2,-1
   1ccba:	3c656163          	bltu	a0,t1,1d07c <__divdf3+0x700>
   1ccbe:	32956963          	bltu	a0,s1,1cff0 <__divdf3+0x674>
   1ccc2:	42950f63          	beq	a0,s1,1d100 <__divdf3+0x784>
   1ccc6:	8636                	c.mv	a2,a3
   1ccc8:	00166613          	ori	a2,a2,1
   1cccc:	18f05c63          	blez	a5,1ce64 <__divdf3+0x4e8>
   1ccd0:	00767693          	andi	a3,a2,7
   1ccd4:	20069e63          	bnez	a3,1cef0 <__divdf3+0x574>
   1ccd8:	01e00833          	add	a6,zero,t5
   1ccdc:	0187785b          	bbc	a4,24,1ccec <__divdf3+0x370>
   1cce0:	ff0007b7          	lui	a5,0xff000
   1cce4:	17fd                	c.addi	a5,-1
   1cce6:	8f7d                	c.and	a4,a5
   1cce8:	400f8793          	addi	a5,t6,1024
   1ccec:	7fe00693          	li	a3,2046
   1ccf0:	12f6c263          	blt	a3,a5,1ce14 <__divdf3+0x498>
   1ccf4:	00365693          	srli	a3,a2,0x3
   1ccf8:	01d71613          	slli	a2,a4,0x1d
   1ccfc:	8e55                	c.or	a2,a3
   1ccfe:	7ff7f793          	andi	a5,a5,2047
   1cd02:	583726db          	bfoz	a3,a4,22,3
   1cd06:	a01d                	c.j	1cd2c <__divdf3+0x3b0>
   1cd08:	8f2e                	c.mv	t5,a1
   1cd0a:	8746                	c.mv	a4,a7
   1cd0c:	862a                	c.mv	a2,a0
   1cd0e:	829e                	c.mv	t0,t2
   1cd10:	3822da5b          	beqc	t0,2,1d0a4 <__divdf3+0x728>
   1cd14:	0832da5b          	beqc	t0,3,1cda8 <__divdf3+0x42c>
   1cd18:	3012dc5b          	beqc	t0,1,1d030 <__divdf3+0x6b4>
   1cd1c:	3fff8793          	addi	a5,t6,1023
   1cd20:	fadff06f          	j	1cccc <__divdf3+0x350>
   1cd24:	7ff00793          	li	a5,2047
   1cd28:	4681                	c.li	a3,0
   1cd2a:	4601                	c.li	a2,0
   1cd2c:	4581                	c.li	a1,0
   1cd2e:	fff00737          	lui	a4,0xfff00
   1cd32:	8f6d                	c.and	a4,a1
   1cd34:	4c06a6db          	bfoz	a3,a3,19,0
   1cd38:	8f55                	c.or	a4,a3
   1cd3a:	01479693          	slli	a3,a5,0x14
   1cd3e:	801007b7          	lui	a5,0x80100
   1cd42:	17fd                	c.addi	a5,-1
   1cd44:	8ff9                	c.and	a5,a4
   1cd46:	8fd5                	c.or	a5,a3
   1cd48:	087e                	c.slli	a6,0x1f
   1cd4a:	7807a7db          	bfoz	a5,a5,30,0
   1cd4e:	8532                	c.mv	a0,a2
   1cd50:	0107e5b3          	or	a1,a5,a6
   1cd54:	020e1863          	bnez	t3,1cd84 <__divdf3+0x408>
   1cd58:	4472                	c.lwsp	s0,28(sp)
   1cd5a:	44e2                	c.lwsp	s1,24(sp)
   1cd5c:	4952                	c.lwsp	s2,20(sp)
   1cd5e:	49c2                	c.lwsp	s3,16(sp)
   1cd60:	4a32                	c.lwsp	s4,12(sp)
   1cd62:	6105                	c.addi16sp	sp,32
   1cd64:	00008067          	ret
   1cd68:	8f36                	c.mv	t5,a3
   1cd6a:	b75d                	c.j	1cd10 <__divdf3+0x394>
   1cd6c:	4781                	c.li	a5,0
   1cd6e:	4681                	c.li	a3,0
   1cd70:	4601                	c.li	a2,0
   1cd72:	bf6d                	c.j	1cd2c <__divdf3+0x3b0>
   1cd74:	7ff007b7          	lui	a5,0x7ff00
   1cd78:	087e                	c.slli	a6,0x1f
   1cd7a:	4501                	c.li	a0,0
   1cd7c:	0107e5b3          	or	a1,a5,a6
   1cd80:	008e6e13          	ori	t3,t3,8
   1cd84:	001e2073          	csrs	fflags,t3
   1cd88:	4472                	c.lwsp	s0,28(sp)
   1cd8a:	44e2                	c.lwsp	s1,24(sp)
   1cd8c:	4952                	c.lwsp	s2,20(sp)
   1cd8e:	49c2                	c.lwsp	s3,16(sp)
   1cd90:	4a32                	c.lwsp	s4,12(sp)
   1cd92:	6105                	c.addi16sp	sp,32
   1cd94:	00008067          	ret
   1cd98:	4801                	c.li	a6,0
   1cd9a:	7ff00793          	li	a5,2047
   1cd9e:	000806b7          	lui	a3,0x80
   1cda2:	4601                	c.li	a2,0
   1cda4:	4e41                	c.li	t3,16
   1cda6:	b759                	c.j	1cd2c <__divdf3+0x3b0>
   1cda8:	4801                	c.li	a6,0
   1cdaa:	7ff00793          	li	a5,2047
   1cdae:	000806b7          	lui	a3,0x80
   1cdb2:	4601                	c.li	a2,0
   1cdb4:	f79ff06f          	j	1cd2c <__divdf3+0x3b0>
   1cdb8:	fd880713          	addi	a4,a6,-40 # ffd8 <_ITB_BASE_+0xffd8>
   1cdbc:	00e61733          	sll	a4,a2,a4
   1cdc0:	4601                	c.li	a2,0
   1cdc2:	b17d                	c.j	1ca70 <__divdf3+0xf4>
   1cdc4:	fd870893          	addi	a7,a4,-40 # ffefffd8 <_stack+0xfcefffd8>
   1cdc8:	011518b3          	sll	a7,a0,a7
   1cdcc:	4501                	c.li	a0,0
   1cdce:	b1ed                	c.j	1cab8 <__divdf3+0x13c>
   1cdd0:	00000693          	li	a3,0
   1cdd4:	e2b574e3          	bgeu	a0,a1,1cbfc <__divdf3+0x280>
   1cdd8:	9522                	c.add	a0,s0
   1cdda:	008536b3          	sltu	a3,a0,s0
   1cdde:	969a                	c.add	a3,t1
   1cde0:	00d787b3          	add	a5,a5,a3
   1cde4:	fff70913          	addi	s2,a4,-1
   1cde8:	0ef37c63          	bgeu	t1,a5,1cee0 <__divdf3+0x564>
   1cdec:	1ec7ea63          	bltu	a5,a2,1cfe0 <__divdf3+0x664>
   1cdf0:	30f60263          	beq	a2,a5,1d0f4 <__divdf3+0x778>
   1cdf4:	40c786b3          	sub	a3,a5,a2
   1cdf8:	874a                	c.mv	a4,s2
   1cdfa:	b509                	c.j	1cbfc <__divdf3+0x280>
   1cdfc:	d2c566e3          	bltu	a0,a2,1cb28 <__divdf3+0x1ac>
   1ce00:	01f89593          	slli	a1,a7,0x1f
   1ce04:	00155793          	srli	a5,a0,0x1
   1ce08:	0018d893          	srli	a7,a7,0x1
   1ce0c:	8ddd                	c.or	a1,a5
   1ce0e:	057e                	c.slli	a0,0x1f
   1ce10:	d21ff06f          	j	1cb30 <__divdf3+0x1b4>
   1ce14:	122ed45b          	beqc	t4,2,1cf3c <__divdf3+0x5c0>
   1ce18:	223ed25b          	beqc	t4,3,1d03c <__divdf3+0x6c0>
   1ce1c:	120e8263          	beqz	t4,1cf40 <__divdf3+0x5c4>
   1ce20:	00100737          	lui	a4,0x100
   1ce24:	7fe00793          	li	a5,2046
   1ce28:	fff70693          	addi	a3,a4,-1 # fffff <_end+0xe2d8f>
   1ce2c:	fff00613          	li	a2,-1
   1ce30:	005e6e13          	ori	t3,t3,5
   1ce34:	4581                	c.li	a1,0
   1ce36:	fff00737          	lui	a4,0xfff00
   1ce3a:	8532                	c.mv	a0,a2
   1ce3c:	00b77633          	and	a2,a4,a1
   1ce40:	4c06a75b          	bfoz	a4,a3,19,0
   1ce44:	8f51                	c.or	a4,a2
   1ce46:	80100637          	lui	a2,0x80100
   1ce4a:	167d                	c.addi	a2,-1
   1ce4c:	8e79                	c.and	a2,a4
   1ce4e:	07d2                	c.slli	a5,0x14
   1ce50:	8fd1                	c.or	a5,a2
   1ce52:	087e                	c.slli	a6,0x1f
   1ce54:	7807a7db          	bfoz	a5,a5,30,0
   1ce58:	0107e5b3          	or	a1,a5,a6
   1ce5c:	001e2073          	csrs	fflags,t3
   1ce60:	f29ff06f          	j	1cd88 <__divdf3+0x40c>
   1ce64:	efd5                	c.bnez	a5,1cf20 <__divdf3+0x5a4>
   1ce66:	00767793          	andi	a5,a2,7
   1ce6a:	86ba                	c.mv	a3,a4
   1ce6c:	24079263          	bnez	a5,1d0b0 <__divdf3+0x734>
   1ce70:	01875513          	srli	a0,a4,0x18
   1ce74:	00154513          	xori	a0,a0,1
   1ce78:	8905                	c.andi	a0,1
   1ce7a:	4585                	c.li	a1,1
   1ce7c:	41ef8713          	addi	a4,t6,1054
   1ce80:	00e697b3          	sll	a5,a3,a4
   1ce84:	00b65833          	srl	a6,a2,a1
   1ce88:	00e61733          	sll	a4,a2,a4
   1ce8c:	00e03733          	snez	a4,a4
   1ce90:	0107e633          	or	a2,a5,a6
   1ce94:	8e59                	c.or	a2,a4
   1ce96:	00767793          	andi	a5,a2,7
   1ce9a:	00b6d733          	srl	a4,a3,a1
   1ce9e:	cb89                	c.beqz	a5,1ceb0 <__divdf3+0x534>
   1cea0:	001e6e13          	ori	t3,t3,1
   1cea4:	282ed25b          	beqc	t4,2,1d128 <__divdf3+0x7ac>
   1cea8:	263ed45b          	beqc	t4,3,1d110 <__divdf3+0x794>
   1ceac:	0e0e8c63          	beqz	t4,1cfa4 <__divdf3+0x628>
   1ceb0:	2377745b          	bbc	a4,23,1d0d8 <__divdf3+0x75c>
   1ceb4:	001e6e13          	ori	t3,t3,1
   1ceb8:	4785                	c.li	a5,1
   1ceba:	4681                	c.li	a3,0
   1cebc:	00000613          	li	a2,0
   1cec0:	01e00833          	add	a6,zero,t5
   1cec4:	e60504e3          	beqz	a0,1cd2c <__divdf3+0x3b0>
   1cec8:	a60e725b          	bbc	t3,0,1cd2c <__divdf3+0x3b0>
   1cecc:	002e6e13          	ori	t3,t3,2
   1ced0:	f65ff06f          	j	1ce34 <__divdf3+0x4b8>
   1ced4:	de951ae3          	bne	a0,s1,1ccc8 <__divdf3+0x34c>
   1ced8:	de088ae3          	beqz	a7,1cccc <__divdf3+0x350>
   1cedc:	dd9ff06f          	j	1ccb4 <__divdf3+0x338>
   1cee0:	f0f31ae3          	bne	t1,a5,1cdf4 <__divdf3+0x478>
   1cee4:	f08574e3          	bgeu	a0,s0,1cdec <__divdf3+0x470>
   1cee8:	40c306b3          	sub	a3,t1,a2
   1ceec:	874a                	c.mv	a4,s2
   1ceee:	b339                	c.j	1cbfc <__divdf3+0x280>
   1cef0:	001e6e13          	ori	t3,t3,1
   1cef4:	162ed85b          	beqc	t4,2,1d064 <__divdf3+0x6e8>
   1cef8:	143ed85b          	beqc	t4,3,1d048 <__divdf3+0x6cc>
   1cefc:	dc0e9ee3          	bnez	t4,1ccd8 <__divdf3+0x35c>
   1cf00:	00f67693          	andi	a3,a2,15
   1cf04:	887a                	c.mv	a6,t5
   1cf06:	9c46db5b          	beqc	a3,4,1ccdc <__divdf3+0x360>
   1cf0a:	86b2                	c.mv	a3,a2
   1cf0c:	00468613          	addi	a2,a3,4 # 80004 <_end+0x62d94>
   1cf10:	00d636b3          	sltu	a3,a2,a3
   1cf14:	9736                	c.add	a4,a3
   1cf16:	b3d9                	c.j	1ccdc <__divdf3+0x360>
   1cf18:	8736                	c.mv	a4,a3
   1cf1a:	b9a9                	c.j	1cb74 <__divdf3+0x1f8>
   1cf1c:	86b2                	c.mv	a3,a2
   1cf1e:	b9bd                	c.j	1cb9c <__divdf3+0x220>
   1cf20:	4585                	c.li	a1,1
   1cf22:	8d9d                	c.sub	a1,a5
   1cf24:	03800693          	li	a3,56
   1cf28:	02b6da63          	bge	a3,a1,1cf5c <__divdf3+0x5e0>
   1cf2c:	8e59                	c.or	a2,a4
   1cf2e:	e26d                	c.bnez	a2,1d010 <__divdf3+0x694>
   1cf30:	002e6e13          	ori	t3,t3,2
   1cf34:	887a                	c.mv	a6,t5
   1cf36:	4781                	c.li	a5,0
   1cf38:	4681                	c.li	a3,0
   1cf3a:	bded                	c.j	1ce34 <__divdf3+0x4b8>
   1cf3c:	ee0f02e3          	beqz	t5,1ce20 <__divdf3+0x4a4>
   1cf40:	7ff00793          	li	a5,2047
   1cf44:	4681                	c.li	a3,0
   1cf46:	4601                	c.li	a2,0
   1cf48:	ee9ff06f          	j	1ce30 <__divdf3+0x4b4>
   1cf4c:	4585                	c.li	a1,1
   1cf4e:	8d9d                	c.sub	a1,a5
   1cf50:	03800693          	li	a3,56
   1cf54:	0ab6ce63          	blt	a3,a1,1d010 <__divdf3+0x694>
   1cf58:	fff00613          	li	a2,-1
   1cf5c:	46fd                	c.li	a3,31
   1cf5e:	20b6d163          	bge	a3,a1,1d160 <__divdf3+0x7e4>
   1cf62:	5685                	c.li	a3,-31
   1cf64:	40f687b3          	sub	a5,a3,a5
   1cf68:	00f757b3          	srl	a5,a4,a5
   1cf6c:	0005d8db          	beqc	a1,32,1cf7c <__divdf3+0x600>
   1cf70:	43ef8f93          	addi	t6,t6,1086
   1cf74:	01f71733          	sll	a4,a4,t6
   1cf78:	00e66633          	or	a2,a2,a4
   1cf7c:	00c03633          	snez	a2,a2
   1cf80:	8e5d                	c.or	a2,a5
   1cf82:	00767793          	andi	a5,a2,7
   1cf86:	16078163          	beqz	a5,1d0e8 <__divdf3+0x76c>
   1cf8a:	001e6e13          	ori	t3,t3,1
   1cf8e:	182edb5b          	beqc	t4,2,1d124 <__divdf3+0x7a8>
   1cf92:	163edd5b          	beqc	t4,3,1d10c <__divdf3+0x790>
   1cf96:	4505                	c.li	a0,1
   1cf98:	4701                	c.li	a4,0
   1cf9a:	120e9f63          	bnez	t4,1d0d8 <__divdf3+0x75c>
   1cf9e:	4505                	c.li	a0,1
   1cfa0:	00000713          	li	a4,0
   1cfa4:	00f67793          	andi	a5,a2,15
   1cfa8:	b047d45b          	beqc	a5,4,1ceb0 <__divdf3+0x534>
   1cfac:	00460793          	addi	a5,a2,4 # 80100004 <_stack+0x7d100004>
   1cfb0:	00c7b633          	sltu	a2,a5,a2
   1cfb4:	9732                	c.add	a4,a2
   1cfb6:	863e                	c.mv	a2,a5
   1cfb8:	ef9ff06f          	j	1ceb0 <__divdf3+0x534>
   1cfbc:	0cf05463          	blez	a5,1d084 <__divdf3+0x708>
   1cfc0:	001e6e13          	ori	t3,t3,1
   1cfc4:	082ede5b          	beqc	t4,2,1d060 <__divdf3+0x6e4>
   1cfc8:	063ede5b          	beqc	t4,3,1d044 <__divdf3+0x6c8>
   1cfcc:	567d                	c.li	a2,-1
   1cfce:	d00e95e3          	bnez	t4,1ccd8 <__divdf3+0x35c>
   1cfd2:	56fd                	c.li	a3,-1
   1cfd4:	f39ff06f          	j	1cf0c <__divdf3+0x590>
   1cfd8:	86ae                	c.mv	a3,a1
   1cfda:	b179                	c.j	1cc68 <__divdf3+0x2ec>
   1cfdc:	8636                	c.mv	a2,a3
   1cfde:	b9b9                	c.j	1cc3c <__divdf3+0x2c0>
   1cfe0:	9522                	c.add	a0,s0
   1cfe2:	008536b3          	sltu	a3,a0,s0
   1cfe6:	969a                	c.add	a3,t1
   1cfe8:	97b6                	c.add	a5,a3
   1cfea:	1779                	c.addi	a4,-2
   1cfec:	c0dff06f          	j	1cbf8 <__divdf3+0x27c>
   1cff0:	00141693          	slli	a3,s0,0x1
   1cff4:	0086b433          	sltu	s0,a3,s0
   1cff8:	9322                	c.add	t1,s0
   1cffa:	951a                	c.add	a0,t1
   1cffc:	1679                	c.addi	a2,-2
   1cffe:	8436                	c.mv	s0,a3
   1d000:	cc9514e3          	bne	a0,s1,1ccc8 <__divdf3+0x34c>
   1d004:	cc8884e3          	beq	a7,s0,1cccc <__divdf3+0x350>
   1d008:	00166613          	ori	a2,a2,1
   1d00c:	cc1ff06f          	j	1cccc <__divdf3+0x350>
   1d010:	001e6e13          	ori	t3,t3,1
   1d014:	01e03633          	snez	a2,t5
   1d018:	b02edc5b          	beqc	t4,2,1cf30 <__divdf3+0x5b4>
   1d01c:	ffde8793          	addi	a5,t4,-3
   1d020:	0017b793          	seqz	a5,a5
   1d024:	001f3613          	seqz	a2,t5
   1d028:	40f007b3          	neg	a5,a5
   1d02c:	8e7d                	c.and	a2,a5
   1d02e:	b709                	c.j	1cf30 <__divdf3+0x5b4>
   1d030:	887a                	c.mv	a6,t5
   1d032:	4781                	c.li	a5,0
   1d034:	4681                	c.li	a3,0
   1d036:	4601                	c.li	a2,0
   1d038:	cf5ff06f          	j	1cd2c <__divdf3+0x3b0>
   1d03c:	de0f12e3          	bnez	t5,1ce20 <__divdf3+0x4a4>
   1d040:	f01ff06f          	j	1cf40 <__divdf3+0x5c4>
   1d044:	fff00613          	li	a2,-1
   1d048:	4805                	c.li	a6,1
   1d04a:	c80f19e3          	bnez	t5,1ccdc <__divdf3+0x360>
   1d04e:	00860693          	addi	a3,a2,8
   1d052:	00c6b633          	sltu	a2,a3,a2
   1d056:	9732                	c.add	a4,a2
   1d058:	4801                	c.li	a6,0
   1d05a:	8636                	c.mv	a2,a3
   1d05c:	c81ff06f          	j	1ccdc <__divdf3+0x360>
   1d060:	fff00613          	li	a2,-1
   1d064:	4801                	c.li	a6,0
   1d066:	c60f0be3          	beqz	t5,1ccdc <__divdf3+0x360>
   1d06a:	00860693          	addi	a3,a2,8
   1d06e:	00c6b633          	sltu	a2,a3,a2
   1d072:	9732                	c.add	a4,a2
   1d074:	4805                	c.li	a6,1
   1d076:	8636                	c.mv	a2,a3
   1d078:	c65ff06f          	j	1ccdc <__divdf3+0x360>
   1d07c:	8636                	c.mv	a2,a3
   1d07e:	f89503e3          	beq	a0,s1,1d004 <__divdf3+0x688>
   1d082:	b199                	c.j	1ccc8 <__divdf3+0x34c>
   1d084:	ec0794e3          	bnez	a5,1cf4c <__divdf3+0x5d0>
   1d088:	001e6e13          	ori	t3,t3,1
   1d08c:	0a2ede5b          	beqc	t4,2,1d148 <__divdf3+0x7cc>
   1d090:	0a3ed05b          	beqc	t4,3,1d130 <__divdf3+0x7b4>
   1d094:	0c0e8263          	beqz	t4,1d158 <__divdf3+0x7dc>
   1d098:	86ba                	c.mv	a3,a4
   1d09a:	567d                	c.li	a2,-1
   1d09c:	c0100f93          	li	t6,-1023
   1d0a0:	dd1ff06f          	j	1ce70 <__divdf3+0x4f4>
   1d0a4:	887a                	c.mv	a6,t5
   1d0a6:	7ff00793          	li	a5,2047
   1d0aa:	4681                	c.li	a3,0
   1d0ac:	4601                	c.li	a2,0
   1d0ae:	b9bd                	c.j	1cd2c <__divdf3+0x3b0>
   1d0b0:	001e6e13          	ori	t3,t3,1
   1d0b4:	082ede5b          	beqc	t4,2,1d150 <__divdf3+0x7d4>
   1d0b8:	083ed05b          	beqc	t4,3,1d138 <__divdf3+0x7bc>
   1d0bc:	da0e9ae3          	bnez	t4,1ce70 <__divdf3+0x4f4>
   1d0c0:	00f67793          	andi	a5,a2,15
   1d0c4:	9a47d65b          	beqc	a5,4,1ce70 <__divdf3+0x4f4>
   1d0c8:	ffc63793          	sltiu	a5,a2,-4
   1d0cc:	0017c793          	xori	a5,a5,1
   1d0d0:	86ba                	c.mv	a3,a4
   1d0d2:	973e                	c.add	a4,a5
   1d0d4:	d9dff06f          	j	1ce70 <__divdf3+0x4f4>
   1d0d8:	01d71793          	slli	a5,a4,0x1d
   1d0dc:	820d                	c.srli	a2,0x3
   1d0de:	8e5d                	c.or	a2,a5
   1d0e0:	583726db          	bfoz	a3,a4,22,3
   1d0e4:	4781                	c.li	a5,0
   1d0e6:	bbe9                	c.j	1cec0 <__divdf3+0x544>
   1d0e8:	820d                	c.srli	a2,0x3
   1d0ea:	887a                	c.mv	a6,t5
   1d0ec:	4781                	c.li	a5,0
   1d0ee:	4681                	c.li	a3,0
   1d0f0:	dd9ff06f          	j	1cec8 <__divdf3+0x54c>
   1d0f4:	eeb566e3          	bltu	a0,a1,1cfe0 <__divdf3+0x664>
   1d0f8:	874a                	c.mv	a4,s2
   1d0fa:	4681                	c.li	a3,0
   1d0fc:	b01ff06f          	j	1cbfc <__divdf3+0x280>
   1d100:	ef1468e3          	bltu	s0,a7,1cff0 <__divdf3+0x674>
   1d104:	8636                	c.mv	a2,a3
   1d106:	f08891e3          	bne	a7,s0,1d008 <__divdf3+0x68c>
   1d10a:	b6c9                	c.j	1cccc <__divdf3+0x350>
   1d10c:	4505                	c.li	a0,1
   1d10e:	4701                	c.li	a4,0
   1d110:	da0f10e3          	bnez	t5,1ceb0 <__divdf3+0x534>
   1d114:	00860793          	addi	a5,a2,8
   1d118:	00c7b633          	sltu	a2,a5,a2
   1d11c:	9732                	c.add	a4,a2
   1d11e:	863e                	c.mv	a2,a5
   1d120:	d91ff06f          	j	1ceb0 <__divdf3+0x534>
   1d124:	4505                	c.li	a0,1
   1d126:	4701                	c.li	a4,0
   1d128:	d80f04e3          	beqz	t5,1ceb0 <__divdf3+0x534>
   1d12c:	fe9ff06f          	j	1d114 <__divdf3+0x798>
   1d130:	86ba                	c.mv	a3,a4
   1d132:	c0100f93          	li	t6,-1023
   1d136:	567d                	c.li	a2,-1
   1d138:	d20f1ce3          	bnez	t5,1ce70 <__divdf3+0x4f4>
   1d13c:	ff863793          	sltiu	a5,a2,-8
   1d140:	0017c793          	xori	a5,a5,1
   1d144:	973e                	c.add	a4,a5
   1d146:	b32d                	c.j	1ce70 <__divdf3+0x4f4>
   1d148:	86ba                	c.mv	a3,a4
   1d14a:	c0100f93          	li	t6,-1023
   1d14e:	567d                	c.li	a2,-1
   1d150:	d20f00e3          	beqz	t5,1ce70 <__divdf3+0x4f4>
   1d154:	fe9ff06f          	j	1d13c <__divdf3+0x7c0>
   1d158:	c0100f93          	li	t6,-1023
   1d15c:	567d                	c.li	a2,-1
   1d15e:	b7ad                	c.j	1d0c8 <__divdf3+0x74c>
   1d160:	86ba                	c.mv	a3,a4
   1d162:	4505                	c.li	a0,1
   1d164:	bb21                	c.j	1ce7c <__divdf3+0x500>
	...

0001d168 <__ieee754_sqrtf>:
   1d168:	e0050753          	fmv.x.w	a4,fa0
   1d16c:	7f800637          	lui	a2,0x7f800
   1d170:	780726db          	bfoz	a3,a4,30,0
   1d174:	1141                	c.addi	sp,-16
   1d176:	0ac6f163          	bgeu	a3,a2,1d218 <__ieee754_sqrtf+0xb0>
   1d17a:	cac9                	c.beqz	a3,1d20c <__ieee754_sqrtf+0xa4>
   1d17c:	87ba                	c.mv	a5,a4
   1d17e:	0a074363          	bltz	a4,1d224 <__ieee754_sqrtf+0xbc>
   1d182:	00800737          	lui	a4,0x800
   1d186:	4177d613          	srai	a2,a5,0x17
   1d18a:	00e6ff63          	bgeu	a3,a4,1d1a8 <__ieee754_sqrtf+0x40>
   1d18e:	8f7d                	c.and	a4,a5
   1d190:	c701                	c.beqz	a4,1d198 <__ieee754_sqrtf+0x30>
   1d192:	a879                	c.j	1d230 <__ieee754_sqrtf+0xc8>
   1d194:	00d00733          	add	a4,zero,a3
   1d198:	00179793          	slli	a5,a5,0x1
   1d19c:	00170693          	addi	a3,a4,1 # 800001 <_end+0x7e2d91>
   1d1a0:	bf77fa5b          	bbc	a5,23,1d194 <__ieee754_sqrtf+0x2c>
   1d1a4:	40e60633          	sub	a2,a2,a4
   1d1a8:	5807a7db          	bfoz	a5,a5,22,0
   1d1ac:	00800737          	lui	a4,0x800
   1d1b0:	00f76733          	or	a4,a4,a5
   1d1b4:	f8160693          	addi	a3,a2,-127 # 7f7fff81 <_stack+0x7c7fff81>
   1d1b8:	00171793          	slli	a5,a4,0x1
   1d1bc:	0006f45b          	bbc	a3,0,1d1c4 <__ieee754_sqrtf+0x5c>
   1d1c0:	00271793          	slli	a5,a4,0x2
   1d1c4:	4016d813          	srai	a6,a3,0x1
   1d1c8:	4501                	c.li	a0,0
   1d1ca:	46e5                	c.li	a3,25
   1d1cc:	00000593          	li	a1,0
   1d1d0:	01000737          	lui	a4,0x1000
   1d1d4:	00e58633          	add	a2,a1,a4
   1d1d8:	16fd                	c.addi	a3,-1
   1d1da:	00c7c763          	blt	a5,a2,1d1e8 <__ieee754_sqrtf+0x80>
   1d1de:	00e605b3          	add	a1,a2,a4
   1d1e2:	8f91                	c.sub	a5,a2
   1d1e4:	00e50533          	add	a0,a0,a4
   1d1e8:	0786                	c.slli	a5,0x1
   1d1ea:	8305                	c.srli	a4,0x1
   1d1ec:	f6e5                	c.bnez	a3,1d1d4 <__ieee754_sqrtf+0x6c>
   1d1ee:	c399                	c.beqz	a5,1d1f4 <__ieee754_sqrtf+0x8c>
   1d1f0:	0505                	c.addi	a0,1
   1d1f2:	9979                	c.andi	a0,-2
   1d1f4:	8505                	c.srai	a0,0x1
   1d1f6:	3f0007b7          	lui	a5,0x3f000
   1d1fa:	953e                	c.add	a0,a5
   1d1fc:	01781693          	slli	a3,a6,0x17
   1d200:	9536                	c.add	a0,a3
   1d202:	c62a                	c.swsp	a0,12(sp)
   1d204:	6532                	c.flwsp	fa0,12(sp)
   1d206:	0141                	c.addi	sp,16
   1d208:	00008067          	ret
   1d20c:	e62a                	c.fswsp	fa0,12(sp)
   1d20e:	0001                	c.nop
   1d210:	6532                	c.flwsp	fa0,12(sp)
   1d212:	0141                	c.addi	sp,16
   1d214:	00008067          	ret
   1d218:	50a57743          	fmadd.s	fa4,fa0,fa0,fa0
   1d21c:	e63a                	c.fswsp	fa4,12(sp)
   1d21e:	6532                	c.flwsp	fa0,12(sp)
   1d220:	0141                	c.addi	sp,16
   1d222:	8082                	c.jr	ra
   1d224:	08a577d3          	fsub.s	fa5,fa0,fa0
   1d228:	18f7f5d3          	fdiv.s	fa1,fa5,fa5
   1d22c:	e62e                	c.fswsp	fa1,12(sp)
   1d22e:	b7cd                	c.j	1d210 <__ieee754_sqrtf+0xa8>
   1d230:	577d                	c.li	a4,-1
   1d232:	bf8d                	c.j	1d1a4 <__ieee754_sqrtf+0x3c>
   1d234:	0001                	c.nop

0001d236 <matherr>:
   1d236:	4501                	c.li	a0,0
   1d238:	8082                	c.jr	ra
