
Hello_World.adx:     file format elf32-littleriscv
Hello_World.adx
architecture: riscv:rv32, flags 0x00000112:
EXEC_P, HAS_SYMS, D_PAGED
start address 0x20000000

Program Header:
    LOAD off    0x00001000 vaddr 0x20000000 paddr 0x20000000 align 2**12
         filesz 0x0000018a memsz 0x0000018a flags r-x
    LOAD off    0x00002000 vaddr 0x00000000 paddr 0x20000190 align 2**12
         filesz 0x00000154 memsz 0x00000178 flags rwx
    LOAD off    0x00002178 vaddr 0x00000178 paddr 0x200002e8 align 2**12
         filesz 0x00000074 memsz 0x00000074 flags rw-
    LOAD off    0x00002200 vaddr 0x00000200 paddr 0x20000360 align 2**12
         filesz 0x00002d5c memsz 0x00002d5c flags r-x
    LOAD off    0x000050c0 vaddr 0x200030c0 paddr 0x200030c0 align 2**12
         filesz 0x0000b300 memsz 0x0000b300 flags r-x
    LOAD off    0x00011000 vaddr 0x00080000 paddr 0x2000e3c0 align 2**12
         filesz 0x00000324 memsz 0x00000324 flags rw-
    LOAD off    0x00011b38 vaddr 0x00081b38 paddr 0x2000e6e4 align 2**12
         filesz 0x00000022 memsz 0x00000022 flags rw-
    LOAD off    0x00012328 vaddr 0x00080328 paddr 0x2000e6e8 align 2**12
         filesz 0x00000000 memsz 0x00001810 flags rw-
0x70000000 off    0x00097de9 vaddr 0x00000000 paddr 0x00000000 align 2**0
         filesz 0x0000003b memsz 0x00000000 flags r--

Sections:
Idx Name          Size      VMA       LMA       File off  Algn
  0 .vectors      0000018a  20000000  20000000  00001000  2**2
                  CONTENTS, ALLOC, LOAD, READONLY, CODE
  1 .retention_reset 00000154  00000000  20000190  00002000  2**2
                  CONTENTS, ALLOC, LOAD, READONLY, CODE
  2 .aes_data     00000020  00000158  200002e8  00002154  2**2
                  ALLOC
  3 .retention_data 00000074  00000178  200002e8  00002178  2**2
                  CONTENTS, ALLOC, LOAD, DATA
  4 .ram_code     00002d5c  00000200  20000360  00002200  2**8
                  CONTENTS, ALLOC, LOAD, READONLY, CODE
  5 .text         0000ab90  200030c0  200030c0  000050c0  2**2
                  CONTENTS, ALLOC, LOAD, READONLY, CODE
  6 .rodata       0000063c  2000dc50  2000dc50  0000fc50  2**2
                  CONTENTS, ALLOC, LOAD, READONLY, DATA
  7 .eh_frame     00000120  2000e2a0  2000e2a0  000102a0  2**2
                  CONTENTS, ALLOC, LOAD, READONLY, DATA
  8 .data         00000324  00080000  2000e3c0  00011000  2**2
                  CONTENTS, ALLOC, LOAD, DATA
  9 .sbss         0000009c  00080328  2000e6e8  00012328  2**2
                  ALLOC
 10 .bss          00001774  000803c4  2000e784  00012328  2**2
                  ALLOC
 11 .sdk_version  00000022  00081b38  2000e6e4  00011b38  2**2
                  CONTENTS, ALLOC, LOAD, DATA
 12 .debug_info   0002b9ce  00000000  00000000  00011b5a  2**0
                  CONTENTS, READONLY, DEBUGGING
 13 .debug_abbrev 00006310  00000000  00000000  0003d528  2**0
                  CONTENTS, READONLY, DEBUGGING
 14 .debug_loc    0000cfc7  00000000  00000000  00043838  2**0
                  CONTENTS, READONLY, DEBUGGING
 15 .debug_aranges 000008c0  00000000  00000000  00050800  2**3
                  CONTENTS, READONLY, DEBUGGING
 16 .debug_macro  000094cc  00000000  00000000  000510c0  2**0
                  CONTENTS, READONLY, DEBUGGING
 17 .debug_line   0001578c  00000000  00000000  0005a58c  2**0
                  CONTENTS, READONLY, DEBUGGING
 18 .debug_str    0002809a  00000000  00000000  0006fd18  2**0
                  CONTENTS, READONLY, DEBUGGING
 19 .comment      00000037  00000000  00000000  00097db2  2**0
                  CONTENTS, READONLY
 20 .riscv.attributes 0000003b  00000000  00000000  00097de9  2**0
                  CONTENTS, READONLY
 21 .debug_frame  00002ea8  00000000  00000000  00097e24  2**2
                  CONTENTS, READONLY, DEBUGGING
 22 .debug_ranges 000009d8  00000000  00000000  0009acd0  2**3
                  CONTENTS, READONLY, DEBUGGING
SYMBOL TABLE:
20000000 l    d  .vectors	00000000 .vectors
00000000 l    d  .retention_reset	00000000 .retention_reset
00000158 l    d  .aes_data	00000000 .aes_data
00000178 l    d  .retention_data	00000000 .retention_data
00000200 l    d  .ram_code	00000000 .ram_code
200030c0 l    d  .text	00000000 .text
2000dc50 l    d  .rodata	00000000 .rodata
2000e2a0 l    d  .eh_frame	00000000 .eh_frame
00080000 l    d  .data	00000000 .data
00080328 l    d  .sbss	00000000 .sbss
000803c4 l    d  .bss	00000000 .bss
00081b38 l    d  .sdk_version	00000000 .sdk_version
00000000 l    d  .debug_info	00000000 .debug_info
00000000 l    d  .debug_abbrev	00000000 .debug_abbrev
00000000 l    d  .debug_loc	00000000 .debug_loc
00000000 l    d  .debug_aranges	00000000 .debug_aranges
00000000 l    d  .debug_macro	00000000 .debug_macro
00000000 l    d  .debug_line	00000000 .debug_line
00000000 l    d  .debug_str	00000000 .debug_str
00000000 l    d  .comment	00000000 .comment
00000000 l    d  .riscv.attributes	00000000 .riscv.attributes
00000000 l    d  .debug_frame	00000000 .debug_frame
00000000 l    d  .debug_ranges	00000000 .debug_ranges
00000000 l    df *ABS*	00000000 ./boot/cstartup_flash.o
20000028 l       .vectors	00000000 _START
2000008e l       .vectors	00000000 _RETENTION_RESET_INIT
200000a6 l       .vectors	00000000 _RETENTION_RESET_BEGIN
200000b8 l       .vectors	00000000 _RETENTION_DATA_INIT
200000cc l       .vectors	00000000 _RETENTION_DATA_INIT_BEGIN
200000de l       .vectors	00000000 _RAMCODE_INIT
200000f6 l       .vectors	00000000 _RAMCODE_INIT_BEGIN
20000108 l       .vectors	00000000 _DATA_INIT
20000120 l       .vectors	00000000 _DATA_INIT_BEGIN
20000132 l       .vectors	00000000 _ZERO_BSS
20000146 l       .vectors	00000000 _ZERO_BSS_BEGIN
20000152 l       .vectors	00000000 _ZERO_AES
20000166 l       .vectors	00000000 _ZERO_AES_BEGIN
20000172 l       .vectors	00000000 _FILL_STK
20000172 l       .vectors	00000000 _MAIN_FUNC
20000188 l       .vectors	00000000 _END
00000022 l       .retention_reset	00000000 _ISTART
0000002a l       .retention_reset	00000000 _ISWS_USB_DIS
00000088 l       .retention_reset	00000000 _WAKEUP_FLASH
000000a2 l       .retention_reset	00000000 _MSPI_WAIT
000000bc l       .retention_reset	00000000 _WAIT_EFUSE_LOAD_AND_FLASH_WAKEUP_FINISH
000000c2 l       .retention_reset	00000000 _MULTI_ADDRESS_BEGIN
000000d2 l       .retention_reset	00000000 _IZERO_BSS
000000e6 l       .retention_reset	00000000 _IZERO_BSS_BEGIN
000000f2 l       .retention_reset	00000000 _IZERO_AES
00000106 l       .retention_reset	00000000 _IZERO_AES_BEGIN
00000112 l       .retention_reset	00000000 _IFILL_STK
00000112 l       .retention_reset	00000000 _IDATA_INIT
0000012a l       .retention_reset	00000000 _IDATA_INIT_BEGIN
0000013c l       .retention_reset	00000000 _IMAIN_FUNC
00000152 l       .retention_reset	00000000 _IEND
00000040 l       *ABS*	00000000 irqno
00000000 l    df *ABS*	00000000 adc.c
00000000 l    df *ABS*	00000000 clock.c
00000000 l    df *ABS*	00000000 flash.c
00001080 l     F .ram_code	0000004c flash_send_addr
00001114 l     F .ram_code	00000058 flash_wait_done
20006acc l     F .text	00000064 flash_write
00000184 l     O .retention_data	00000002 s_flash_preempt_config
00000000 l    df *ABS*	00000000 
0000271c l     F .ram_code	000000c4 pm_wait_bbpll_done
000027e0 l     F .ram_code	000001a0 pm_sleep_start
00002980 l     F .ram_code	00000098 pm_stimer_recover
00002a18 l     F .ram_code	00000368 pm_sleep_wakeup_ram.constprop.1
2000bdc8 l     F .text	0000001a pm_sleep_wakeup.constprop.0
00000190 l     O .retention_data	00000001 g_pm_suspend_power_cfg
00000191 l     O .retention_data	00000001 g_pm_long_suspend
00000194 l     O .retention_data	00000004 g_pm_tick_cur
00000198 l     O .retention_data	00000029 pmcd
000001c4 l     O .retention_data	00000004 g_pm_tick_32k_calib
000001c8 l     O .retention_data	00000008 g_pm_early_wakeup_time_us
000001d0 l     O .retention_data	00000004 g_pm_tick_32k_cur
000001d4 l     O .retention_data	00000001 g_pm_tick_update_en
000001d8 l     O .retention_data	00000004 g_pm_r_delay_cycle
000001e0 l     O .retention_data	00000008 g_pm_longsleep_early_wakeup_time_us
2000e154 l     O .rodata	0000001e rf_power_Level_list
000803b0 l     O .sbss	00000004 g_pm_status_info
0008031c l     O .data	00000004 rf_rx_dma_config
00080320 l     O .data	00000004 rf_tx_dma_config
00000000 l    df *ABS*	00000000 myudb_usb.c
0008034c l     O .sbss	00000002 myudb_g_response_len
00080350 l     O .sbss	00000004 myudb_g_response
00080340 l     O .sbss	00000008 control_request
00080348 l     O .sbss	00000004 myudb_g_stall
00080284 l     O .data	00000002 myudb_id
00080334 l     O .sbss	00000004 p.8427
00080330 l     O .sbss	00000002 len.8426
0008032c l     O .sbss	00000004 len.8436
00080328 l     O .sbss	00000004 tick_sync.8490
00000000 l    df *ABS*	00000000 analog.c
00000000 l    df *ABS*	00000000 audio.c
00000000 l    df *ABS*	00000000 plmt.c
000802e4 l     O .data	00000004 mtime_clock_source
00000000 l    df *ABS*	00000000 spi.c
00080374 l     O .sbss	00000001 s_pspi_tx_dma_chn
00080376 l     O .sbss	00000001 s_hspi_tx_dma_chn
00080373 l     O .sbss	00000001 s_pspi_rx_dma_chn
00080375 l     O .sbss	00000001 s_hspi_rx_dma_chn
00000000 l    df *ABS*	00000000 stimer.c
00000000 l    df *ABS*	00000000 exception.c
000803a4 l     O .sbss	00000004 exception_mtval
000803a0 l     O .sbss	00000004 exception_mepc
0008039c l     O .sbss	00000004 exception_mstatus
00080398 l     O .sbss	00000004 exception_mcause
00080394 l     O .sbss	00000004 exception_mdcause
00000000 l    df *ABS*	00000000 printf.c
0008030c l     O .data	00000001 init_flag.4915
00000000 l    df *ABS*	00000000 puya_common.c
00000000 l    df *ABS*	00000000 puya_flash_scratch.c
00002018 l     F .ram_code	0000005c flash_write_enable_cmd_testmode
00002074 l     F .ram_code	00000090 flash_wait_done_testomode
00002104 l     F .ram_code	00000090 flash_wait_done_common
00002194 l     F .ram_code	00000064 flash_erase_chip_scratch_testmode
000021f8 l     F .ram_code	00000018 flash_write_config_scratch_testmode
00002210 l     F .ram_code	00000018 flash_plane_program_scratch_testmode
00002228 l     F .ram_code	0000002c flash_page_program_scratch_testmode
00002254 l     F .ram_code	000000d4 flash_scratch_ram
00002328 l     F .ram_code	000000fa flash_erase_chip_ram
00000000 l    df *ABS*	00000000 puya_flash_trim.c
00002424 l     F .ram_code	000000b0 flash_read_status_trim_testmode
000024d4 l     F .ram_code	000000a4 flash_erase_trim_testmode
00002578 l     F .ram_code	00000018 flash_read_trim_testmode
00002590 l     F .ram_code	00000020 flash_page_program_trim_testmode
000025b0 l     F .ram_code	000000bc flash_trim_ram
0000266c l     F .ram_code	000000ae flash_trim_check_ram
00000000 l    df *ABS*	00000000 app.c
00000000 l    df *ABS*	00000000 main.c
00000000 l    df *ABS*	00000000 dbgport.c
00000000 l    df *ABS*	00000000 sdk_version.c
00000000 l    df *ABS*	00000000 myudb_usbdesc.c
2000ddc8 l     O .rodata	000000ca language_desc
2000de94 l     O .rodata	000000ca vendor_desc
2000df60 l     O .rodata	000000ca product_desc
2000e02c l     O .rodata	000000ca serial_desc
2000e0f8 l     O .rodata	00000012 device_desc
2000e10c l     O .rodata	00000037 configuration_desc
00000000 l    df *ABS*	00000000 aes.c
00080354 l     O .sbss	00000004 embase_offset
00000000 l    df *ABS*	00000000 emi.c
00080360 l     O .sbss	00000004 s_state0
0008035c l     O .sbss	00000004 s_state1
000802d6 l     O .data	00000001 rxpara_flag
00080364 l     O .sbss	00000001 s_emi_rssi
00080368 l     O .sbss	00000004 s_emi_rssibuf
0008036c l     O .sbss	00000004 s_emi_rx_cnt
00080074 l     O .data	00000030 emi_ble_tx_packet
000800a4 l     O .data	00000030 emi_zigbee_tx_packet
000800d4 l     O .data	00000030 Private_TPLL_tx_packet
000803c4 l     O .bss	00000118 emi_rx_packet
00000000 l    df *ABS*	00000000 gpio.c
00000000 l    df *ABS*	00000000 i2c.c
00080372 l     O .sbss	00000001 i2c_dma_tx_chn
00080371 l     O .sbss	00000001 i2c_dma_rx_chn
00000000 l    df *ABS*	00000000 lpc.c
00000000 l    df *ABS*	00000000 mdec.c
00000000 l    df *ABS*	00000000 pwm.c
00000000 l    df *ABS*	00000000 s7816.c
00000000 l    df *ABS*	00000000 timer.c
00000000 l    df *ABS*	00000000 uart.c
2000a2d4 l     F .text	00000058 uart_is_prime
2000a32c l     F .text	000001f0 uart_set_fuc_pin
00080378 l     O .sbss	00000002 uart_tx_hword_index.4498
00080390 l     O .sbss	00000002 uart_dma_tx_chn
00080384 l     O .sbss	00000008 uart_dma_rev_size
0008038c l     O .sbss	00000002 uart_dma_rx_chn
00000000 l    df *ABS*	00000000 usbhw.c
00000000 l    df *ABS*	00000000 flash_mid146085.c
00000000 l    df *ABS*	00000000 flash_mid156085.c
00000000 l    df *ABS*	00000000 flash_mid166085.c
00000000 l    df *ABS*	00000000 pc_interface.c
00000000 l    df *ABS*	00000000 calibration.c
00000000 l    df *ABS*	00000000 common.c
00000000 l    df *ABS*	00000000 libgcc2.c
00000000 l    df *ABS*	00000000 libgcc2.c
00000000 l    df *ABS*	00000000 memcpy.c
00000000 l    df *ABS*	00000000 printf.c
00000000 l    df *ABS*	00000000 puts.c
00000000 l    df *ABS*	00000000 strlen.c
00000000 l    df *ABS*	00000000 vprintf.c
2000d058 l     F .text	0000003a __vprintf_help
000803b8 l     O .sbss	00000004 __vprintf_buf
000803bc l     O .sbss	00000004 __vprintf_buf_len
00000000 l    df *ABS*	00000000 printf_data.c
00000000 l    df *ABS*	00000000 printf_impl.c
00000000 l    df *ABS*	00000000 printf_impl_float.c
00000000 l    df *ABS*	00000000 strcpy.c
00000000 l    df *ABS*	00000000 strnlen.c
00000000 l    df *ABS*	00000000 libgcc2.c
00000000 l    df *ABS*	00000000 libgcc2.c
20006f24 g     F .text	00000094 gpio_ds_en
20004034 g     F .text	00000070 adc_gpio_sample_init
2000c13c g     F .text	0000006e rf_set_power_level_index
2000c2a4 g     F .text	00000040 rf_set_tx_dma
20003238  w      .text	00000000 entry_irq55
200038b8 g     F .text	00000100 myudb_usb_handle_irq
00080310 g     O .data	00000003 enter_cmd_scratch
20003238  w      .text	00000000 entry_irq13
2000b9d4 g     F .text	0000001a platform_init
2000b320 g     F .text	00000034 flash_write_config_mid156085
2000da50 g     F .text	0000007c strcpy
20003238  w      .text	00000000 entry_irq15
2000dbc0 g     F .text	0000002e .hidden __ashldi3
000003ac g     F .ram_code	000000cc myudb_to_usb
2000532c g     F .text	000001b0 audio_codec_dac_config
200041ac g     F .text	00000068 adc_get_code
20003238  w      .text	00000000 entry_irq27
2000b3b8 g     F .text	00000030 flash_write_status_mid166085
20003238  w      .text	00000000 entry_irq60
20004b34 g     F .text	000000c4 audio_set_chn_wl
0000092c g     F .ram_code	00000040 analog_write_reg16
2000a868 g     F .text	00000020 uart_tx_is_busy
200093c0 g     F .text	00000100 spi_master_write_plus
00080054 g     O .data	0000000b audio_i2s_codec_config
20008f80 g     F .text	00000100 hspi_master_config_plus
20003df8 g     F .text	000000dc adc_set_sample_rate
00000de4 g     F .ram_code	00000060 clock_set_32k_tick
20003238  w      .text	00000000 entry_irq1
2000b1c0 g     F .text	00000030 flash_write_status_mid146085
20003238  w      .text	00000000 entry_irq52
20003238  w      .text	00000000 entry_irq50
20003238  w      .text	00000000 entry_irq62
2000cfa6 g     F .text	0000001e printf
00080800 g       .data	00000000 __global_pointer$
20007eb4 g     F .text	000000aa lpc_set_input_ref
2000dbf8 g       .text	00000000 .hidden __riscv_save_8
20003238  w      .text	00000000 entry_irq58
20003f18 g     F .text	00000050 adc_set_vbat_divider
000818d0 g     O .bss	00000004 s7816_vcc_pin
20009a78 g     F .text	000000f0 spi_master_write_dma_plus
00080260 g     O .data	00000020 page_program_addr
2000a914 g     F .text	00000050 uart_set_rts_level
2000b474 g     F .text	00000020 flash_lock_mid166085
2000b40c g     F .text	00000010 flash_write_otp_mid166085
0008028c g     O .data	00000004 aes_base_addr
20007f94 g     F .text	000000a0 mdec_read_dat
0000018c g     O .retention_data	00000004 flash_read_page
2000dc44 g       .text	00000000 .hidden __riscv_restore_3
20003ba0 g     F .text	0000003c adc_clr_sample_status_dma
200079a8 g     F .text	000000c8 i2c_master_write
2000b198 g     F .text	00000028 flash_read_status_mid146085
20005764 g     F .text	00000034 audio_i2s_config
000001ec g       .retention_data	00000000 _RETENTION_DATA_VMA_END
000802d0 g     O .data	00000006 sys_clk
20008d18 g     F .text	00000040 spi_slave_init
000009b8 g     F .ram_code	00000040 analog_write_reg32
20008b8c g     F .text	0000000c pspi_cs_pin_en
20004e34 g     F .text	0000011c audio_set_dmic_pin
20006960 g     F .text	00000028 flash_dread
2000dc30 g       .text	00000000 .hidden __riscv_restore_10
20008e78 g     F .text	00000030 hspi_set_quad_mode
2000b2dc g     F .text	00000010 flash_read_otp_mid156085
200072f0 g     F .text	00000134 gpio_set_irq
20004f50 g     F .text	0000002c audio_rx_dma_en
20003ed4 g     F .text	00000044 adc_set_scale_factor
200040a4 g     F .text	00000060 adc_temperature_sample_init
2000dbf8 g       .text	00000000 .hidden __riscv_save_11
20005b34 g     F .text	0000008c audio_codec_dac_power_down
20007ce0 g     F .text	00000070 i2c_slave_set_tx_dma
00001500 g     F .ram_code	00000044 mtime_set_interval_ms
2000b2c8 g     F .text	00000014 flash_get_lock_block_mid156085
20006b80 g     F .text	0000007c flash_write_status
000818a0 g     O .bss	00000001 audio_rx_dma_chn
2000a8dc g     F .text	00000038 uart_send_word
2000d0de g     F .text	0000004c __print_integral
2000c108 g     F .text	00000030 rf_update_internal_cap
2000b22c g     F .text	00000010 flash_read_otp_mid146085
2000acb8 g     F .text	00000040 uart_send
0000167c g     F .ram_code	000000f0 spi_set_rx_dma
2000b17c g     F .text	00000018 usbhw_read_ctrl_ep_u16
000802e0 g     O .data	00000004 i2c_tx_dma_config
00000178 g     O .retention_data	00000002 g_adc_gpio_calib_vref
2000794c g     F .text	00000028 i2c_master_init
20008d8c g     F .text	00000030 spi_set_transmode
20006bfc g     F .text	00000028 flash_read_otp
2000b270 g     F .text	00000028 flash_read_status_mid156085
00000000 g       .retention_reset	00000000 _RETENTION_RESET_VMA_START
20004708 g     F .text	000000d0 analog_write_reg32_dma
20003240 g     F .text	000000c8 bt_dbg_set_pin
200060f4 g     F .text	000000a8 rf_emi_tx_continue_update_data
2000640c g     F .text	0000006c rf_emi_rx_loop
20005798 g     F .text	000000ec audio_init
20003238  w      .text	00000000 entry_irq10
2000b0e4 g     F .text	00000014 usbhw_disable_manual_interrupt
200069b0 g     F .text	0000002c flash_read_mid
20003238  w      .text	00000000 entry_irq21
2000b390 g     F .text	00000028 flash_read_status_mid166085
20008410 g     F .text	00000088 s7816_set_vcc_pin
000802c8 g     O .data	00000004 audio_dma_tx_config
00000158 g       .aes_data	00000000 _AES_VMA_START
2000afb8 g     F .text	0000006c uart_cts_config
000802ec g     O .data	00000004 pspi_rx_dma_config
2000aa5c g     F .text	000000f8 uart_set_rts_pin
20003238  w      .text	00000000 entry_irq48
2000b110 g     F .text	00000058 usbhw_write_ep
20009184 g     F .text	000000e8 spi_master_write
2000432c g     F .text	00000030 aes_get_result
2000b9f4  w    F .text	00000004 mswi_irq_handler
2000dc44 g       .text	00000000 .hidden __riscv_restore_2
20003780 g     F .text	00000124 usb_send_str_data
20007718 g     F .text	000000aa gpio_set_pullup_res_30k
20003238  w      .text	00000000 entry_irq8
20007e88 g     F .text	00000028 i2c_set_rx_dma_config
20003238  w      .text	00000000 entry_irq33
20003724 g     F .text	0000003c myudb_usb_handle_ctl_ep_data
20004268 g     F .text	000000c4 aes_set_key_data
2000ab9c g     F .text	0000011c uart_set_rtx_pin
000818e4 g     O .bss	00000040 para_buff
20009e1c g     F .text	000001c8 spi_master_write_read_full_duplex
00081b38 g       .bss	00000000 _BSS_VMA_END
0000116c g     F .ram_code	000001c8 flash_mspi_read_ram
20003d58 g     F .text	00000010 adc_set_gpio_two_point_calib_offset
2000ceac g     F .text	000000fa memcpy
20003a20 g     F .text	0000000c myudb_usbdesc_get_language
2000983c g     F .text	000000e0 spi_master_write_dma
0000017c g     O .retention_data	00000002 g_adc_vref
20000190 g       *ABS*	00000000 _RETENTION_RESET_LMA_START
000803b4 g     O .sbss	00000001 g_single_tong_freqoffset
20006f10 g     F .text	00000014 gpio_set_input
2000b3e8 g     F .text	00000014 flash_get_lock_block_mid166085
20008304 g     F .text	00000060 pwm_set_tx_dma_add_list_element
2000be24 g     F .text	000002e4 sys_init
2000d12a g     F .text	00000472 __printf_impl
2000b4cc g     F .text	0000003c para_buff_init
20003238  w      .text	00000000 entry_irq12
2000cfc4 g     F .text	00000034 puts
200069dc g     F .text	00000030 flash_read_uid
00001f38 g     F .ram_code	000000e0 flash_power_off_on_ram
00001b78 g     F .ram_code	00000030 mspi_as_mspi
20008238 g     F .text	000000cc pwm_set_dma_chain_llp
20004104 g     F .text	0000005c adc_battery_voltage_sample_init
20007974 g     F .text	0000001c i2c_set_master_clk
20003238  w      .text	00000000 entry_irq14
00080060 g     O .data	00000012 LineIn_To_I2S_CMD_TAB
0008189c g     O .bss	00000001 g_adc_pre_scale
000802a0 g     O .data	00000007 audio_i2s_192k_config
20003cf4 g     F .text	00000058 adc_set_diff_pin
2000c748 g     F .text	000000fe rf_set_ble_500K_mode
2000dbf0 g       .text	00000000 .hidden __riscv_save_12
2000b168 g     F .text	00000014 usbhw_write_ctrl_ep_u16
2000af84 g     F .text	00000034 uart_set_rx_dma_config
2000b73c g     F .text	0000017c user_calib_adc_vref
000805dc g     O .bss	00000140 buff
200044dc g     F .text	00000120 aes_decrypt_bt_en
200059e0 g     F .text	00000038 audio_set_ext_codec
20003238  w      .text	00000000 entry_irq2
200039b8 g     F .text	00000064 myudb_usb_init
20003238  w      .text	00000000 entry_irq51
20004b1c g     F .text	0000000c audio_set_i2s_codec_m_s
2000dc30 g       .text	00000000 .hidden __riscv_restore_11
200095c0 g     F .text	0000015c spi_master_write_read_plus
200044ac g     F .text	00000030 aes_decrypt
20003238  w      .text	00000000 entry_irq28
20003238  w      .text	00000000 entry_irq43
20007554 g     F .text	00000130 gpio_set_gpio2risc1_irq
0000096c g     F .ram_code	0000004c analog_read_reg32
2000dc20 g       .text	00000000 .hidden __riscv_save_1
00001b44 g     F .ram_code	00000034 mspi_as_gpio
2000b1f0 g     F .text	00000014 flash_lock_mid146085
000802e8 g     O .data	00000004 pwm_tx_dma_config
2000dc44 g       .text	00000000 .hidden __riscv_restore_0
00080290 g     O .data	00000004 analog_rx_dma_config
20003238  w      .text	00000000 entry_irq20
2000dc06 g       .text	00000000 .hidden __riscv_save_7
2000b374 g     F .text	0000001a flash_unlock_mid156085
00080328 g       .sbss	00000000 _BSS_VMA_START
20003238  w      .text	00000000 entry_irq63
20005cac g     F .text	00000070 audio_codec_adc_power_on
00080324 g       .data	00000000 _DATA_VMA_END
200031a4 g     F .text	00000066 main_loop
20008970 g     F .text	00000080 hspi_cs_pin_dis
00000c14 g     F .ram_code	00000108 audio_set_i2s_clock
20008194 g     F .text	00000024 pwm_set_dma_config
2000a964 g     F .text	000000f8 uart_set_cts_pin
2000ca38 g     F .text	0000007e rf_mode_init
20003aec g     F .text	00000098 adc_start_sample_dma
20003238  w      .text	00000000 entry_irq46
2000c848 g     F .text	000000f2 rf_set_ble_2M_NO_PN_mode
20003238  w      .text	00000000 entry_irq31
000818cc g     O .bss	00000001 g_clk_32k_src
000014f0 g     F .ram_code	00000010 mtime_set_cmp_value
200034dc g     F .text	000000c0 myudb_usb_prepare_desc_data
20003238  w      .text	00000000 entry_irq16
20007a70 g     F .text	000000c8 i2c_master_read
00100000 g       *ABS*	00000000 FLASH_SIZE
2000b8b8 g     F .text	00000044 user_calib_freq_offset
2000dc3a g       .text	00000000 .hidden __riscv_restore_5
00081924 g     O .bss	00000100 command_buff
20004250 g     F .text	00000018 adc_calculate_temperature
20006cf4 g     F .text	00000030 flash_read_config
0000017a g     O .retention_data	00000001 g_adc_gpio_calib_vref_offset
000818a1 g     O .bss	00000001 audio_tx_dma_chn
20009794 g     F .text	00000028 pspi_set_rx_dma_config
2000976c g     F .text	00000028 pspi_set_tx_dma_config
00080000 g       .data	00000000 _DATA_VMA_START
0008071c g     O .bss	00001180 myudb_txfifo_b
00000d1c g     F .ram_code	00000020 audio_change_sample_rate
2000cab8 g     F .text	000003a2 .hidden __udivdi3
20006938 g     F .text	00000028 flash_read_data
00080110 g     O .data	00000100 program_buff
20008380 g     F .text	00000008 s7816_set_time
00080000 g     O .data	0000000c myudb_txfifo
20003238  w      .text	00000000 entry_irq53
20003238  w      .text	00000000 entry_irq11
20004d98 g     F .text	0000009c audio_set_codec_supply
2000462c g     F .text	000000dc analog_read_reg32_dma
200050d0 g     F .text	00000060 audio_rx_dma_add_list_element
00080370 g     O .sbss	00000001 i2c_slave_rx_index
200047d8 g     F .text	000000e4 analog_write_buff_dma
20006924 g     F .text	00000014 flash_plic_preempt_config
000803a8 g     O .sbss	00000004 config_read_buff
00000154 g       .retention_reset	00000000 _RETENTION_RESET_VMA_END
0008000c g     O .data	00000023 audio_i2s_48k_config
20007f60 g     F .text	00000034 mdec_init
2000dace g     F .text	00000018 strnlen
20006480 g     F .text	00000008 rf_emi_get_rssi_avg
20009b68 g     F .text	00000108 spi_master_read_dma_plus
2000dc3a g       .text	00000000 .hidden __riscv_restore_6
20009744 g     F .text	00000028 hspi_set_rx_dma_config
00000478 g     F .ram_code	0000006c myudb_usb_get_packet
2000438c g     F .text	00000120 aes_encrypt_bt_en
2000864c g     F .text	00000094 s7816_coldreset
00080210 g     O .data	00000040 plane_program_addr
2000b564 g     F .text	00000010 result_buff_clear
20003238  w      .text	00000000 entry_irq5
20006b50 g     F .text	00000030 flash_read_status
20003238  w      .text	00000000 entry_irq23
2000323a  w      .text	00000000 trap_handler
00000188 g     O .retention_data	00000004 flash_write_page
0008033c g     O .sbss	00000004 myudb_fifo
20004fa4 g     F .text	0000002c audio_tx_dma_en
20003238  w      .text	00000000 entry_irq34
20009080 g     F .text	00000050 pspi_master_config_plus
2000b24c g     F .text	00000010 flash_erase_otp_mid146085
2000991c g     F .text	0000015c spi_master_write_read_dma
20006cb0 g     F .text	0000001c flash_set_xip_config
2000b2ec g     F .text	00000010 flash_write_otp_mid156085
2000db90 g     F .text	0000002e .hidden __lshrdi3
20003238  w      .text	00000000 entry_irq36
2000dbf8 g       .text	00000000 .hidden __riscv_save_9
2000c244 g     F .text	0000005e rf_set_rx_dma
20003238  w      .text	00000000 entry_irq44
20005fa8 g     F .text	0000001a clock_init
2000c524 g     F .text	00000120 rf_set_zigbee_250K_mode
20007d50 g     F .text	00000078 i2c_slave_set_rx_dma
20006900 g     F .text	00000022 rf_emi_reset_baseband
0008037c g     O .sbss	00000002 uart_rx_byte_index
0000176c g     F .ram_code	00000064 hspi_master_write_xip
00001e58 g     F .ram_code	000000e0 flash_write_testmode
2000d092 g     F .text	0000004c vprintf
20003238  w      .text	00000000 entry_irq45
20003238  w      .text	00000000 entry_irq26
2000dc06 g       .text	00000000 .hidden __riscv_save_4
00080318 g     O .data	00000003 enter_cmd_trim
200035bc g     F .text	00000100 myudb_usb_handle_request
20004fd0 g     F .text	00000028 audio_tx_dma_dis
2000a0d0 g     F .text	00000038 timer_start
00081a24 g     O .bss	00000014 par_addr
000014e0 g     F .ram_code	00000010 mtime_get_value
000818d4 g     O .bss	00000004 s7816_rst_time
20003238  w      .text	00000000 entry_irq41
20008ea8 g     F .text	00000060 spi_set_3line_mode
00080104 g     O .data	0000000c flash_support_mid
20003238  w      .text	00000000 entry_irq61
2000348c g     F .text	00000008 myudb_set_txfifo
2000aed8 g     F .text	00000078 uart_get_dma_rev_data_len
20008740 g     F .text	00000070 s7816_warmreset
2000a51c g     F .text	000000ec uart_init
00001d2c g     F .ram_code	0000012c flash_read_testmode
20000000 g       .vectors	00000000 BIN_BEGIN
20003a6c g     F .text	0000000e myudb_usbdesc_get_configuration
20006c24 g     F .text	00000064 flash_write_otp
000802f4 g     O .data	00000004 hspi_rx_dma_config
20006a0c g     F .text	00000098 flash_read_mid_uid_with_check
20008e18 g     F .text	00000060 spi_set_dual_mode
2000dc20 g       .text	00000000 .hidden __riscv_save_3
20004214 g     F .text	0000003c adc_calculate_voltage
2000bbc8 g     F .text	0000001c flash_erase_chip
20004cf0 g     F .text	00000028 audio_i2s_set_pin
2000b41c g     F .text	00000010 flash_erase_otp_mid166085
2000573c g     F .text	00000028 audio_mux_config
000017d0 g     F .ram_code	00000062 hspi_master_read_xip
20007424 g     F .text	00000130 gpio_set_gpio2risc0_irq
20003238  w      .text	00000000 entry_irq38
00000304 g     F .ram_code	000000a8 usb_send_status_pkt
000001dc g     O .retention_data	00000001 g_plic_preempt_en
000802c0 g     O .data	00000007 audio_i2s_8k_config
20005ecc g     F .text	000000dc clock_cal_32k_rc
2000af50 g     F .text	00000034 uart_set_tx_dma_config
00000200 g       .ram_code	00000000 __vectors
2000a79c g     F .text	00000044 uart_set_rx_timeout
0000e706 g       *ABS*	00000000 BIN_SIZE
000802b8 g     O .data	00000007 audio_i2s_16k_config
20008964 g     F .text	0000000c hspi_cs_pin_en
2000a608 g     F .text	00000194 uart_cal_div_and_bwpc
20007058 g     F .text	00000298 gpio_shutdown
20008368 g     F .text	00000018 s7816_set_clk
20005294 g     F .text	00000024 audio_i2c_codec_write
20009130 g     F .text	00000054 spi_read
2000b218 g     F .text	00000014 flash_get_lock_block_mid146085
20008d58 g     F .text	00000034 spi_set_dummy_cnt
2000bbe4 g     F .text	000000d8 flash_check_scratch
2000e274 g     O .rodata	00000010 __digits
2000b30c g     F .text	00000014 flash_lock_otp_mid156085
00080338 g     O .sbss	00000004 myudb_hci_cmd_cb
20000360 g       *ABS*	00000000 _RAMCODE_LMA_START
000010cc g     F .ram_code	00000048 flash_send_cmd
200087ec g     F .text	00000178 hspi_set_pin_mux
200049b0 g     F .text	0000010e analog_write_addr_data_dma
00000158 g     O .aes_data	00000020 aes_data_buff
20003d68 g     F .text	00000090 adc_set_ref_voltage
20003760 g     F .text	00000020 myudb_usb_handle_ctl_ep_status
000803c0 g     O .sbss	00000004 __printf_count
20003238  w      .text	00000000 entry_irq59
20008dbc g     F .text	0000005c spi_set_normal_mode
2000a834 g     F .text	00000034 uart_read_byte
00000182 g     O .retention_data	00000001 tl_24mrc_cal
20003a7c g     F .text	00000070 adc_set_dma_config
2000bde4 g     F .text	0000003c efuse_get_adc_calib_value
2000adf8 g     F .text	000000e0 uart_receive_dma
2000ce5c g     F .text	0000004e memcmp
20005d94 g     F .text	00000138 clock_kick_32k_xtal
00000894 g     F .ram_code	00000048 analog_write_reg8
200081b8 g     F .text	00000058 pwm_set_dma_buf
20003238  w      .text	00000000 entry_irq6
20007b90 g     F .text	000000a0 i2c_master_write_dma
2000dbf8 g       .text	00000000 .hidden __riscv_save_10
20003b84 g     F .text	0000001c adc_get_sample_status_dma
00001834 g     F .ram_code	0000001c delay_us
2000e3c0 g       *ABS*	00000000 _DATA_LMA_START
20004b28 g     F .text	0000000c audio_set_output_chn
00081b38 g     O .sdk_version	00000022 sdk_version
20006ccc g     F .text	00000028 flash_write_config
2000d5ba g     F .text	00000090 __print_integral_poly
20000000 g       *ABS*	00000000 NDS_SAG_LMA_FLASH
2000b25c g     F .text	00000012 flash_lock_otp_mid146085
2000dc3a g       .text	00000000 .hidden __riscv_restore_4
2000dc30 g       .text	00000000 .hidden __riscv_restore_8
00080380 g     O .sbss	00000002 uart_tx_byte_index
2000b23c g     F .text	00000010 flash_write_otp_mid146085
2000b0f8 g     F .text	00000018 usbhw_enable_manual_interrupt
00001c88 g     F .ram_code	000000a4 flash_exit_test_mode
2000dc06 g       .text	00000000 .hidden __riscv_save_6
20006fb8 g     F .text	000000a0 gpio_ds_dis
2000c2e8 g     F .text	0000011a rf_set_pri_2M_mode
00000af0 g     F .ram_code	00000124 analog_write_buff
20000000  w      .vectors	00000000 _RELAX_END_
000014d0 g     F .ram_code	00000010 mtime_set_value
2000dae6 g     F .text	000000aa memset
2000d64a g     F .text	00000404 __printf_float_impl
2000dc30 g       .text	00000000 .hidden __riscv_restore_9
2000dc3a g       .text	00000000 .hidden __riscv_restore_7
2000320c g     F .text	00000028 main
20003238 g       .text	00000000 default_irq_entry
00001850 g     F .ram_code	00000022 delay_ms
2000c218 g     F .text	0000002a rf_set_txmode
20003238  w      .text	00000000 entry_irq3
00001874 g     F .ram_code	00000186 trap_entry
0000017e g     O .retention_data	00000001 g_adc_vref_offset
20005b08 g     F .text	0000002c audio_resume_out_path
20004bf8 g     F .text	000000f8 audio_i2s_set_pin_mux
20004ac0 g     F .text	0000000c audio_set_mono_chn
00000178 g       .aes_data	00000000 _AES_VMA_END
20006488 g     F .text	00000050 rf_phy_test_prbs9
00000e44 g     F .ram_code	0000023a clock_init_ram
20006478 g     F .text	00000008 rf_emi_get_rxpkt_cnt
20009fe4 g     F .text	000000ea spi_master_read
20007990 g     F .text	00000018 i2c_slave_init
20008c8c g     F .text	00000038 spi_slave_set_pin
2000674c g     F .text	000001b4 rf_emi_tx_burst_setup
20003238  w      .text	00000000 entry_irq39
20003238  w      .text	00000000 entry_irq49
200048bc g     F .text	000000f4 analog_read_buff_dma
200090d0 g     F .text	0000000c hspi_set_address
20008cc4 g     F .text	00000054 spi_master_init
20005fc4 g     F .text	0000008c rf_set_power_level_index_singletone
20004ae0 g     F .text	00000020 audio_set_codec_in_path_a_d_gain
00080294 g     O .data	00000004 analog_tx_dma_config
200064d8 g     F .text	00000274 rf_emi_tx_burst_loop
200097bc g     F .text	00000080 spi_set_dma
20006b40 g     F .text	00000010 flash_quad_page_program
2000a190 g     F .text	00000140 timer_gpio_init
20003238  w      .text	00000000 entry_irq57
20003238  w      .text	00000000 entry_irq47
200002e8 g       *ABS*	00000000 _RETENTION_DATA_LMA_START
20005d20 g     F .text	00000074 clock_32k_init
000802fc g     O .data	00000008 uart_rx_dma_config
000004e4 g     F .ram_code	00000304 myudb_mem_cmd
20004ad4 g     F .text	0000000c audio_set_codec_mic_input_mode
20003bf4 g     F .text	00000100 adc_pin_config
20000000 g     F .vectors	00000000 _RESET_ENTRY
00000db4 g     F .ram_code	00000030 clock_get_32k_tick
000802dc g     O .data	00000004 i2c_rx_dma_config
200054dc g     F .text	00000260 audio_codec_adc_config
0008189d g     O .bss	00000001 g_adc_vbat_divider
20008388 g     F .text	00000088 s7816_set_rst_pin
20006db0 g     F .text	000000a8 gpio_input_en
000804dc g     O .bss	00000100 read_buff
000007e8 g     F .ram_code	00000058 myudb_hci_cmd_from_usb
00000178 g       .retention_data	00000000 _RETENTION_DATA_VMA_START
20005268 g     F .text	0000002c audio_i2c_codec_read
20003494 g     F .text	00000048 myudb_usb_send_response
2000e174 g     O .rodata	00000100 .hidden __clz_tab
20008c64 g     F .text	00000028 pspi_set_pin
20003238  w      .text	00000000 entry_irq4
000a0000 g       *ABS*	00000000 _STACK_TOP
00001334 g     F .ram_code	00000128 flash_mspi_write_ram
20004f7c g     F .text	00000028 audio_rx_dma_dis
20003238  w      .text	00000000 entry_irq22
00000844 g     F .ram_code	00000050 analog_read_reg8
20004acc g     F .text	00000008 audio_invert_i2s_lr_clk
20003238  w      .text	00000000 entry_irq30
2000b658 g     F .text	000000e0 result_buff_write
00000180 g     O .retention_data	00000002 g_adc_vbat_calib_vref
20007684 g     F .text	00000094 gpio_set_up_down_res
20008f34 g     F .text	0000004c spi_master_config
20004ff8 g     F .text	000000d8 audio_rx_dma_config
200077dc g     F .text	00000170 i2c_set_pin
20005a78 g     F .text	00000060 audio_i2s_init
20003f68 g     F .text	000000cc adc_init
2000359c g     F .text	00000020 myudb_usb_handle_in_class_intf_req
000009f8 g     F .ram_code	000000f8 analog_read_buff
2000a108 g     F .text	00000030 timer_stop
000802cc g     O .data	00000004 audio_dma_rx_config
20008038 g     F .text	00000034 mtime_clk_init
20006d24 g     F .text	0000008a flash_get_vendor
200052b8 g     F .text	00000074 audio_i2c_init
000019fc g     F .ram_code	00000146 dr_putchar
20003238  w      .text	00000000 entry_irq42
2000ab54 g     F .text	00000048 uart_set_pin
20006090 g     F .text	00000038 rf_emi_stop
000818a4 g     O .bss	00000014 g_audio_tx_dma_list_cfg
20005a18 g     F .text	00000060 pwm_set
2000b354 g     F .text	00000020 flash_lock_mid156085
200061b8 g     F .text	000000d4 rf_continue_mode_run
20008f08 g     F .text	0000002c spi_set_io_mode
200038a4 g     F .text	00000008 myudb_register_hci_cb
2000b3fc g     F .text	00000010 flash_read_otp_mid166085
200038ac g     F .text	0000000c myudb_usb_bulkout_ready
2000b4b0 g     F .text	0000001c convert_addr2bus
20003238  w      .text	00000000 entry_irq24
2000628c g     F .text	00000180 rf_emi_rx_setup
2000b024 g     F .text	000000c0 uart_rts_config
00002eb4 g     F .ram_code	000000a8 rf_set_chn
2000a7e0 g     F .text	00000054 uart_send_byte
20003a4c g     F .text	00000010 myudb_usbdesc_get_serial
2000dc20 g       .text	00000000 .hidden __riscv_save_2
00002f5c g       .ram_code	00000000 _RAMCODE_VMA_END
20008b98 g     F .text	00000080 pspi_cs_pin_dis
20007e10 g     F .text	00000050 i2c_slave_write
20005ad8 g     F .text	00000030 audio_pause_out_path
000802f8 g     O .data	00000004 hspi_tx_dma_config
200090dc g     F .text	00000054 spi_write
2000619c g     F .text	0000001c emi_pn_gen
2000806c g     F .text	00000128 pwm_set_pin
000802f0 g     O .data	00000004 pspi_tx_dma_config
0000145c g     F .ram_code	00000072 flash_set_xip_config_sram
20005970 g     F .text	00000038 audio_rx_dma_chain_init
00000000  w      *ABS*	00000000 _ITB_BASE_
2000b9f0  w    F .text	00000004 mtime_irq_handler
2000dc06 g       .text	00000000 .hidden __riscv_save_5
20003238  w      .text	00000000 entry_irq19
00080288 g     O .data	00000004 adc_rx_dma_config
2000ba24 g     F .text	0000003a _write
20003a5c g     F .text	00000010 myudb_usbdesc_get_device
20009dd4 g     F .text	00000048 hspi_master_write_xip_cmd_data
200036bc g     F .text	00000068 myudb_usb_handle_ctl_ep_setup
200060c8 g     F .text	0000002c rf_emi_tx_continue_setup
00081b60 g       .sdk_version	00000000 _end
20003238  w      .text	00000000 entry_irq17
2000971c g     F .text	00000028 hspi_set_tx_dma_config
200087b0 g     F .text	00000038 s7816_send_byte
20007dc8 g     F .text	00000048 i2c_slave_read
20003d4c g     F .text	0000000c adc_set_gpio_calib_vref
2000926c g     F .text	00000154 spi_master_write_read
20006e58 g     F .text	000000b8 gpio_input_dis
000818b8 g     O .bss	00000014 g_audio_rx_dma_list_cfg
200045fc g     F .text	0000002c aes_set_em_base_addr
2000c404 g     F .text	0000011c rf_set_pri_1M_mode
20003238  w      .text	00000000 entry_irq9
200077c4 g     F .text	00000018 i2c_master_send_stop
200030c0 g     F .text	000000e4 user_init
20004b00 g     F .text	0000001c audio_set_codec_out_path_a_d_gain
20003238  w      .text	00000000 entry_irq56
20006b30 g     F .text	00000010 flash_page_program
20003238  w      .text	00000000 entry_irq35
20007e60 g     F .text	00000028 i2c_set_tx_dma_config
20003238  w      .text	00000000 entry_irq37
000802a8 g     O .data	00000007 audio_i2s_32k_config
000001e8 g     O .retention_data	00000004 g_pm_mspi_cfg
00000d3c g     F .ram_code	00000078 clock_cal_24m_rc
20004d18 g     F .text	0000004c audio_codec_active
00080314 g     O .data	00000004 config_write_buff
20003238  w      .text	00000000 entry_irq54
2000c204 g     F .text	00000012 rf_pn_disable
20003a2c g     F .text	00000010 myudb_usbdesc_get_vendor
20003238  w      .text	00000000 entry_irq40
00001ba8 g     F .ram_code	000000e0 flash_enter_test_mode
20007c30 g     F .text	000000b0 i2c_master_read_dma
20006988 g     F .text	00000028 flash_4read
2000a888 g     F .text	00000054 uart_send_hword
2000b204 g     F .text	00000014 flash_unlock_mid146085
2000b2fc g     F .text	00000010 flash_erase_otp_mid156085
000802b0 g     O .data	00000007 audio_i2s_24k_config
20008c18 g     F .text	00000018 pspi_change_csn_pin
2000ba60 g     F .text	000000cc audio_config_on
2000a138 g     F .text	00000058 timer_set_mode
00002d80 g     F .ram_code	00000058 plic_exit_critical_sec
20006c88 g     F .text	00000028 flash_erase_otp
2000bb7c g     F .text	0000004c flash_scratch
000803ac g     O .sbss	00000004 g_chip_version
20005bc0 g     F .text	00000070 audio_codec_dac_power_on
000008dc g     F .ram_code	00000050 analog_read_reg16
2000dc2c g       .text	00000000 .hidden __riscv_restore_12
20008a08 g     F .text	00000184 pspi_set_pin_mux
00000200 g       .ram_code	00000000 _RAMCODE_VMA_START
200094c0 g     F .text	00000100 spi_master_read_plus
2000c648 g     F .text	000000fe rf_set_ble_125K_mode
00081a38 g     O .bss	00000100 result_buff
000818d8 g     O .bss	00000004 s7816_rtx_pin
2000dc20 g       .text	00000000 .hidden __riscv_save_0
20008210 g     F .text	00000028 pwm_ir_dma_mode_start
20005c30 g     F .text	0000007c audio_codec_adc_power_down
00080280 g     O .data	00000004 FLASH_CNT
200059a8 g     F .text	00000038 audio_tx_dma_chain_init
2000cff8 g     F .text	0000005e strlen
20004160 g     F .text	0000004c adc_get_code_dma
00002e38 g     F .ram_code	00000040 rf_set_rxmode
00080030 g     O .data	00000023 audio_i2s_44k1_config
2000bb2c g     F .text	0000004e flash_power_off_on
2000acf8 g     F .text	00000100 uart_send_dma
2000bd48 g     F .text	0000007c flash_trim_check
2000b528 g     F .text	0000003c result_buff_init
000818dc g     O .bss	00000004 s7816_rst_pin
20008498 g     F .text	00000134 s7816_init
20005884 g     F .text	000000ec audio_init_i2c
20003238  w      .text	00000000 entry_irq29
2000b42c g     F .text	00000014 flash_lock_otp_mid166085
000818e0 g     O .bss	00000001 s7816_clock
00080358 g     O .sbss	00000002 audio_i2s_invert_config
2000b574 g     F .text	00000040 crc_16
20003308 g     F .text	00000176 bt_dbg_set_signal
20006050 g     F .text	00000040 rf_emi_tx_single_tone
2000b494 g     F .text	0000001a flash_unlock_mid166085
0008189e g     O .bss	00000001 adc_dma_chn
2000b5b4 g     F .text	000000a4 para_buff_read
200086e0 g     F .text	00000060 s7816_release_trig
20007b38 g     F .text	00000058 i2c_master_write_read
2000dc44 g       .text	00000000 .hidden __riscv_restore_1
20009c70 g     F .text	00000164 spi_master_write_read_dma_plus
20003480 g     F .text	0000000c myudb_set_txfifo_local
20006aa4 g     F .text	00000028 flash_erase_sector
20003bdc g     F .text	00000018 adc_stop_sample_dma
2000b298 g     F .text	00000030 flash_write_status_mid156085
00002e78 g     F .ram_code	0000003c rf_start_stx
00080250 g     O .data	00000010 config_addr
20004d64 g     F .text	00000034 audio_codec_set_micbias
2000c93c g     F .text	000000f8 rf_set_ble_1M_NO_PN_mode
20003238  w      .text	00000000 entry_irq7
200089f0 g     F .text	00000018 hspi_change_csn_pin
000802d8 g     O .data	00000001 g_i2c_stop_en
20005208 g     F .text	00000060 audio_tx_dma_add_list_element
2000b440 g     F .text	00000034 flash_write_config_mid166085
20005130 g     F .text	000000d8 audio_tx_dma_config
00001548 g     F .ram_code	00000134 spi_set_tx_dma
2000b508 g     F .text	00000020 para_buff_have_data
200085cc g     F .text	00000080 s7816_set_pin
2000b9f8  w    F .text	0000002c except_handler
20003238  w      .text	00000000 entry_irq32
00000000 g     F .retention_reset	00000000 _IRESET_ENTRY
2000b8fc g     F .text	000000d6 user_read_flash_value_calib
20003238  w      .text	00000000 entry_irq18
2000bcc0 g     F .text	00000088 flash_trim
2000c1ac g     F .text	00000056 rf_set_power_level
00002dd8 g     F .ram_code	00000060 plic_enter_critical_sec
00080298 g     O .data	00000007 audio_i2s_adc_16k_dac_48k_config
2000d59c g     F .text	0000001e __int_to_poly
20003a3c g     F .text	00000010 myudb_usbdesc_get_product
20003238  w      .text	00000000 entry_irq25
20008c30 g     F .text	00000034 hspi_set_pin
2000435c g     F .text	00000030 aes_encrypt
00080304 g     O .data	00000008 uart_tx_dma_config



Disassembly of section .vectors:

20000000 <_RESET_ENTRY>:
20000000:	a025                	c.j	20000028 <_START>
	...
20000016:	0000                	unimp
20000018:	e706                	c.fswsp	ft1,140(sp)
2000001a:	0000                	unimp
2000001c:	0000                	unimp
2000001e:	0000                	unimp
20000020:	544c4e4b          	fnmsub.h	ft8,fs8,ft4,fa0,rmm
20000024:	0000                	unimp
20000026:	          	sllw	a4,zero,zero

20000028 <_START>:
20000028:	e0080197          	auipc	gp,0xe0080
2000002c:	7d818193          	addi	gp,gp,2008 # 80800 <__global_pointer$>
20000030:	801002b7          	lui	t0,0x80100
20000034:	70028293          	addi	t0,t0,1792 # 80100700 <_DATA_LMA_START+0x600f2340>
20000038:	04000313          	li	t1,64
2000003c:	506280a3          	sb	t1,1281(t0)
20000040:	e00a0297          	auipc	t0,0xe00a0
20000044:	fc028293          	addi	t0,t0,-64 # a0000 <_STACK_TOP>
20000048:	8116                	c.mv	sp,t0
2000004a:	e0000297          	auipc	t0,0xe0000
2000004e:	fb628293          	addi	t0,t0,-74 # 0 <_ITB_BASE_>
20000052:	80029073          	csrw	uitb,t0
20000056:	6299                	c.lui	t0,0x6
20000058:	3002a2f3          	csrrs	t0,mstatus,t0
2000005c:	00301073          	fssr	zero
20000060:	e0000297          	auipc	t0,0xe0000
20000064:	1a028293          	addi	t0,t0,416 # 200 <_RAMCODE_VMA_START>
20000068:	30529073          	csrw	mtvec,t0
2000006c:	7d016073          	csrsi	mmisc_ctl,2
20000070:	e40002b7          	lui	t0,0xe4000
20000074:	4309                	c.li	t1,2
20000076:	0062a023          	sw	t1,0(t0) # e4000000 <_DATA_LMA_START+0xc3ff1c40>
2000007a:	7ca022f3          	csrr	t0,mcache_ctl
2000007e:	0012e293          	ori	t0,t0,1
20000082:	0022e293          	ori	t0,t0,2
20000086:	7ca29073          	csrw	mcache_ctl,t0
2000008a:	0000100f          	fence.i

2000008e <_RETENTION_RESET_INIT>:
2000008e:	00000317          	auipc	t1,0x0
20000092:	10230313          	addi	t1,t1,258 # 20000190 <_RETENTION_RESET_LMA_START>
20000096:	e0000397          	auipc	t2,0xe0000
2000009a:	f6a38393          	addi	t2,t2,-150 # 0 <_ITB_BASE_>
2000009e:	e0000e17          	auipc	t3,0xe0000
200000a2:	0b6e0e13          	addi	t3,t3,182 # 154 <_RETENTION_RESET_VMA_END>

200000a6 <_RETENTION_RESET_BEGIN>:
200000a6:	01c3f963          	bgeu	t2,t3,200000b8 <_RETENTION_DATA_INIT>
200000aa:	00032283          	lw	t0,0(t1)
200000ae:	0053a023          	sw	t0,0(t2)
200000b2:	0311                	c.addi	t1,4
200000b4:	0391                	c.addi	t2,4
200000b6:	bfc5                	c.j	200000a6 <_RETENTION_RESET_BEGIN>

200000b8 <_RETENTION_DATA_INIT>:
200000b8:	00000317          	auipc	t1,0x0
200000bc:	23030313          	addi	t1,t1,560 # 200002e8 <_RETENTION_DATA_LMA_START>
200000c0:	17800393          	li	t2,376
200000c4:	e0000e17          	auipc	t3,0xe0000
200000c8:	128e0e13          	addi	t3,t3,296 # 1ec <_RETENTION_DATA_VMA_END>

200000cc <_RETENTION_DATA_INIT_BEGIN>:
200000cc:	01c3f963          	bgeu	t2,t3,200000de <_RAMCODE_INIT>
200000d0:	00032283          	lw	t0,0(t1)
200000d4:	0053a023          	sw	t0,0(t2)
200000d8:	0311                	c.addi	t1,4
200000da:	0391                	c.addi	t2,4
200000dc:	bfc5                	c.j	200000cc <_RETENTION_DATA_INIT_BEGIN>

200000de <_RAMCODE_INIT>:
200000de:	00000317          	auipc	t1,0x0
200000e2:	28230313          	addi	t1,t1,642 # 20000360 <_RAMCODE_LMA_START>
200000e6:	e0000397          	auipc	t2,0xe0000
200000ea:	11a38393          	addi	t2,t2,282 # 200 <_RAMCODE_VMA_START>
200000ee:	e0003e17          	auipc	t3,0xe0003
200000f2:	e6ee0e13          	addi	t3,t3,-402 # 2f5c <_RAMCODE_VMA_END>

200000f6 <_RAMCODE_INIT_BEGIN>:
200000f6:	01c3f963          	bgeu	t2,t3,20000108 <_DATA_INIT>
200000fa:	00032283          	lw	t0,0(t1)
200000fe:	0053a023          	sw	t0,0(t2)
20000102:	0311                	c.addi	t1,4
20000104:	0391                	c.addi	t2,4
20000106:	bfc5                	c.j	200000f6 <_RAMCODE_INIT_BEGIN>

20000108 <_DATA_INIT>:
20000108:	0000e317          	auipc	t1,0xe
2000010c:	2b830313          	addi	t1,t1,696 # 2000e3c0 <_DATA_LMA_START>
20000110:	e0080397          	auipc	t2,0xe0080
20000114:	ef038393          	addi	t2,t2,-272 # 80000 <myudb_txfifo>
20000118:	e0080e17          	auipc	t3,0xe0080
2000011c:	20ce0e13          	addi	t3,t3,524 # 80324 <_DATA_VMA_END>

20000120 <_DATA_INIT_BEGIN>:
20000120:	01c3f963          	bgeu	t2,t3,20000132 <_ZERO_BSS>
20000124:	00032283          	lw	t0,0(t1)
20000128:	0053a023          	sw	t0,0(t2)
2000012c:	0311                	c.addi	t1,4
2000012e:	0391                	c.addi	t2,4
20000130:	bfc5                	c.j	20000120 <_DATA_INIT_BEGIN>

20000132 <_ZERO_BSS>:
20000132:	000002b7          	lui	t0,0x0
20000136:	e0080397          	auipc	t2,0xe0080
2000013a:	1f238393          	addi	t2,t2,498 # 80328 <_BSS_VMA_START>
2000013e:	e0082e17          	auipc	t3,0xe0082
20000142:	9fae0e13          	addi	t3,t3,-1542 # 81b38 <_BSS_VMA_END>

20000146 <_ZERO_BSS_BEGIN>:
20000146:	01c3f663          	bgeu	t2,t3,20000152 <_ZERO_AES>
2000014a:	0053a023          	sw	t0,0(t2)
2000014e:	0391                	c.addi	t2,4
20000150:	bfdd                	c.j	20000146 <_ZERO_BSS_BEGIN>

20000152 <_ZERO_AES>:
20000152:	000002b7          	lui	t0,0x0
20000156:	e0000397          	auipc	t2,0xe0000
2000015a:	00238393          	addi	t2,t2,2 # 158 <aes_data_buff>
2000015e:	e0000e17          	auipc	t3,0xe0000
20000162:	01ae0e13          	addi	t3,t3,26 # 178 <_AES_VMA_END>

20000166 <_ZERO_AES_BEGIN>:
20000166:	01c3f663          	bgeu	t2,t3,20000172 <_FILL_STK>
2000016a:	0053a023          	sw	t0,0(t2)
2000016e:	0391                	c.addi	t2,4
20000170:	bfdd                	c.j	20000166 <_ZERO_AES_BEGIN>

20000172 <_FILL_STK>:
20000172:	0001                	c.nop
20000174:	00003297          	auipc	t0,0x3
20000178:	09828293          	addi	t0,t0,152 # 2000320c <main>
2000017c:	9282                	c.jalr	t0
2000017e:	0001                	c.nop
20000180:	0001                	c.nop
20000182:	0001                	c.nop
20000184:	0001                	c.nop
20000186:	0001                	c.nop

20000188 <_END>:
20000188:	a001                	c.j	20000188 <_END>

Disassembly of section .retention_reset:

00000000 <_IRESET_ENTRY>:
   0:	a00d                	c.j	22 <_ISTART>
	...

00000022 <_ISTART>:
  22:	00080197          	auipc	gp,0x80
  26:	7de18193          	addi	gp,gp,2014 # 80800 <__global_pointer$>

0000002a <_ISWS_USB_DIS>:
  2a:	801002b7          	lui	t0,0x80100
  2e:	70028293          	addi	t0,t0,1792 # 80100700 <_DATA_LMA_START+0x600f2340>
  32:	04000313          	li	t1,64
  36:	506280a3          	sb	t1,1281(t0)
  3a:	000a0297          	auipc	t0,0xa0
  3e:	fc628293          	addi	t0,t0,-58 # a0000 <_STACK_TOP>
  42:	8116                	c.mv	sp,t0
  44:	00000297          	auipc	t0,0x0
  48:	fbc28293          	addi	t0,t0,-68 # 0 <_IRESET_ENTRY>
  4c:	80029073          	csrw	uitb,t0
  50:	6299                	c.lui	t0,0x6
  52:	3002a2f3          	csrrs	t0,mstatus,t0
  56:	00301073          	fssr	zero
  5a:	00000297          	auipc	t0,0x0
  5e:	1a628293          	addi	t0,t0,422 # 200 <_RAMCODE_VMA_START>
  62:	30529073          	csrw	mtvec,t0
  66:	7d016073          	csrsi	mmisc_ctl,2
  6a:	e40002b7          	lui	t0,0xe4000
  6e:	4309                	c.li	t1,2
  70:	0062a023          	sw	t1,0(t0) # e4000000 <_DATA_LMA_START+0xc3ff1c40>
  74:	7ca022f3          	csrr	t0,mcache_ctl
  78:	0012e293          	ori	t0,t0,1
  7c:	0022e293          	ori	t0,t0,2
  80:	7ca29073          	csrw	mcache_ctl,t0
  84:	0000100f          	fence.i

00000088 <_WAKEUP_FLASH>:
  88:	801402b7          	lui	t0,0x80140
  8c:	0ff00313          	li	t1,255
  90:	4381                	c.li	t2,0
  92:	0ab00e13          	li	t3,171
  96:	326284a3          	sb	t1,809(t0) # 80140329 <_DATA_LMA_START+0x60131f69>
  9a:	107280a3          	sb	t2,257(t0)
  9e:	11c28023          	sb	t3,256(t0)

000000a2 <_MSPI_WAIT>:
  a2:	801402b7          	lui	t0,0x80140
  a6:	10228383          	lb	t2,258(t0) # 80140102 <_DATA_LMA_START+0x60131d42>
  aa:	4e05                	c.li	t3,1
  ac:	4ec1                	c.li	t4,16
  ae:	fe7e0ae3          	beq	t3,t2,a2 <_MSPI_WAIT>
  b2:	11d280a3          	sb	t4,257(t0)
  b6:	4281                	c.li	t0,0
  b8:	14000313          	li	t1,320

000000bc <_WAIT_EFUSE_LOAD_AND_FLASH_WAKEUP_FINISH>:
  bc:	0285                	c.addi	t0,1
  be:	fe537fe3          	bgeu	t1,t0,bc <_WAIT_EFUSE_LOAD_AND_FLASH_WAKEUP_FINISH>

000000c2 <_MULTI_ADDRESS_BEGIN>:
  c2:	801402b7          	lui	t0,0x80140
  c6:	1e800313          	li	t1,488
  ca:	00032383          	lw	t2,0(t1)
  ce:	1072a223          	sw	t2,260(t0) # 80140104 <_DATA_LMA_START+0x60131d44>

000000d2 <_IZERO_BSS>:
  d2:	000002b7          	lui	t0,0x0
  d6:	00080397          	auipc	t2,0x80
  da:	25238393          	addi	t2,t2,594 # 80328 <_BSS_VMA_START>
  de:	00082e17          	auipc	t3,0x82
  e2:	a5ae0e13          	addi	t3,t3,-1446 # 81b38 <_BSS_VMA_END>

000000e6 <_IZERO_BSS_BEGIN>:
  e6:	01c3f663          	bgeu	t2,t3,f2 <_IZERO_AES>
  ea:	0053a023          	sw	t0,0(t2)
  ee:	0391                	c.addi	t2,4
  f0:	bfdd                	c.j	e6 <_IZERO_BSS_BEGIN>

000000f2 <_IZERO_AES>:
  f2:	000002b7          	lui	t0,0x0
  f6:	00000397          	auipc	t2,0x0
  fa:	06238393          	addi	t2,t2,98 # 158 <aes_data_buff>
  fe:	00000e17          	auipc	t3,0x0
 102:	07ae0e13          	addi	t3,t3,122 # 178 <_AES_VMA_END>

00000106 <_IZERO_AES_BEGIN>:
 106:	01c3f663          	bgeu	t2,t3,112 <_IDATA_INIT>
 10a:	0053a023          	sw	t0,0(t2)
 10e:	0391                	c.addi	t2,4
 110:	bfdd                	c.j	106 <_IZERO_AES_BEGIN>

00000112 <_IDATA_INIT>:
 112:	2000e317          	auipc	t1,0x2000e
 116:	2ae30313          	addi	t1,t1,686 # 2000e3c0 <_DATA_LMA_START>
 11a:	00080397          	auipc	t2,0x80
 11e:	ee638393          	addi	t2,t2,-282 # 80000 <myudb_txfifo>
 122:	00080e17          	auipc	t3,0x80
 126:	202e0e13          	addi	t3,t3,514 # 80324 <_DATA_VMA_END>

0000012a <_IDATA_INIT_BEGIN>:
 12a:	01c3f963          	bgeu	t2,t3,13c <_IMAIN_FUNC>
 12e:	00032283          	lw	t0,0(t1)
 132:	0053a023          	sw	t0,0(t2)
 136:	0311                	c.addi	t1,4
 138:	0391                	c.addi	t2,4
 13a:	bfc5                	c.j	12a <_IDATA_INIT_BEGIN>

0000013c <_IMAIN_FUNC>:
 13c:	0001                	c.nop
 13e:	20003297          	auipc	t0,0x20003
 142:	0ce28293          	addi	t0,t0,206 # 2000320c <main>
 146:	9282                	c.jalr	t0
 148:	0001                	c.nop
 14a:	0001                	c.nop
 14c:	0001                	c.nop
 14e:	0001                	c.nop
 150:	0001                	c.nop

00000152 <_IEND>:
 152:	a001                	c.j	152 <_IEND>

Disassembly of section .ram_code:

00000200 <_RAMCODE_VMA_START>:
     200:	1874                	c.addi4spn	a3,sp,60
     202:	0000                	unimp
     204:	3238                	c.fld	fa4,96(a2)
     206:	2000                	c.fld	fs0,0(s0)
     208:	3238                	c.fld	fa4,96(a2)
     20a:	2000                	c.fld	fs0,0(s0)
     20c:	3238                	c.fld	fa4,96(a2)
     20e:	2000                	c.fld	fs0,0(s0)
     210:	3238                	c.fld	fa4,96(a2)
     212:	2000                	c.fld	fs0,0(s0)
     214:	3238                	c.fld	fa4,96(a2)
     216:	2000                	c.fld	fs0,0(s0)
     218:	3238                	c.fld	fa4,96(a2)
     21a:	2000                	c.fld	fs0,0(s0)
     21c:	3238                	c.fld	fa4,96(a2)
     21e:	2000                	c.fld	fs0,0(s0)
     220:	3238                	c.fld	fa4,96(a2)
     222:	2000                	c.fld	fs0,0(s0)
     224:	3238                	c.fld	fa4,96(a2)
     226:	2000                	c.fld	fs0,0(s0)
     228:	3238                	c.fld	fa4,96(a2)
     22a:	2000                	c.fld	fs0,0(s0)
     22c:	3238                	c.fld	fa4,96(a2)
     22e:	2000                	c.fld	fs0,0(s0)
     230:	3238                	c.fld	fa4,96(a2)
     232:	2000                	c.fld	fs0,0(s0)
     234:	3238                	c.fld	fa4,96(a2)
     236:	2000                	c.fld	fs0,0(s0)
     238:	3238                	c.fld	fa4,96(a2)
     23a:	2000                	c.fld	fs0,0(s0)
     23c:	3238                	c.fld	fa4,96(a2)
     23e:	2000                	c.fld	fs0,0(s0)
     240:	3238                	c.fld	fa4,96(a2)
     242:	2000                	c.fld	fs0,0(s0)
     244:	3238                	c.fld	fa4,96(a2)
     246:	2000                	c.fld	fs0,0(s0)
     248:	3238                	c.fld	fa4,96(a2)
     24a:	2000                	c.fld	fs0,0(s0)
     24c:	3238                	c.fld	fa4,96(a2)
     24e:	2000                	c.fld	fs0,0(s0)
     250:	3238                	c.fld	fa4,96(a2)
     252:	2000                	c.fld	fs0,0(s0)
     254:	3238                	c.fld	fa4,96(a2)
     256:	2000                	c.fld	fs0,0(s0)
     258:	3238                	c.fld	fa4,96(a2)
     25a:	2000                	c.fld	fs0,0(s0)
     25c:	3238                	c.fld	fa4,96(a2)
     25e:	2000                	c.fld	fs0,0(s0)
     260:	3238                	c.fld	fa4,96(a2)
     262:	2000                	c.fld	fs0,0(s0)
     264:	3238                	c.fld	fa4,96(a2)
     266:	2000                	c.fld	fs0,0(s0)
     268:	3238                	c.fld	fa4,96(a2)
     26a:	2000                	c.fld	fs0,0(s0)
     26c:	3238                	c.fld	fa4,96(a2)
     26e:	2000                	c.fld	fs0,0(s0)
     270:	3238                	c.fld	fa4,96(a2)
     272:	2000                	c.fld	fs0,0(s0)
     274:	3238                	c.fld	fa4,96(a2)
     276:	2000                	c.fld	fs0,0(s0)
     278:	3238                	c.fld	fa4,96(a2)
     27a:	2000                	c.fld	fs0,0(s0)
     27c:	3238                	c.fld	fa4,96(a2)
     27e:	2000                	c.fld	fs0,0(s0)
     280:	3238                	c.fld	fa4,96(a2)
     282:	2000                	c.fld	fs0,0(s0)
     284:	3238                	c.fld	fa4,96(a2)
     286:	2000                	c.fld	fs0,0(s0)
     288:	3238                	c.fld	fa4,96(a2)
     28a:	2000                	c.fld	fs0,0(s0)
     28c:	3238                	c.fld	fa4,96(a2)
     28e:	2000                	c.fld	fs0,0(s0)
     290:	3238                	c.fld	fa4,96(a2)
     292:	2000                	c.fld	fs0,0(s0)
     294:	3238                	c.fld	fa4,96(a2)
     296:	2000                	c.fld	fs0,0(s0)
     298:	3238                	c.fld	fa4,96(a2)
     29a:	2000                	c.fld	fs0,0(s0)
     29c:	3238                	c.fld	fa4,96(a2)
     29e:	2000                	c.fld	fs0,0(s0)
     2a0:	3238                	c.fld	fa4,96(a2)
     2a2:	2000                	c.fld	fs0,0(s0)
     2a4:	3238                	c.fld	fa4,96(a2)
     2a6:	2000                	c.fld	fs0,0(s0)
     2a8:	3238                	c.fld	fa4,96(a2)
     2aa:	2000                	c.fld	fs0,0(s0)
     2ac:	3238                	c.fld	fa4,96(a2)
     2ae:	2000                	c.fld	fs0,0(s0)
     2b0:	3238                	c.fld	fa4,96(a2)
     2b2:	2000                	c.fld	fs0,0(s0)
     2b4:	3238                	c.fld	fa4,96(a2)
     2b6:	2000                	c.fld	fs0,0(s0)
     2b8:	3238                	c.fld	fa4,96(a2)
     2ba:	2000                	c.fld	fs0,0(s0)
     2bc:	3238                	c.fld	fa4,96(a2)
     2be:	2000                	c.fld	fs0,0(s0)
     2c0:	3238                	c.fld	fa4,96(a2)
     2c2:	2000                	c.fld	fs0,0(s0)
     2c4:	3238                	c.fld	fa4,96(a2)
     2c6:	2000                	c.fld	fs0,0(s0)
     2c8:	3238                	c.fld	fa4,96(a2)
     2ca:	2000                	c.fld	fs0,0(s0)
     2cc:	3238                	c.fld	fa4,96(a2)
     2ce:	2000                	c.fld	fs0,0(s0)
     2d0:	3238                	c.fld	fa4,96(a2)
     2d2:	2000                	c.fld	fs0,0(s0)
     2d4:	3238                	c.fld	fa4,96(a2)
     2d6:	2000                	c.fld	fs0,0(s0)
     2d8:	3238                	c.fld	fa4,96(a2)
     2da:	2000                	c.fld	fs0,0(s0)
     2dc:	3238                	c.fld	fa4,96(a2)
     2de:	2000                	c.fld	fs0,0(s0)
     2e0:	3238                	c.fld	fa4,96(a2)
     2e2:	2000                	c.fld	fs0,0(s0)
     2e4:	3238                	c.fld	fa4,96(a2)
     2e6:	2000                	c.fld	fs0,0(s0)
     2e8:	3238                	c.fld	fa4,96(a2)
     2ea:	2000                	c.fld	fs0,0(s0)
     2ec:	3238                	c.fld	fa4,96(a2)
     2ee:	2000                	c.fld	fs0,0(s0)
     2f0:	3238                	c.fld	fa4,96(a2)
     2f2:	2000                	c.fld	fs0,0(s0)
     2f4:	3238                	c.fld	fa4,96(a2)
     2f6:	2000                	c.fld	fs0,0(s0)
     2f8:	3238                	c.fld	fa4,96(a2)
     2fa:	2000                	c.fld	fs0,0(s0)
     2fc:	3238                	c.fld	fa4,96(a2)
     2fe:	2000                	c.fld	fs0,0(s0)
     300:	0001                	c.nop
	...

00000304 <usb_send_status_pkt>:
     304:	b3ffa72b          	lwgp	a4,-1220 # 8033c <myudb_fifo>
     308:	00674783          	lbu	a5,6(a4)
     30c:	00774803          	lbu	a6,7(a4)
     310:	410787b3          	sub	a5,a5,a6
     314:	0ff7f793          	andi	a5,a5,255
     318:	00475703          	lhu	a4,4(a4)
     31c:	08e7d663          	bge	a5,a4,3a8 <usb_send_status_pkt+0xa4>
     320:	30002873          	csrr	a6,mstatus
     324:	00887813          	andi	a6,a6,8
     328:	00080663          	beqz	a6,334 <usb_send_status_pkt+0x30>
     32c:	300477f3          	csrrci	a5,mstatus,8
     330:	0ff0000f          	fence
     334:	b3ffa72b          	lwgp	a4,-1220 # 8033c <myudb_fifo>
     338:	471c                	c.lw	a5,8(a4)
     33a:	00674883          	lbu	a7,6(a4)
     33e:	00188313          	addi	t1,a7,1
     342:	00670323          	sb	t1,6(a4)
     346:	00475303          	lhu	t1,4(a4)
     34a:	137d                	c.addi	t1,-1
     34c:	0068f8b3          	and	a7,a7,t1
     350:	00072703          	lw	a4,0(a4)
     354:	c4e897ff          	maddr32	a5,a7,a4
     358:	11000713          	li	a4,272
     35c:	00d77463          	bgeu	a4,a3,364 <usb_send_status_pkt+0x60>
     360:	11000693          	li	a3,272
     364:	00268713          	addi	a4,a3,2
     368:	00e78023          	sb	a4,0(a5)
     36c:	8721                	c.srai	a4,0x8
     36e:	00e780a3          	sb	a4,1(a5)
     372:	00a78223          	sb	a0,4(a5)
     376:	00678713          	addi	a4,a5,6
     37a:	00b782a3          	sb	a1,5(a5)
     37e:	a809                	c.j	390 <usb_send_status_pkt+0x8c>
     380:	00064683          	lbu	a3,0(a2)
     384:	00d70023          	sb	a3,0(a4)
     388:	0705                	c.addi	a4,1
     38a:	86be                	c.mv	a3,a5
     38c:	00160613          	addi	a2,a2,1
     390:	fff68793          	addi	a5,a3,-1
     394:	3c07a7db          	bfoz	a5,a5,15,0
     398:	fe0694e3          	bnez	a3,380 <usb_send_status_pkt+0x7c>
     39c:	00080663          	beqz	a6,3a8 <usb_send_status_pkt+0xa4>
     3a0:	30082873          	csrrs	a6,mstatus,a6
     3a4:	0ff0000f          	fence
     3a8:	00008067          	ret

000003ac <myudb_to_usb>:
     3ac:	801017b7          	lui	a5,0x80101
     3b0:	82378783          	lb	a5,-2013(a5) # 80100823 <_DATA_LMA_START+0x600f2463>
     3b4:	4c07f05b          	bbs	a5,0,474 <myudb_to_usb+0xc8>
     3b8:	b37fa7ab          	lwgp	a5,-1228 # 80334 <p.8427>
     3bc:	02078a63          	beqz	a5,3f0 <myudb_to_usb+0x44>
     3c0:	b37fa7ab          	lwgp	a5,-1228 # 80334 <p.8427>
     3c4:	0a078863          	beqz	a5,474 <myudb_to_usb+0xc8>
     3c8:	b31f97ab          	lhgp	a5,-1232 # 80330 <len.8426>
     3cc:	3c07a6db          	bfoz	a3,a5,15,0
     3d0:	04000713          	li	a4,64
     3d4:	00d77463          	bgeu	a4,a3,3dc <myudb_to_usb+0x30>
     3d8:	04000793          	li	a5,64
     3dc:	3c07a55b          	bfoz	a0,a5,15,0
     3e0:	85aa                	c.mv	a1,a0
     3e2:	801017b7          	lui	a5,0x80101
     3e6:	800789a3          	sb	zero,-2029(a5) # 80100813 <_DATA_LMA_START+0x600f2453>
     3ea:	4781                	c.li	a5,0
     3ec:	0640006f          	j	450 <myudb_to_usb+0xa4>
     3f0:	b3ffa7ab          	lwgp	a5,-1220 # 8033c <myudb_fifo>
     3f4:	0067c703          	lbu	a4,6(a5)
     3f8:	0077c683          	lbu	a3,7(a5)
     3fc:	fcd702e3          	beq	a4,a3,3c0 <myudb_to_usb+0x14>
     400:	4798                	c.lw	a4,8(a5)
     402:	00168613          	addi	a2,a3,1
     406:	00c783a3          	sb	a2,7(a5)
     40a:	0047d603          	lhu	a2,4(a5)
     40e:	167d                	c.addi	a2,-1
     410:	8ef1                	c.and	a3,a2
     412:	439c                	c.lw	a5,0(a5)
     414:	c4f6977f          	maddr32	a4,a3,a5
     418:	87ba                	c.mv	a5,a4
     41a:	00074703          	lbu	a4,0(a4)
     41e:	0017c683          	lbu	a3,1(a5)
     422:	06a2                	c.slli	a3,0x8
     424:	9736                	c.add	a4,a3
     426:	b2ef88ab          	shgp	a4,-1232 # 80330 <len.8426>
     42a:	0791                	c.addi	a5,4
     42c:	b2ffcbab          	swgp	a5,-1228 # 80334 <p.8427>
     430:	f91ff06f          	j	3c0 <myudb_to_usb+0x14>
     434:	b37fa72b          	lwgp	a4,-1228 # 80334 <p.8427>
     438:	00170613          	addi	a2,a4,1
     43c:	b2cfcbab          	swgp	a2,-1228 # 80334 <p.8427>
     440:	00074683          	lbu	a3,0(a4)
     444:	80101737          	lui	a4,0x80101
     448:	80d70da3          	sb	a3,-2021(a4) # 8010081b <_DATA_LMA_START+0x600f245b>
     44c:	00178793          	addi	a5,a5,1
     450:	feb7c2e3          	blt	a5,a1,434 <myudb_to_usb+0x88>
     454:	801017b7          	lui	a5,0x80101
     458:	4705                	c.li	a4,1
     45a:	82e781a3          	sb	a4,-2013(a5) # 80100823 <_DATA_LMA_START+0x600f2463>
     45e:	b31f97ab          	lhgp	a5,-1232 # 80330 <len.8426>
     462:	8f89                	c.sub	a5,a0
     464:	b2ff88ab          	shgp	a5,-1232 # 80330 <len.8426>
     468:	03f00793          	li	a5,63
     46c:	00b7c463          	blt	a5,a1,474 <myudb_to_usb+0xc8>
     470:	b20fcbab          	swgp	zero,-1228 # 80334 <p.8427>
     474:	00008067          	ret

00000478 <myudb_usb_get_packet>:
     478:	801017b7          	lui	a5,0x80101
     47c:	83978783          	lb	a5,-1991(a5) # 80100839 <_DATA_LMA_START+0x600f2479>
     480:	0457fe5b          	bbc	a5,5,4dc <myudb_usb_get_packet+0x64>
     484:	801017b7          	lui	a5,0x80101
     488:	02000713          	li	a4,32
     48c:	82e78ca3          	sb	a4,-1991(a5) # 80100839 <_DATA_LMA_START+0x600f2479>
     490:	81578583          	lb	a1,-2027(a5)
     494:	0ff5f593          	andi	a1,a1,255
     498:	80078aa3          	sb	zero,-2027(a5)
     49c:	4701                	c.li	a4,0
     49e:	a839                	c.j	4bc <myudb_usb_get_packet+0x44>
     4a0:	b2ffa7ab          	lwgp	a5,-1236 # 8032c <len.8436>
     4a4:	00178613          	addi	a2,a5,1
     4a8:	b2cfc7ab          	swgp	a2,-1236 # 8032c <len.8436>
     4ac:	97aa                	c.add	a5,a0
     4ae:	801016b7          	lui	a3,0x80101
     4b2:	81d68683          	lb	a3,-2019(a3) # 8010081d <_DATA_LMA_START+0x600f245d>
     4b6:	00d78023          	sb	a3,0(a5)
     4ba:	0705                	c.addi	a4,1
     4bc:	feb742e3          	blt	a4,a1,4a0 <myudb_usb_get_packet+0x28>
     4c0:	801017b7          	lui	a5,0x80101
     4c4:	4705                	c.li	a4,1
     4c6:	82e782a3          	sb	a4,-2011(a5) # 80100825 <_DATA_LMA_START+0x600f2465>
     4ca:	03f00793          	li	a5,63
     4ce:	00b7c963          	blt	a5,a1,4e0 <myudb_usb_get_packet+0x68>
     4d2:	b2ffa52b          	lwgp	a0,-1236 # 8032c <len.8436>
     4d6:	b20fc7ab          	swgp	zero,-1236 # 8032c <len.8436>
     4da:	8082                	c.jr	ra
     4dc:	4501                	c.li	a0,0
     4de:	8082                	c.jr	ra
     4e0:	4501                	c.li	a0,0
     4e2:	8082                	c.jr	ra

000004e4 <myudb_mem_cmd>:
     4e4:	7129                	c.addi16sp	sp,-320
     4e6:	12112e23          	sw	ra,316(sp)
     4ea:	12812c23          	sw	s0,312(sp)
     4ee:	12912a23          	sw	s1,308(sp)
     4f2:	13212823          	sw	s2,304(sp)
     4f6:	13312623          	sw	s3,300(sp)
     4fa:	842a                	c.mv	s0,a0
     4fc:	00b004b3          	add	s1,zero,a1
     500:	00054783          	lbu	a5,0(a0)
     504:	0287d4db          	beqc	a5,40,52c <myudb_mem_cmd+0x48>
     508:	0ea7dedb          	beqc	a5,42,604 <myudb_mem_cmd+0x120>
     50c:	00100913          	li	s2,1
     510:	854a                	c.mv	a0,s2
     512:	13c12083          	lw	ra,316(sp)
     516:	13812403          	lw	s0,312(sp)
     51a:	13412483          	lw	s1,308(sp)
     51e:	13012903          	lw	s2,304(sp)
     522:	12c12983          	lw	s3,300(sp)
     526:	6131                	c.addi16sp	sp,320
     528:	00008067          	ret
     52c:	471d                	c.li	a4,7
     52e:	fcb75de3          	bge	a4,a1,508 <myudb_mem_cmd+0x24>
     532:	46b1                	c.li	a3,12
     534:	862a                	c.mv	a2,a0
     536:	45a1                	c.li	a1,8
     538:	08100513          	li	a0,129
     53c:	33e1                	c.jal	304 <usb_send_status_pkt>
     53e:	02900793          	li	a5,41
     542:	00f10423          	sb	a5,8(sp)
     546:	00142783          	lw	a5,1(s0)
     54a:	00f124a3          	sw	a5,9(sp)
     54e:	00540783          	lb	a5,5(s0)
     552:	00f106a3          	sb	a5,13(sp)
     556:	00144703          	lbu	a4,1(s0)
     55a:	863a                	c.mv	a2,a4
     55c:	00244483          	lbu	s1,2(s0)
     560:	00344783          	lbu	a5,3(s0)
     564:	07a2                	c.slli	a5,0x8
     566:	8cdd                	c.or	s1,a5
     568:	00444783          	lbu	a5,4(s0)
     56c:	07c2                	c.slli	a5,0x10
     56e:	8cdd                	c.or	s1,a5
     570:	00544783          	lbu	a5,5(s0)
     574:	07e2                	c.slli	a5,0x18
     576:	8cdd                	c.or	s1,a5
     578:	00644783          	lbu	a5,6(s0)
     57c:	00744683          	lbu	a3,7(s0)
     580:	00869693          	slli	a3,a3,0x8
     584:	00d7e433          	or	s0,a5,a3
     588:	10000793          	li	a5,256
     58c:	0087d463          	bge	a5,s0,594 <myudb_mem_cmd+0xb0>
     590:	10000413          	li	s0,256
     594:	ce05                	c.beqz	a2,5cc <myudb_mem_cmd+0xe8>
     596:	0616555b          	beqc	a2,1,600 <myudb_mem_cmd+0x11c>
     59a:	1779                	c.addi	a4,-2
     59c:	4785                	c.li	a5,1
     59e:	00e7eb63          	bltu	a5,a4,5b4 <myudb_mem_cmd+0xd0>
     5a2:	000007b7          	lui	a5,0x0
     5a6:	18c7a783          	lw	a5,396(a5) # 18c <flash_read_page>
     5aa:	00e10613          	addi	a2,sp,14
     5ae:	85a2                	c.mv	a1,s0
     5b0:	8526                	c.mv	a0,s1
     5b2:	9782                	c.jalr	a5
     5b4:	00640693          	addi	a3,s0,6
     5b8:	3c06a6db          	bfoz	a3,a3,15,0
     5bc:	0030                	c.addi4spn	a2,sp,8
     5be:	45a1                	c.li	a1,8
     5c0:	08200513          	li	a0,130
     5c4:	3381                	c.jal	304 <usb_send_status_pkt>
     5c6:	4901                	c.li	s2,0
     5c8:	f49ff06f          	j	510 <myudb_mem_cmd+0x2c>
     5cc:	8622                	c.mv	a2,s0
     5ce:	85a6                	c.mv	a1,s1
     5d0:	00e10513          	addi	a0,sp,14
     5d4:	2000d097          	auipc	ra,0x2000d
     5d8:	8d8080e7          	jalr	-1832(ra) # 2000ceac <memcpy>
     5dc:	fd9ff06f          	j	5b4 <myudb_mem_cmd+0xd0>
     5e0:	00690993          	addi	s3,s2,6
     5e4:	01248533          	add	a0,s1,s2
     5e8:	0ff57513          	andi	a0,a0,255
     5ec:	2ca1                	c.jal	844 <analog_read_reg8>
     5ee:	120c                	c.addi4spn	a1,sp,288
     5f0:	99ae                	c.add	s3,a1
     5f2:	eea98423          	sb	a0,-280(s3)
     5f6:	0905                	c.addi	s2,1
     5f8:	fe8944e3          	blt	s2,s0,5e0 <myudb_mem_cmd+0xfc>
     5fc:	fb9ff06f          	j	5b4 <myudb_mem_cmd+0xd0>
     600:	4901                	c.li	s2,0
     602:	bfdd                	c.j	5f8 <myudb_mem_cmd+0x114>
     604:	4799                	c.li	a5,6
     606:	0097c563          	blt	a5,s1,610 <myudb_mem_cmd+0x12c>
     60a:	4905                	c.li	s2,1
     60c:	f05ff06f          	j	510 <myudb_mem_cmd+0x2c>
     610:	46b1                	c.li	a3,12
     612:	8622                	c.mv	a2,s0
     614:	45a1                	c.li	a1,8
     616:	08100513          	li	a0,129
     61a:	31ed                	c.jal	304 <usb_send_status_pkt>
     61c:	02b00793          	li	a5,43
     620:	00f10423          	sb	a5,8(sp)
     624:	00140603          	lb	a2,1(s0)
     628:	00240683          	lb	a3,2(s0)
     62c:	00340703          	lb	a4,3(s0)
     630:	00c104a3          	sb	a2,9(sp)
     634:	00d10523          	sb	a3,10(sp)
     638:	00e105a3          	sb	a4,11(sp)
     63c:	00440603          	lb	a2,4(s0)
     640:	00540683          	lb	a3,5(s0)
     644:	00640703          	lb	a4,6(s0)
     648:	00c10623          	sb	a2,12(sp)
     64c:	00d106a3          	sb	a3,13(sp)
     650:	00e10723          	sb	a4,14(sp)
     654:	00740603          	lb	a2,7(s0)
     658:	00840683          	lb	a3,8(s0)
     65c:	00940703          	lb	a4,9(s0)
     660:	00c107a3          	sb	a2,15(sp)
     664:	00d10823          	sb	a3,16(sp)
     668:	00e108a3          	sb	a4,17(sp)
     66c:	00a40603          	lb	a2,10(s0)
     670:	00b40683          	lb	a3,11(s0)
     674:	00c40703          	lb	a4,12(s0)
     678:	00c10923          	sb	a2,18(sp)
     67c:	00d109a3          	sb	a3,19(sp)
     680:	00e10a23          	sb	a4,20(sp)
     684:	00d40603          	lb	a2,13(s0)
     688:	00e40683          	lb	a3,14(s0)
     68c:	00f40703          	lb	a4,15(s0)
     690:	00c10aa3          	sb	a2,21(sp)
     694:	00d10b23          	sb	a3,22(sp)
     698:	00e10ba3          	sb	a4,23(sp)
     69c:	01040783          	lb	a5,16(s0)
     6a0:	00f10c23          	sb	a5,24(sp)
     6a4:	00144703          	lbu	a4,1(s0)
     6a8:	00244903          	lbu	s2,2(s0)
     6ac:	00344783          	lbu	a5,3(s0)
     6b0:	07a2                	c.slli	a5,0x8
     6b2:	00f96933          	or	s2,s2,a5
     6b6:	00444783          	lbu	a5,4(s0)
     6ba:	07c2                	c.slli	a5,0x10
     6bc:	00f96933          	or	s2,s2,a5
     6c0:	00544783          	lbu	a5,5(s0)
     6c4:	07e2                	c.slli	a5,0x18
     6c6:	00f96933          	or	s2,s2,a5
     6ca:	89ca                	c.mv	s3,s2
     6cc:	14e9                	c.addi	s1,-6
     6ce:	c71d                	c.beqz	a4,6fc <myudb_mem_cmd+0x218>
     6d0:	0617505b          	beqc	a4,1,730 <myudb_mem_cmd+0x24c>
     6d4:	0627605b          	bnec	a4,2,734 <myudb_mem_cmd+0x250>
     6d8:	000007b7          	lui	a5,0x0
     6dc:	1887a783          	lw	a5,392(a5) # 188 <flash_write_page>
     6e0:	00640613          	addi	a2,s0,6
     6e4:	85a6                	c.mv	a1,s1
     6e6:	854a                	c.mv	a0,s2
     6e8:	9782                	c.jalr	a5
     6ea:	4901                	c.li	s2,0
     6ec:	46b9                	c.li	a3,14
     6ee:	0030                	c.addi4spn	a2,sp,8
     6f0:	45a1                	c.li	a1,8
     6f2:	08200513          	li	a0,130
     6f6:	3139                	c.jal	304 <usb_send_status_pkt>
     6f8:	e19ff06f          	j	510 <myudb_mem_cmd+0x2c>
     6fc:	8626                	c.mv	a2,s1
     6fe:	00640593          	addi	a1,s0,6
     702:	854a                	c.mv	a0,s2
     704:	2000c097          	auipc	ra,0x2000c
     708:	7a8080e7          	jalr	1960(ra) # 2000ceac <memcpy>
     70c:	4901                	c.li	s2,0
     70e:	bff9                	c.j	6ec <myudb_mem_cmd+0x208>
     710:	00698793          	addi	a5,s3,6
     714:	97a2                	c.add	a5,s0
     716:	01390533          	add	a0,s2,s3
     71a:	0007c583          	lbu	a1,0(a5)
     71e:	0ff57513          	andi	a0,a0,255
     722:	2a8d                	c.jal	894 <analog_write_reg8>
     724:	00198993          	addi	s3,s3,1
     728:	fe99c4e3          	blt	s3,s1,710 <myudb_mem_cmd+0x22c>
     72c:	4901                	c.li	s2,0
     72e:	bf7d                	c.j	6ec <myudb_mem_cmd+0x208>
     730:	4981                	c.li	s3,0
     732:	bfdd                	c.j	728 <myudb_mem_cmd+0x244>
     734:	0037585b          	beqc	a4,3,744 <myudb_mem_cmd+0x260>
     738:	0fe00793          	li	a5,254
     73c:	08f70663          	beq	a4,a5,7c8 <myudb_mem_cmd+0x2e4>
     740:	4901                	c.li	s2,0
     742:	b76d                	c.j	6ec <myudb_mem_cmd+0x208>
     744:	00644903          	lbu	s2,6(s0)
     748:	479d                	c.li	a5,7
     74a:	0097d763          	bge	a5,s1,758 <myudb_mem_cmd+0x274>
     74e:	00744783          	lbu	a5,7(s0)
     752:	07a2                	c.slli	a5,0x8
     754:	00f90933          	add	s2,s2,a5
     758:	47a1                	c.li	a5,8
     75a:	0097d763          	bge	a5,s1,768 <myudb_mem_cmd+0x284>
     75e:	00844783          	lbu	a5,8(s0)
     762:	07c2                	c.slli	a5,0x10
     764:	00f90933          	add	s2,s2,a5
     768:	47a5                	c.li	a5,9
     76a:	0097d763          	bge	a5,s1,778 <myudb_mem_cmd+0x294>
     76e:	00944783          	lbu	a5,9(s0)
     772:	07e2                	c.slli	a5,0x18
     774:	00f90933          	add	s2,s2,a5
     778:	02090063          	beqz	s2,798 <myudb_mem_cmd+0x2b4>
     77c:	4401                	c.li	s0,0
     77e:	a809                	c.j	790 <myudb_mem_cmd+0x2ac>
     780:	01340533          	add	a0,s0,s3
     784:	20006097          	auipc	ra,0x20006
     788:	320080e7          	jalr	800(ra) # 20006aa4 <flash_erase_sector>
     78c:	6785                	c.lui	a5,0x1
     78e:	943e                	c.add	s0,a5
     790:	ff2448e3          	blt	s0,s2,780 <myudb_mem_cmd+0x29c>
     794:	4901                	c.li	s2,0
     796:	bf99                	c.j	6ec <myudb_mem_cmd+0x208>
     798:	20006097          	auipc	ra,0x20006
     79c:	218080e7          	jalr	536(ra) # 200069b0 <flash_read_mid>
     7a0:	5d0527db          	bfoz	a5,a0,23,16
     7a4:	0799                	c.addi	a5,6
     7a6:	4485                	c.li	s1,1
     7a8:	00f494b3          	sll	s1,s1,a5
     7ac:	844a                	c.mv	s0,s2
     7ae:	a809                	c.j	7c0 <myudb_mem_cmd+0x2dc>
     7b0:	01340533          	add	a0,s0,s3
     7b4:	20006097          	auipc	ra,0x20006
     7b8:	2f0080e7          	jalr	752(ra) # 20006aa4 <flash_erase_sector>
     7bc:	6785                	c.lui	a5,0x1
     7be:	943e                	c.add	s0,a5
     7c0:	fe9448e3          	blt	s0,s1,7b0 <myudb_mem_cmd+0x2cc>
     7c4:	f29ff06f          	j	6ec <myudb_mem_cmd+0x208>
     7c8:	300027f3          	csrr	a5,mstatus
     7cc:	0037fa5b          	bbc	a5,3,7e0 <myudb_mem_cmd+0x2fc>
     7d0:	300477f3          	csrrci	a5,mstatus,8
     7d4:	0ff0000f          	fence
     7d8:	0fe00913          	li	s2,254
     7dc:	f11ff06f          	j	6ec <myudb_mem_cmd+0x208>
     7e0:	0fe00913          	li	s2,254
     7e4:	f09ff06f          	j	6ec <myudb_mem_cmd+0x208>

000007e8 <myudb_hci_cmd_from_usb>:
     7e8:	1141                	c.addi	sp,-16
     7ea:	c606                	c.swsp	ra,12(sp)
     7ec:	c422                	c.swsp	s0,8(sp)
     7ee:	c226                	c.swsp	s1,4(sp)
     7f0:	4481                	c.li	s1,0
     7f2:	a80d                	c.j	824 <myudb_hci_cmd_from_usb+0x3c>
     7f4:	85aa                	c.mv	a1,a0
     7f6:	dddf950b          	addigp	a0,-548 # 805dc <buff>
     7fa:	31ed                	c.jal	4e4 <myudb_mem_cmd>
     7fc:	0fe00793          	li	a5,254
     800:	00f50c63          	beq	a0,a5,818 <myudb_hci_cmd_from_usb+0x30>
     804:	c515                	c.beqz	a0,830 <myudb_hci_cmd_from_usb+0x48>
     806:	b3bfa7ab          	lwgp	a5,-1224 # 80338 <myudb_hci_cmd_cb>
     80a:	c39d                	c.beqz	a5,830 <myudb_hci_cmd_from_usb+0x48>
     80c:	85a2                	c.mv	a1,s0
     80e:	dddf950b          	addigp	a0,-548 # 805dc <buff>
     812:	9782                	c.jalr	a5
     814:	01c0006f          	j	830 <myudb_hci_cmd_from_usb+0x48>
     818:	00a004b3          	add	s1,zero,a0
     81c:	b91ff0ef          	jal	ra,3ac <myudb_to_usb>
     820:	00048a63          	beqz	s1,834 <myudb_hci_cmd_from_usb+0x4c>
     824:	dddf950b          	addigp	a0,-548 # 805dc <buff>
     828:	3981                	c.jal	478 <myudb_usb_get_packet>
     82a:	842a                	c.mv	s0,a0
     82c:	fc0514e3          	bnez	a0,7f4 <myudb_hci_cmd_from_usb+0xc>
     830:	d8e5                	c.beqz	s1,820 <myudb_hci_cmd_from_usb+0x38>
     832:	b7ed                	c.j	81c <myudb_hci_cmd_from_usb+0x34>
     834:	4501                	c.li	a0,0
     836:	40b2                	c.lwsp	ra,12(sp)
     838:	4422                	c.lwsp	s0,8(sp)
     83a:	4492                	c.lwsp	s1,4(sp)
     83c:	0141                	c.addi	sp,16
     83e:	8082                	c.jr	ra
     840:	0001                	c.nop
	...

00000844 <analog_read_reg8>:
     844:	30002773          	csrr	a4,mstatus
     848:	8b21                	c.andi	a4,8
     84a:	c709                	c.beqz	a4,854 <analog_read_reg8+0x10>
     84c:	300477f3          	csrrci	a5,mstatus,8
     850:	0ff0000f          	fence
     854:	801407b7          	lui	a5,0x80140
     858:	18a78023          	sb	a0,384(a5) # 80140180 <_DATA_LMA_START+0x60131dc0>
     85c:	00100693          	li	a3,1
     860:	18d781a3          	sb	a3,387(a5)
     864:	04000693          	li	a3,64
     868:	18d78123          	sb	a3,386(a5)
     86c:	801407b7          	lui	a5,0x80140
     870:	18278783          	lb	a5,386(a5) # 80140182 <_DATA_LMA_START+0x60131dc2>
     874:	fe77fc5b          	bbs	a5,7,86c <analog_read_reg8+0x28>
     878:	801407b7          	lui	a5,0x80140
     87c:	18478503          	lb	a0,388(a5) # 80140184 <_DATA_LMA_START+0x60131dc4>
     880:	0ff57513          	andi	a0,a0,255
     884:	00070663          	beqz	a4,890 <analog_read_reg8+0x4c>
     888:	30072773          	csrrs	a4,mstatus,a4
     88c:	0ff0000f          	fence
     890:	00008067          	ret

00000894 <analog_write_reg8>:
     894:	30002773          	csrr	a4,mstatus
     898:	8b21                	c.andi	a4,8
     89a:	c709                	c.beqz	a4,8a4 <analog_write_reg8+0x10>
     89c:	300477f3          	csrrci	a5,mstatus,8
     8a0:	0ff0000f          	fence
     8a4:	801407b7          	lui	a5,0x80140
     8a8:	18a78023          	sb	a0,384(a5) # 80140180 <_DATA_LMA_START+0x60131dc0>
     8ac:	18b78223          	sb	a1,388(a5)
     8b0:	06000693          	li	a3,96
     8b4:	18d78123          	sb	a3,386(a5)
     8b8:	801407b7          	lui	a5,0x80140
     8bc:	18278783          	lb	a5,386(a5) # 80140182 <_DATA_LMA_START+0x60131dc2>
     8c0:	fe77fc5b          	bbs	a5,7,8b8 <analog_write_reg8+0x24>
     8c4:	801407b7          	lui	a5,0x80140
     8c8:	18078123          	sb	zero,386(a5) # 80140182 <_DATA_LMA_START+0x60131dc2>
     8cc:	00070663          	beqz	a4,8d8 <analog_write_reg8+0x44>
     8d0:	30072773          	csrrs	a4,mstatus,a4
     8d4:	0ff0000f          	fence
     8d8:	00008067          	ret

000008dc <analog_read_reg16>:
     8dc:	30002773          	csrr	a4,mstatus
     8e0:	8b21                	c.andi	a4,8
     8e2:	c709                	c.beqz	a4,8ec <analog_read_reg16+0x10>
     8e4:	300477f3          	csrrci	a5,mstatus,8
     8e8:	0ff0000f          	fence
     8ec:	801407b7          	lui	a5,0x80140
     8f0:	00200693          	li	a3,2
     8f4:	18d781a3          	sb	a3,387(a5) # 80140183 <_DATA_LMA_START+0x60131dc3>
     8f8:	18a78023          	sb	a0,384(a5)
     8fc:	04000693          	li	a3,64
     900:	18d78123          	sb	a3,386(a5)
     904:	801407b7          	lui	a5,0x80140
     908:	18278783          	lb	a5,386(a5) # 80140182 <_DATA_LMA_START+0x60131dc2>
     90c:	fe77fc5b          	bbs	a5,7,904 <analog_read_reg16+0x28>
     910:	801407b7          	lui	a5,0x80140
     914:	18479503          	lh	a0,388(a5) # 80140184 <_DATA_LMA_START+0x60131dc4>
     918:	3c05255b          	bfoz	a0,a0,15,0
     91c:	00070663          	beqz	a4,928 <analog_read_reg16+0x4c>
     920:	30072773          	csrrs	a4,mstatus,a4
     924:	0ff0000f          	fence
     928:	00008067          	ret

0000092c <analog_write_reg16>:
     92c:	30002773          	csrr	a4,mstatus
     930:	8b21                	c.andi	a4,8
     932:	c709                	c.beqz	a4,93c <analog_write_reg16+0x10>
     934:	300477f3          	csrrci	a5,mstatus,8
     938:	0ff0000f          	fence
     93c:	801407b7          	lui	a5,0x80140
     940:	18a78023          	sb	a0,384(a5) # 80140180 <_DATA_LMA_START+0x60131dc0>
     944:	18b79223          	sh	a1,388(a5)
     948:	06000693          	li	a3,96
     94c:	18d78123          	sb	a3,386(a5)
     950:	801407b7          	lui	a5,0x80140
     954:	18278783          	lb	a5,386(a5) # 80140182 <_DATA_LMA_START+0x60131dc2>
     958:	fe77fc5b          	bbs	a5,7,950 <analog_write_reg16+0x24>
     95c:	00070663          	beqz	a4,968 <analog_write_reg16+0x3c>
     960:	30072773          	csrrs	a4,mstatus,a4
     964:	0ff0000f          	fence
     968:	00008067          	ret

0000096c <analog_read_reg32>:
     96c:	30002773          	csrr	a4,mstatus
     970:	8b21                	c.andi	a4,8
     972:	c709                	c.beqz	a4,97c <analog_read_reg32+0x10>
     974:	300477f3          	csrrci	a5,mstatus,8
     978:	0ff0000f          	fence
     97c:	801407b7          	lui	a5,0x80140
     980:	00400693          	li	a3,4
     984:	18d781a3          	sb	a3,387(a5) # 80140183 <_DATA_LMA_START+0x60131dc3>
     988:	18a78023          	sb	a0,384(a5)
     98c:	04000693          	li	a3,64
     990:	18d78123          	sb	a3,386(a5)
     994:	801407b7          	lui	a5,0x80140
     998:	18278783          	lb	a5,386(a5) # 80140182 <_DATA_LMA_START+0x60131dc2>
     99c:	fe77fc5b          	bbs	a5,7,994 <analog_read_reg32+0x28>
     9a0:	801407b7          	lui	a5,0x80140
     9a4:	1847a503          	lw	a0,388(a5) # 80140184 <_DATA_LMA_START+0x60131dc4>
     9a8:	00070663          	beqz	a4,9b4 <analog_read_reg32+0x48>
     9ac:	30072773          	csrrs	a4,mstatus,a4
     9b0:	0ff0000f          	fence
     9b4:	00008067          	ret

000009b8 <analog_write_reg32>:
     9b8:	30002773          	csrr	a4,mstatus
     9bc:	8b21                	c.andi	a4,8
     9be:	c709                	c.beqz	a4,9c8 <analog_write_reg32+0x10>
     9c0:	300477f3          	csrrci	a5,mstatus,8
     9c4:	0ff0000f          	fence
     9c8:	801407b7          	lui	a5,0x80140
     9cc:	18a78023          	sb	a0,384(a5) # 80140180 <_DATA_LMA_START+0x60131dc0>
     9d0:	18b7a223          	sw	a1,388(a5)
     9d4:	06000693          	li	a3,96
     9d8:	18d78123          	sb	a3,386(a5)
     9dc:	801407b7          	lui	a5,0x80140
     9e0:	18278783          	lb	a5,386(a5) # 80140182 <_DATA_LMA_START+0x60131dc2>
     9e4:	fe77fc5b          	bbs	a5,7,9dc <analog_write_reg32+0x24>
     9e8:	00070663          	beqz	a4,9f4 <analog_write_reg32+0x3c>
     9ec:	30072773          	csrrs	a4,mstatus,a4
     9f0:	0ff0000f          	fence
     9f4:	00008067          	ret

000009f8 <analog_read_buff>:
     9f8:	30002873          	csrr	a6,mstatus
     9fc:	00887813          	andi	a6,a6,8
     a00:	00080663          	beqz	a6,a0c <analog_read_buff+0x14>
     a04:	300477f3          	csrrci	a5,mstatus,8
     a08:	0ff0000f          	fence
     a0c:	0ff67613          	andi	a2,a2,255
     a10:	801407b7          	lui	a5,0x80140
     a14:	18c781a3          	sb	a2,387(a5) # 80140183 <_DATA_LMA_START+0x60131dc3>
     a18:	18a78023          	sb	a0,384(a5)
     a1c:	04000713          	li	a4,64
     a20:	18e78123          	sb	a4,386(a5)
     a24:	00400793          	li	a5,4
     a28:	06c7f463          	bgeu	a5,a2,a90 <analog_read_buff+0x98>
     a2c:	801407b7          	lui	a5,0x80140
     a30:	18a78783          	lb	a5,394(a5) # 8014018a <_DATA_LMA_START+0x60131dca>
     a34:	be17fc5b          	bbc	a5,1,a2c <analog_read_buff+0x34>
     a38:	4781                	c.li	a5,0
     a3a:	a029                	c.j	a44 <analog_read_buff+0x4c>
     a3c:	8636                	c.mv	a2,a3
     a3e:	87ba                	c.mv	a5,a4
     a40:	00a005b3          	add	a1,zero,a0
     a44:	fff60693          	addi	a3,a2,-1
     a48:	0ff6f693          	andi	a3,a3,255
     a4c:	c221                	c.beqz	a2,a8c <analog_read_buff+0x94>
     a4e:	00178713          	addi	a4,a5,1
     a52:	0ff77713          	andi	a4,a4,255
     a56:	00140637          	lui	a2,0x140
     a5a:	18460613          	addi	a2,a2,388 # 140184 <FLASH_SIZE+0x40184>
     a5e:	97b2                	c.add	a5,a2
     a60:	80000637          	lui	a2,0x80000
     a64:	8fd1                	c.or	a5,a2
     a66:	00158513          	addi	a0,a1,1
     a6a:	00078783          	lb	a5,0(a5)
     a6e:	00f58023          	sb	a5,0(a1)
     a72:	bc47655b          	bnec	a4,4,a3c <analog_read_buff+0x44>
     a76:	4791                	c.li	a5,4
     a78:	04d7fc63          	bgeu	a5,a3,ad0 <analog_read_buff+0xd8>
     a7c:	801407b7          	lui	a5,0x80140
     a80:	18a78783          	lb	a5,394(a5) # 8014018a <_DATA_LMA_START+0x60131dca>
     a84:	be17fc5b          	bbc	a5,1,a7c <analog_read_buff+0x84>
     a88:	4701                	c.li	a4,0
     a8a:	bf4d                	c.j	a3c <analog_read_buff+0x44>
     a8c:	8636                	c.mv	a2,a3
     a8e:	a019                	c.j	a94 <analog_read_buff+0x9c>
     a90:	00000793          	li	a5,0
     a94:	80140737          	lui	a4,0x80140
     a98:	18270703          	lb	a4,386(a4) # 80140182 <_DATA_LMA_START+0x60131dc2>
     a9c:	fe777c5b          	bbs	a4,7,a94 <analog_read_buff+0x9c>
     aa0:	fff60713          	addi	a4,a2,-1 # 7fffffff <_DATA_LMA_START+0x5fff1c3f>
     aa4:	0ff77713          	andi	a4,a4,255
     aa8:	ca05                	c.beqz	a2,ad8 <analog_read_buff+0xe0>
     aaa:	00178513          	addi	a0,a5,1
     aae:	001406b7          	lui	a3,0x140
     ab2:	18468693          	addi	a3,a3,388 # 140184 <FLASH_SIZE+0x40184>
     ab6:	97b6                	c.add	a5,a3
     ab8:	800006b7          	lui	a3,0x80000
     abc:	8fd5                	c.or	a5,a3
     abe:	00078783          	lb	a5,0(a5)
     ac2:	00f58023          	sb	a5,0(a1)
     ac6:	863a                	c.mv	a2,a4
     ac8:	0ff57793          	andi	a5,a0,255
     acc:	0585                	c.addi	a1,1
     ace:	bfc9                	c.j	aa0 <analog_read_buff+0xa8>
     ad0:	8636                	c.mv	a2,a3
     ad2:	85aa                	c.mv	a1,a0
     ad4:	4781                	c.li	a5,0
     ad6:	bf7d                	c.j	a94 <analog_read_buff+0x9c>
     ad8:	801407b7          	lui	a5,0x80140
     adc:	18078123          	sb	zero,386(a5) # 80140182 <_DATA_LMA_START+0x60131dc2>
     ae0:	00080663          	beqz	a6,aec <analog_read_buff+0xf4>
     ae4:	30082873          	csrrs	a6,mstatus,a6
     ae8:	0ff0000f          	fence
     aec:	00008067          	ret

00000af0 <analog_write_buff>:
     af0:	0ff67613          	andi	a2,a2,255
     af4:	30002873          	csrr	a6,mstatus
     af8:	00887813          	andi	a6,a6,8
     afc:	00080663          	beqz	a6,b08 <analog_write_buff+0x18>
     b00:	300477f3          	csrrci	a5,mstatus,8
     b04:	0ff0000f          	fence
     b08:	801407b7          	lui	a5,0x80140
     b0c:	18c781a3          	sb	a2,387(a5) # 80140183 <_DATA_LMA_START+0x60131dc3>
     b10:	18a78023          	sb	a0,384(a5)
     b14:	4791                	c.li	a5,4
     b16:	06c7f563          	bgeu	a5,a2,b80 <analog_write_buff+0x90>
     b1a:	4511                	c.li	a0,4
     b1c:	4781                	c.li	a5,0
     b1e:	a069                	c.j	ba8 <analog_write_buff+0xb8>
     b20:	00178513          	addi	a0,a5,1
     b24:	001406b7          	lui	a3,0x140
     b28:	18468693          	addi	a3,a3,388 # 140184 <FLASH_SIZE+0x40184>
     b2c:	97b6                	c.add	a5,a3
     b2e:	800006b7          	lui	a3,0x80000
     b32:	8fd5                	c.or	a5,a3
     b34:	0005c683          	lbu	a3,0(a1)
     b38:	00d78023          	sb	a3,0(a5)
     b3c:	863a                	c.mv	a2,a4
     b3e:	0ff57793          	andi	a5,a0,255
     b42:	0585                	c.addi	a1,1
     b44:	fff60713          	addi	a4,a2,-1
     b48:	0ff77713          	andi	a4,a4,255
     b4c:	fc061ae3          	bnez	a2,b20 <analog_write_buff+0x30>
     b50:	801407b7          	lui	a5,0x80140
     b54:	06000713          	li	a4,96
     b58:	18e78123          	sb	a4,386(a5) # 80140182 <_DATA_LMA_START+0x60131dc2>
     b5c:	801407b7          	lui	a5,0x80140
     b60:	18278783          	lb	a5,386(a5) # 80140182 <_DATA_LMA_START+0x60131dc2>
     b64:	fe77fc5b          	bbs	a5,7,b5c <analog_write_buff+0x6c>
     b68:	801407b7          	lui	a5,0x80140
     b6c:	18078123          	sb	zero,386(a5) # 80140182 <_DATA_LMA_START+0x60131dc2>
     b70:	00080663          	beqz	a6,b7c <analog_write_buff+0x8c>
     b74:	30082873          	csrrs	a6,mstatus,a6
     b78:	0ff0000f          	fence
     b7c:	00008067          	ret
     b80:	4781                	c.li	a5,0
     b82:	b7c9                	c.j	b44 <analog_write_buff+0x54>
     b84:	00178893          	addi	a7,a5,1
     b88:	001406b7          	lui	a3,0x140
     b8c:	18468693          	addi	a3,a3,388 # 140184 <FLASH_SIZE+0x40184>
     b90:	97b6                	c.add	a5,a3
     b92:	800006b7          	lui	a3,0x80000
     b96:	8fd5                	c.or	a5,a3
     b98:	0005c683          	lbu	a3,0(a1)
     b9c:	00d78023          	sb	a3,0(a5)
     ba0:	853a                	c.mv	a0,a4
     ba2:	0ff8f793          	andi	a5,a7,255
     ba6:	0585                	c.addi	a1,1
     ba8:	fff50713          	addi	a4,a0,-1
     bac:	0ff77713          	andi	a4,a4,255
     bb0:	f971                	c.bnez	a0,b84 <analog_write_buff+0x94>
     bb2:	801407b7          	lui	a5,0x80140
     bb6:	06000713          	li	a4,96
     bba:	18e78123          	sb	a4,386(a5) # 80140182 <_DATA_LMA_START+0x60131dc2>
     bbe:	1671                	c.addi	a2,-4
     bc0:	0ff67613          	andi	a2,a2,255
     bc4:	87aa                	c.mv	a5,a0
     bc6:	a029                	c.j	bd0 <analog_write_buff+0xe0>
     bc8:	8636                	c.mv	a2,a3
     bca:	87ba                	c.mv	a5,a4
     bcc:	011005b3          	add	a1,zero,a7
     bd0:	fff60713          	addi	a4,a2,-1
     bd4:	0ff77693          	andi	a3,a4,255
     bd8:	d251                	c.beqz	a2,b5c <analog_write_buff+0x6c>
     bda:	00158893          	addi	a7,a1,1
     bde:	00178713          	addi	a4,a5,1
     be2:	0ff77713          	andi	a4,a4,255
     be6:	00140637          	lui	a2,0x140
     bea:	18460613          	addi	a2,a2,388 # 140184 <FLASH_SIZE+0x40184>
     bee:	97b2                	c.add	a5,a2
     bf0:	80000637          	lui	a2,0x80000
     bf4:	00c7e7b3          	or	a5,a5,a2
     bf8:	0005c603          	lbu	a2,0(a1)
     bfc:	00c78023          	sb	a2,0(a5)
     c00:	bc47645b          	bnec	a4,4,bc8 <analog_write_buff+0xd8>
     c04:	801407b7          	lui	a5,0x80140
     c08:	18a78783          	lb	a5,394(a5) # 8014018a <_DATA_LMA_START+0x60131dca>
     c0c:	be07fc5b          	bbc	a5,0,c04 <analog_write_buff+0x114>
     c10:	872a                	c.mv	a4,a0
     c12:	bf5d                	c.j	bc8 <analog_write_buff+0xd8>

00000c14 <audio_set_i2s_clock>:
     c14:	801407b7          	lui	a5,0x80140
     c18:	577d                	c.li	a4,-1
     c1a:	52e79023          	sh	a4,1312(a5) # 80140520 <_DATA_LMA_START+0x60132160>
     c1e:	0865515b          	beqc	a0,6,ca0 <audio_set_i2s_clock+0x8c>
     c22:	4799                	c.li	a5,6
     c24:	00a7fe63          	bgeu	a5,a0,c40 <audio_set_i2s_clock+0x2c>
     c28:	0885545b          	beqc	a0,8,cb0 <audio_set_i2s_clock+0x9c>
     c2c:	47a1                	c.li	a5,8
     c2e:	0af56963          	bltu	a0,a5,ce0 <audio_set_i2s_clock+0xcc>
     c32:	06c55b5b          	beqc	a0,12,ca8 <audio_set_i2s_clock+0x94>
     c36:	00d56b5b          	bnec	a0,13,c4c <audio_set_i2s_clock+0x38>
     c3a:	a99f958b          	addigp	a1,-1384 # 80298 <audio_i2s_adc_16k_dac_48k_config>
     c3e:	a809                	c.j	c50 <audio_set_i2s_clock+0x3c>
     c40:	0435585b          	beqc	a0,3,c90 <audio_set_i2s_clock+0x7c>
     c44:	04555a5b          	beqc	a0,5,c98 <audio_set_i2s_clock+0x84>
     c48:	0c050663          	beqz	a0,d14 <audio_set_i2s_clock+0x100>
     c4c:	00000593          	li	a1,0
     c50:	0045c703          	lbu	a4,4(a1)
     c54:	0055c683          	lbu	a3,5(a1)
     c58:	08076713          	ori	a4,a4,128
     c5c:	801407b7          	lui	a5,0x80140
     c60:	1ee78523          	sb	a4,490(a5) # 801401ea <_DATA_LMA_START+0x60131e2a>
     c64:	1ed785a3          	sb	a3,491(a5)
     c68:	0065c703          	lbu	a4,6(a1)
     c6c:	8b3d                	c.andi	a4,15
     c6e:	54e78a23          	sb	a4,1364(a5)
     c72:	0005d683          	lhu	a3,0(a1)
     c76:	0025d703          	lhu	a4,2(a1)
     c7a:	16fd                	c.addi	a3,-1
     c7c:	3c06a6db          	bfoz	a3,a3,15,0
     c80:	54d79823          	sh	a3,1360(a5)
     c84:	177d                	c.addi	a4,-1
     c86:	3c07275b          	bfoz	a4,a4,15,0
     c8a:	54e79923          	sh	a4,1362(a5)
     c8e:	8082                	c.jr	ra
     c90:	ab9f958b          	addigp	a1,-1352 # 802b8 <audio_i2s_16k_config>
     c94:	fbdff06f          	j	c50 <audio_set_i2s_clock+0x3c>
     c98:	ab1f958b          	addigp	a1,-1360 # 802b0 <audio_i2s_24k_config>
     c9c:	fb5ff06f          	j	c50 <audio_set_i2s_clock+0x3c>
     ca0:	aa9f958b          	addigp	a1,-1368 # 802a8 <audio_i2s_32k_config>
     ca4:	fadff06f          	j	c50 <audio_set_i2s_clock+0x3c>
     ca8:	aa1f958b          	addigp	a1,-1376 # 802a0 <audio_i2s_192k_config>
     cac:	fa5ff06f          	j	c50 <audio_set_i2s_clock+0x3c>
     cb0:	02060063          	beqz	a2,cd0 <audio_set_i2s_clock+0xbc>
     cb4:	801407b7          	lui	a5,0x80140
     cb8:	52279703          	lh	a4,1314(a5) # 80140522 <_DATA_LMA_START+0x60132162>
     cbc:	3c07275b          	bfoz	a4,a4,15,0
     cc0:	801407b7          	lui	a5,0x80140
     cc4:	52279783          	lh	a5,1314(a5) # 80140522 <_DATA_LMA_START+0x60132162>
     cc8:	3c07a7db          	bfoz	a5,a5,15,0
     ccc:	fee78ae3          	beq	a5,a4,cc0 <audio_set_i2s_clock+0xac>
     cd0:	00359793          	slli	a5,a1,0x3
     cd4:	8f8d                	c.sub	a5,a1
     cd6:	80df958b          	addigp	a1,-2036 # 8000c <audio_i2s_48k_config>
     cda:	95be                	c.add	a1,a5
     cdc:	f75ff06f          	j	c50 <audio_set_i2s_clock+0x3c>
     ce0:	02060063          	beqz	a2,d00 <audio_set_i2s_clock+0xec>
     ce4:	801407b7          	lui	a5,0x80140
     ce8:	52279703          	lh	a4,1314(a5) # 80140522 <_DATA_LMA_START+0x60132162>
     cec:	3c07275b          	bfoz	a4,a4,15,0
     cf0:	801407b7          	lui	a5,0x80140
     cf4:	52279783          	lh	a5,1314(a5) # 80140522 <_DATA_LMA_START+0x60132162>
     cf8:	3c07a7db          	bfoz	a5,a5,15,0
     cfc:	fee78ae3          	beq	a5,a4,cf0 <audio_set_i2s_clock+0xdc>
     d00:	80df978b          	addigp	a5,-2036 # 8000c <audio_i2s_48k_config>
     d04:	00359713          	slli	a4,a1,0x3
     d08:	8f0d                	c.sub	a4,a1
     d0a:	02478593          	addi	a1,a5,36
     d0e:	95ba                	c.add	a1,a4
     d10:	f41ff06f          	j	c50 <audio_set_i2s_clock+0x3c>
     d14:	ac1f958b          	addigp	a1,-1344 # 802c0 <audio_i2s_8k_config>
     d18:	f39ff06f          	j	c50 <audio_set_i2s_clock+0x3c>

00000d1c <audio_change_sample_rate>:
     d1c:	1141                	c.addi	sp,-16
     d1e:	c606                	c.swsp	ra,12(sp)
     d20:	c422                	c.swsp	s0,8(sp)
     d22:	842a                	c.mv	s0,a0
     d24:	4605                	c.li	a2,1
     d26:	4581                	c.li	a1,0
     d28:	35f5                	c.jal	c14 <audio_set_i2s_clock>
     d2a:	883d                	c.andi	s0,15
     d2c:	801207b7          	lui	a5,0x80120
     d30:	22878623          	sb	s0,556(a5) # 8012022c <_DATA_LMA_START+0x60111e6c>
     d34:	40b2                	c.lwsp	ra,12(sp)
     d36:	4422                	c.lwsp	s0,8(sp)
     d38:	0141                	c.addi	sp,16
     d3a:	8082                	c.jr	ra

00000d3c <clock_cal_24m_rc>:
     d3c:	1141                	c.addi	sp,-16
     d3e:	c606                	c.swsp	ra,12(sp)
     d40:	08000593          	li	a1,128
     d44:	0c800513          	li	a0,200
     d48:	36b1                	c.jal	894 <analog_write_reg8>
     d4a:	04f00513          	li	a0,79
     d4e:	3cdd                	c.jal	844 <analog_read_reg8>
     d50:	f8056593          	ori	a1,a0,-128
     d54:	0ff5f593          	andi	a1,a1,255
     d58:	04f00513          	li	a0,79
     d5c:	3e25                	c.jal	894 <analog_write_reg8>
     d5e:	45b9                	c.li	a1,14
     d60:	0c700513          	li	a0,199
     d64:	3e05                	c.jal	894 <analog_write_reg8>
     d66:	45bd                	c.li	a1,15
     d68:	0c700513          	li	a0,199
     d6c:	b29ff0ef          	jal	ra,894 <analog_write_reg8>
     d70:	0cf00513          	li	a0,207
     d74:	3cc1                	c.jal	844 <analog_read_reg8>
     d76:	be757d5b          	bbc	a0,7,d70 <clock_cal_24m_rc+0x34>
     d7a:	0cb00513          	li	a0,203
     d7e:	34d9                	c.jal	844 <analog_read_reg8>
     d80:	85aa                	c.mv	a1,a0
     d82:	05200513          	li	a0,82
     d86:	3639                	c.jal	894 <analog_write_reg8>
     d88:	04f00513          	li	a0,79
     d8c:	3c65                	c.jal	844 <analog_read_reg8>
     d8e:	07f57593          	andi	a1,a0,127
     d92:	04f00513          	li	a0,79
     d96:	3cfd                	c.jal	894 <analog_write_reg8>
     d98:	45b9                	c.li	a1,14
     d9a:	0c700513          	li	a0,199
     d9e:	3cdd                	c.jal	894 <analog_write_reg8>
     da0:	05200513          	li	a0,82
     da4:	3445                	c.jal	844 <analog_read_reg8>
     da6:	000007b7          	lui	a5,0x0
     daa:	18a78123          	sb	a0,386(a5) # 182 <tl_24mrc_cal>
     dae:	40b2                	c.lwsp	ra,12(sp)
     db0:	0141                	c.addi	sp,16
     db2:	8082                	c.jr	ra

00000db4 <clock_get_32k_tick>:
     db4:	1141                	c.addi	sp,-16
     db6:	c606                	c.swsp	ra,12(sp)
     db8:	c422                	c.swsp	s0,8(sp)
     dba:	06000513          	li	a0,96
     dbe:	367d                	c.jal	96c <analog_read_reg32>
     dc0:	842a                	c.mv	s0,a0
     dc2:	a019                	c.j	dc8 <clock_get_32k_tick+0x14>
     dc4:	00a00433          	add	s0,zero,a0
     dc8:	06000513          	li	a0,96
     dcc:	3645                	c.jal	96c <analog_read_reg32>
     dce:	408507b3          	sub	a5,a0,s0
     dd2:	0017d55b          	beqc	a5,1,ddc <clock_get_32k_tick+0x28>
     dd6:	fea417e3          	bne	s0,a0,dc4 <clock_get_32k_tick+0x10>
     dda:	b7fd                	c.j	dc8 <clock_get_32k_tick+0x14>
     ddc:	40b2                	c.lwsp	ra,12(sp)
     dde:	4422                	c.lwsp	s0,8(sp)
     de0:	0141                	c.addi	sp,16
     de2:	8082                	c.jr	ra

00000de4 <clock_set_32k_tick>:
     de4:	80140737          	lui	a4,0x80140
     de8:	20a70783          	lb	a5,522(a4) # 8014020a <_DATA_LMA_START+0x60131e4a>
     dec:	0ff7f793          	andi	a5,a5,255
     df0:	0017e793          	ori	a5,a5,1
     df4:	20f70523          	sb	a5,522(a4)
     df8:	801407b7          	lui	a5,0x80140
     dfc:	20b78783          	lb	a5,523(a5) # 8014020b <_DATA_LMA_START+0x60131e4b>
     e00:	fe67fc5b          	bbs	a5,6,df8 <clock_set_32k_tick+0x14>
     e04:	801407b7          	lui	a5,0x80140
     e08:	20a7a623          	sw	a0,524(a5) # 8014020c <_DATA_LMA_START+0x60131e4c>
     e0c:	4721                	c.li	a4,8
     e0e:	20e785a3          	sb	a4,523(a5)
     e12:	0001                	c.nop
     e14:	0001                	c.nop
     e16:	0001                	c.nop
     e18:	0001                	c.nop
     e1a:	0001                	c.nop
     e1c:	0001                	c.nop
     e1e:	0001                	c.nop
     e20:	0001                	c.nop
     e22:	0001                	c.nop
     e24:	0001                	c.nop
     e26:	0001                	c.nop
     e28:	0001                	c.nop
     e2a:	0001                	c.nop
     e2c:	0001                	c.nop
     e2e:	0001                	c.nop
     e30:	00000013          	nop
     e34:	801407b7          	lui	a5,0x80140
     e38:	20b78783          	lb	a5,523(a5) # 8014020b <_DATA_LMA_START+0x60131e4b>
     e3c:	fe37fc5b          	bbs	a5,3,e34 <clock_set_32k_tick+0x50>
     e40:	00008067          	ret

00000e44 <clock_init_ram>:
     e44:	1101                	c.addi	sp,-32
     e46:	ce06                	c.swsp	ra,28(sp)
     e48:	cc22                	c.swsp	s0,24(sp)
     e4a:	ca26                	c.swsp	s1,20(sp)
     e4c:	c84a                	c.swsp	s2,16(sp)
     e4e:	c64e                	c.swsp	s3,12(sp)
     e50:	c452                	c.swsp	s4,8(sp)
     e52:	c256                	c.swsp	s5,4(sp)
     e54:	c05a                	c.swsp	s6,0(sp)
     e56:	842a                	c.mv	s0,a0
     e58:	892e                	c.mv	s2,a1
     e5a:	8ab2                	c.mv	s5,a2
     e5c:	84b6                	c.mv	s1,a3
     e5e:	8a3a                	c.mv	s4,a4
     e60:	00f009b3          	add	s3,zero,a5
     e64:	801407b7          	lui	a5,0x80140
     e68:	10278783          	lb	a5,258(a5) # 80140102 <_DATA_LMA_START+0x60131d42>
     e6c:	fe07fc5b          	bbs	a5,0,e64 <clock_init_ram+0x20>
     e70:	80140737          	lui	a4,0x80140
     e74:	10170783          	lb	a5,257(a4) # 80140101 <_DATA_LMA_START+0x60131d41>
     e78:	0ff7f793          	andi	a5,a5,255
     e7c:	0107e793          	ori	a5,a5,16
     e80:	10f700a3          	sb	a5,257(a4)
     e84:	801407b7          	lui	a5,0x80140
     e88:	32878783          	lb	a5,808(a5) # 80140328 <_DATA_LMA_START+0x60131f68>
     e8c:	be37fc5b          	bbc	a5,3,e84 <clock_init_ram+0x40>
     e90:	80140b37          	lui	s6,0x80140
     e94:	1e8b0783          	lb	a5,488(s6) # 801401e8 <_DATA_LMA_START+0x60131e28>
     e98:	8bbd                	c.andi	a5,15
     e9a:	1efb0423          	sb	a5,488(s6)
     e9e:	08000513          	li	a0,128
     ea2:	324d                	c.jal	844 <analog_read_reg8>
     ea4:	0e057593          	andi	a1,a0,224
     ea8:	182427db          	bfoz	a5,s0,6,2
     eac:	8ddd                	c.or	a1,a5
     eae:	08000513          	li	a0,128
     eb2:	32cd                	c.jal	894 <analog_write_reg8>
     eb4:	4525                	c.li	a0,9
     eb6:	3279                	c.jal	844 <analog_read_reg8>
     eb8:	0f357593          	andi	a1,a0,243
     ebc:	083427db          	bfoz	a5,s0,2,3
     ec0:	8ddd                	c.or	a1,a5
     ec2:	4525                	c.li	a0,9
     ec4:	3ac1                	c.jal	894 <analog_write_reg8>
     ec6:	5c84245b          	bfoz	s0,s0,23,8
     eca:	ac8f88ab          	shgp	s0,-1328 # 802d0 <sys_clk>
     ece:	aaaab7b7          	lui	a5,0xaaaab
     ed2:	aab78793          	addi	a5,a5,-1365 # aaaaaaab <_DATA_LMA_START+0x8aa9c6eb>
     ed6:	02f43433          	mulhu	s0,s0,a5
     eda:	3054245b          	bfoz	s0,s0,12,5
     ede:	1e8b0da3          	sb	s0,507(s6)
     ee2:	08100513          	li	a0,129
     ee6:	3ab9                	c.jal	844 <analog_read_reg8>
     ee8:	04056593          	ori	a1,a0,64
     eec:	0ff5f593          	andi	a1,a1,255
     ef0:	08100513          	li	a0,129
     ef4:	9a1ff0ef          	jal	ra,894 <analog_write_reg8>
     ef8:	08800513          	li	a0,136
     efc:	32a1                	c.jal	844 <analog_read_reg8>
     efe:	be557d5b          	bbc	a0,5,ef8 <clock_init_ram+0xb4>
     f02:	08100513          	li	a0,129
     f06:	3a3d                	c.jal	844 <analog_read_reg8>
     f08:	0bf57593          	andi	a1,a0,191
     f0c:	08100513          	li	a0,129
     f10:	3251                	c.jal	894 <analog_write_reg8>
     f12:	0e19d55b          	beqc	s3,1,ffc <clock_init_ram+0x1b8>
     f16:	80140737          	lui	a4,0x80140
     f1a:	1e970783          	lb	a5,489(a4) # 801401e9 <_DATA_LMA_START+0x60131e29>
     f1e:	8bbd                	c.andi	a5,15
     f20:	00499693          	slli	a3,s3,0x4
     f24:	00d7e7b3          	or	a5,a5,a3
     f28:	0ff7f793          	andi	a5,a5,255
     f2c:	1ef704a3          	sb	a5,489(a4)
     f30:	1e870783          	lb	a5,488(a4)
     f34:	f807e793          	ori	a5,a5,-128
     f38:	0ff7f793          	andi	a5,a5,255
     f3c:	1ef70423          	sb	a5,488(a4)
     f40:	1e870783          	lb	a5,488(a4)
     f44:	f807e793          	ori	a5,a5,-128
     f48:	0ff7f793          	andi	a5,a5,255
     f4c:	1ef70423          	sb	a5,488(a4)
     f50:	ad1fd72b          	lhugp	a4,-1328 # 802d0 <sys_clk>
     f54:	03374733          	div	a4,a4,s3
     f58:	ad1f978b          	addigp	a5,-1328 # 802d0 <sys_clk>
     f5c:	00e782a3          	sb	a4,5(a5)
     f60:	0a14d85b          	beqc	s1,1,1010 <clock_init_ram+0x1cc>
     f64:	80140737          	lui	a4,0x80140
     f68:	1d870783          	lb	a5,472(a4) # 801401d8 <_DATA_LMA_START+0x60131e18>
     f6c:	0ff7f793          	andi	a5,a5,255
     f70:	0047e793          	ori	a5,a5,4
     f74:	1cf70c23          	sb	a5,472(a4)
     f78:	0a1a565b          	beqc	s4,1,1024 <clock_init_ram+0x1e0>
     f7c:	80140737          	lui	a4,0x80140
     f80:	1d870783          	lb	a5,472(a4) # 801401d8 <_DATA_LMA_START+0x60131e18>
     f84:	1c07b7db          	bfos	a5,a5,7,0
     f88:	9bf1                	c.andi	a5,-4
     f8a:	001a5693          	srli	a3,s4,0x1
     f8e:	8fd5                	c.or	a5,a3
     f90:	0ff7f793          	andi	a5,a5,255
     f94:	1cf70c23          	sb	a5,472(a4)
     f98:	0a29505b          	beqc	s2,2,1038 <clock_init_ram+0x1f4>
     f9c:	0c39545b          	beqc	s2,3,1064 <clock_init_ram+0x220>
     fa0:	ad1f978b          	addigp	a5,-1328 # 802d0 <sys_clk>
     fa4:	01800713          	li	a4,24
     fa8:	00e78123          	sb	a4,2(a5)
     fac:	80140737          	lui	a4,0x80140
     fb0:	1e870783          	lb	a5,488(a4) # 801401e8 <_DATA_LMA_START+0x60131e28>
     fb4:	1c07b7db          	bfos	a5,a5,7,0
     fb8:	f8f7f793          	andi	a5,a5,-113
     fbc:	00491913          	slli	s2,s2,0x4
     fc0:	0127e933          	or	s2,a5,s2
     fc4:	0ff97913          	andi	s2,s2,255
     fc8:	1f270423          	sb	s2,488(a4)
     fcc:	ad1f978b          	addigp	a5,-1328 # 802d0 <sys_clk>
     fd0:	0027c703          	lbu	a4,2(a5)
     fd4:	029754b3          	divu	s1,a4,s1
     fd8:	009781a3          	sb	s1,3(a5)
     fdc:	0344d4b3          	divu	s1,s1,s4
     fe0:	00978223          	sb	s1,4(a5)
     fe4:	0819d85b          	beqc	s3,1,1074 <clock_init_ram+0x230>
     fe8:	40f2                	c.lwsp	ra,28(sp)
     fea:	4462                	c.lwsp	s0,24(sp)
     fec:	44d2                	c.lwsp	s1,20(sp)
     fee:	4942                	c.lwsp	s2,16(sp)
     ff0:	49b2                	c.lwsp	s3,12(sp)
     ff2:	4a22                	c.lwsp	s4,8(sp)
     ff4:	4a92                	c.lwsp	s5,4(sp)
     ff6:	4b02                	c.lwsp	s6,0(sp)
     ff8:	6105                	c.addi16sp	sp,32
     ffa:	8082                	c.jr	ra
     ffc:	80140737          	lui	a4,0x80140
    1000:	1e870783          	lb	a5,488(a4) # 801401e8 <_DATA_LMA_START+0x60131e28>
    1004:	07f7f793          	andi	a5,a5,127
    1008:	1ef70423          	sb	a5,488(a4)
    100c:	f55ff06f          	j	f60 <clock_init_ram+0x11c>
    1010:	80140737          	lui	a4,0x80140
    1014:	1d870783          	lb	a5,472(a4) # 801401d8 <_DATA_LMA_START+0x60131e18>
    1018:	0fb7f793          	andi	a5,a5,251
    101c:	1cf70c23          	sb	a5,472(a4)
    1020:	f59ff06f          	j	f78 <clock_init_ram+0x134>
    1024:	80140737          	lui	a4,0x80140
    1028:	1d870783          	lb	a5,472(a4) # 801401d8 <_DATA_LMA_START+0x60131e18>
    102c:	0fc7f793          	andi	a5,a5,252
    1030:	1cf70c23          	sb	a5,472(a4)
    1034:	f65ff06f          	j	f98 <clock_init_ram+0x154>
    1038:	80140737          	lui	a4,0x80140
    103c:	1e870783          	lb	a5,488(a4) # 801401e8 <_DATA_LMA_START+0x60131e28>
    1040:	1c07b7db          	bfos	a5,a5,7,0
    1044:	9bc1                	c.andi	a5,-16
    1046:	0157e7b3          	or	a5,a5,s5
    104a:	0ff7f793          	andi	a5,a5,255
    104e:	1ef70423          	sb	a5,488(a4)
    1052:	ad1fd72b          	lhugp	a4,-1328 # 802d0 <sys_clk>
    1056:	03574ab3          	div	s5,a4,s5
    105a:	ad1f978b          	addigp	a5,-1328 # 802d0 <sys_clk>
    105e:	01578123          	sb	s5,2(a5)
    1062:	b7a9                	c.j	fac <clock_init_ram+0x168>
    1064:	ad1fd72b          	lhugp	a4,-1328 # 802d0 <sys_clk>
    1068:	ad1f978b          	addigp	a5,-1328 # 802d0 <sys_clk>
    106c:	00e78123          	sb	a4,2(a5)
    1070:	f3dff06f          	j	fac <clock_init_ram+0x168>
    1074:	ad1f978b          	addigp	a5,-1328 # 802d0 <sys_clk>
    1078:	00e782a3          	sb	a4,5(a5)
    107c:	b7b5                	c.j	fe8 <clock_init_ram+0x1a4>
    107e:	0001                	c.nop

00001080 <flash_send_addr>:
    1080:	5d05275b          	bfoz	a4,a0,23,16
    1084:	801407b7          	lui	a5,0x80140
    1088:	10e78023          	sb	a4,256(a5) # 80140100 <_DATA_LMA_START+0x60131d40>
    108c:	801407b7          	lui	a5,0x80140
    1090:	10278783          	lb	a5,258(a5) # 80140102 <_DATA_LMA_START+0x60131d42>
    1094:	fe07fc5b          	bbs	a5,0,108c <flash_send_addr+0xc>
    1098:	3c8527db          	bfoz	a5,a0,15,8
    109c:	80140737          	lui	a4,0x80140
    10a0:	10f70023          	sb	a5,256(a4) # 80140100 <_DATA_LMA_START+0x60131d40>
    10a4:	801407b7          	lui	a5,0x80140
    10a8:	10278783          	lb	a5,258(a5) # 80140102 <_DATA_LMA_START+0x60131d42>
    10ac:	fe07fc5b          	bbs	a5,0,10a4 <flash_send_addr+0x24>
    10b0:	0ff57513          	andi	a0,a0,255
    10b4:	801407b7          	lui	a5,0x80140
    10b8:	10a78023          	sb	a0,256(a5) # 80140100 <_DATA_LMA_START+0x60131d40>
    10bc:	801407b7          	lui	a5,0x80140
    10c0:	10278783          	lb	a5,258(a5) # 80140102 <_DATA_LMA_START+0x60131d42>
    10c4:	fe07fc5b          	bbs	a5,0,10bc <flash_send_addr+0x3c>
    10c8:	00008067          	ret

000010cc <flash_send_cmd>:
    10cc:	801407b7          	lui	a5,0x80140
    10d0:	10178703          	lb	a4,257(a5) # 80140101 <_DATA_LMA_START+0x60131d41>
    10d4:	0ff77713          	andi	a4,a4,255
    10d8:	01076713          	ori	a4,a4,16
    10dc:	10e780a3          	sb	a4,257(a5)
    10e0:	0001                	c.nop
    10e2:	0001                	c.nop
    10e4:	0001                	c.nop
    10e6:	0001                	c.nop
    10e8:	0001                	c.nop
    10ea:	0001                	c.nop
    10ec:	0001                	c.nop
    10ee:	0001                	c.nop
    10f0:	0001                	c.nop
    10f2:	0001                	c.nop
    10f4:	10178703          	lb	a4,257(a5)
    10f8:	0ef77713          	andi	a4,a4,239
    10fc:	10e780a3          	sb	a4,257(a5)
    1100:	10a78023          	sb	a0,256(a5)
    1104:	801407b7          	lui	a5,0x80140
    1108:	10278783          	lb	a5,258(a5) # 80140102 <_DATA_LMA_START+0x60131d42>
    110c:	fe07fc5b          	bbs	a5,0,1104 <flash_send_cmd+0x38>
    1110:	00008067          	ret

00001114 <flash_wait_done>:
    1114:	1141                	c.addi	sp,-16
    1116:	c606                	c.swsp	ra,12(sp)
    1118:	4515                	c.li	a0,5
    111a:	3f4d                	c.jal	10cc <flash_send_cmd>
    111c:	00000713          	li	a4,0
    1120:	009897b7          	lui	a5,0x989
    1124:	67f78793          	addi	a5,a5,1663 # 98967f <FLASH_SIZE+0x88967f>
    1128:	02e7c463          	blt	a5,a4,1150 <flash_wait_done+0x3c>
    112c:	801407b7          	lui	a5,0x80140
    1130:	10078023          	sb	zero,256(a5) # 80140100 <_DATA_LMA_START+0x60131d40>
    1134:	801407b7          	lui	a5,0x80140
    1138:	10278783          	lb	a5,258(a5) # 80140102 <_DATA_LMA_START+0x60131d42>
    113c:	fe07fc5b          	bbs	a5,0,1134 <flash_wait_done+0x20>
    1140:	801407b7          	lui	a5,0x80140
    1144:	10078783          	lb	a5,256(a5) # 80140100 <_DATA_LMA_START+0x60131d40>
    1148:	0007f45b          	bbc	a5,0,1150 <flash_wait_done+0x3c>
    114c:	0705                	c.addi	a4,1
    114e:	bfc9                	c.j	1120 <flash_wait_done+0xc>
    1150:	80140737          	lui	a4,0x80140
    1154:	10170783          	lb	a5,257(a4) # 80140101 <_DATA_LMA_START+0x60131d41>
    1158:	0ff7f793          	andi	a5,a5,255
    115c:	0107e793          	ori	a5,a5,16
    1160:	10f700a3          	sb	a5,257(a4)
    1164:	40b2                	c.lwsp	ra,12(sp)
    1166:	0141                	c.addi	sp,16
    1168:	00008067          	ret

0000116c <flash_mspi_read_ram>:
    116c:	1101                	c.addi	sp,-32
    116e:	ce06                	c.swsp	ra,28(sp)
    1170:	cc22                	c.swsp	s0,24(sp)
    1172:	ca26                	c.swsp	s1,20(sp)
    1174:	c84a                	c.swsp	s2,16(sp)
    1176:	c64e                	c.swsp	s3,12(sp)
    1178:	c452                	c.swsp	s4,8(sp)
    117a:	c256                	c.swsp	s5,4(sp)
    117c:	c05a                	c.swsp	s6,0(sp)
    117e:	892a                	c.mv	s2,a0
    1180:	8b2e                	c.mv	s6,a1
    1182:	8ab2                	c.mv	s5,a2
    1184:	8a36                	c.mv	s4,a3
    1186:	843a                	c.mv	s0,a4
    1188:	84be                	c.mv	s1,a5
    118a:	000007b7          	lui	a5,0x0
    118e:	18478793          	addi	a5,a5,388 # 184 <s_flash_preempt_config>
    1192:	0017c583          	lbu	a1,1(a5)
    1196:	0007c503          	lbu	a0,0(a5)
    119a:	43f010ef          	jal	ra,2dd8 <plic_enter_critical_sec>
    119e:	89aa                	c.mv	s3,a0
    11a0:	801407b7          	lui	a5,0x80140
    11a4:	10278783          	lb	a5,258(a5) # 80140102 <_DATA_LMA_START+0x60131d42>
    11a8:	fe07fc5b          	bbs	a5,0,11a0 <flash_mspi_read_ram+0x34>
    11ac:	80140737          	lui	a4,0x80140
    11b0:	10170783          	lb	a5,257(a4) # 80140101 <_DATA_LMA_START+0x60131d41>
    11b4:	0ff7f793          	andi	a5,a5,255
    11b8:	0107e793          	ori	a5,a5,16
    11bc:	10f700a3          	sb	a5,257(a4)
    11c0:	801407b7          	lui	a5,0x80140
    11c4:	32878783          	lb	a5,808(a5) # 80140328 <_DATA_LMA_START+0x60131f68>
    11c8:	be37fc5b          	bbc	a5,3,11c0 <flash_mspi_read_ram+0x54>
    11cc:	801407b7          	lui	a5,0x80140
    11d0:	10178703          	lb	a4,257(a5) # 80140101 <_DATA_LMA_START+0x60131d41>
    11d4:	0fd77713          	andi	a4,a4,253
    11d8:	10e780a3          	sb	a4,257(a5)
    11dc:	10178703          	lb	a4,257(a5)
    11e0:	0f377713          	andi	a4,a4,243
    11e4:	10e780a3          	sb	a4,257(a5)
    11e8:	854a                	c.mv	a0,s2
    11ea:	35cd                	c.jal	10cc <flash_send_cmd>
    11ec:	0eb00793          	li	a5,235
    11f0:	00f90663          	beq	s2,a5,11fc <flash_mspi_read_ram+0x90>
    11f4:	020a9263          	bnez	s5,1218 <flash_mspi_read_ram+0xac>
    11f8:	4701                	c.li	a4,0
    11fa:	a83d                	c.j	1238 <flash_mspi_read_ram+0xcc>
    11fc:	80140737          	lui	a4,0x80140
    1200:	10170783          	lb	a5,257(a4) # 80140101 <_DATA_LMA_START+0x60131d41>
    1204:	1c07b7db          	bfos	a5,a5,7,0
    1208:	00c7e793          	ori	a5,a5,12
    120c:	0ff7f793          	andi	a5,a5,255
    1210:	10f700a3          	sb	a5,257(a4)
    1214:	fe1ff06f          	j	11f4 <flash_mspi_read_ram+0x88>
    1218:	855a                	c.mv	a0,s6
    121a:	359d                	c.jal	1080 <flash_send_addr>
    121c:	fddff06f          	j	11f8 <flash_mspi_read_ram+0x8c>
    1220:	801407b7          	lui	a5,0x80140
    1224:	10078023          	sb	zero,256(a5) # 80140100 <_DATA_LMA_START+0x60131d40>
    1228:	801407b7          	lui	a5,0x80140
    122c:	10278783          	lb	a5,258(a5) # 80140102 <_DATA_LMA_START+0x60131d42>
    1230:	fe07fc5b          	bbs	a5,0,1228 <flash_mspi_read_ram+0xbc>
    1234:	00170713          	addi	a4,a4,1
    1238:	ff4764e3          	bltu	a4,s4,1220 <flash_mspi_read_ram+0xb4>
    123c:	05b956db          	beqc	s2,59,1288 <flash_mspi_read_ram+0x11c>
    1240:	80140737          	lui	a4,0x80140
    1244:	10170783          	lb	a5,257(a4) # 80140101 <_DATA_LMA_START+0x60131d41>
    1248:	0ff7f793          	andi	a5,a5,255
    124c:	0027e793          	ori	a5,a5,2
    1250:	10f700a3          	sb	a5,257(a4)
    1254:	10070023          	sb	zero,256(a4)
    1258:	801407b7          	lui	a5,0x80140
    125c:	10278783          	lb	a5,258(a5) # 80140102 <_DATA_LMA_START+0x60131d42>
    1260:	fe07fc5b          	bbs	a5,0,1258 <flash_mspi_read_ram+0xec>
    1264:	80140737          	lui	a4,0x80140
    1268:	10170783          	lb	a5,257(a4) # 80140101 <_DATA_LMA_START+0x60131d41>
    126c:	0ff7f793          	andi	a5,a5,255
    1270:	0017e793          	ori	a5,a5,1
    1274:	10f700a3          	sb	a5,257(a4)
    1278:	801407b7          	lui	a5,0x80140
    127c:	10278783          	lb	a5,258(a5) # 80140102 <_DATA_LMA_START+0x60131d42>
    1280:	fe07fc5b          	bbs	a5,0,1278 <flash_mspi_read_ram+0x10c>
    1284:	4701                	c.li	a4,0
    1286:	a83d                	c.j	12c4 <flash_mspi_read_ram+0x158>
    1288:	80140737          	lui	a4,0x80140
    128c:	10170783          	lb	a5,257(a4) # 80140101 <_DATA_LMA_START+0x60131d41>
    1290:	1c07b7db          	bfos	a5,a5,7,0
    1294:	9bcd                	c.andi	a5,-13
    1296:	0047e793          	ori	a5,a5,4
    129a:	0ff7f793          	andi	a5,a5,255
    129e:	10f700a3          	sb	a5,257(a4)
    12a2:	bf79                	c.j	1240 <flash_mspi_read_ram+0xd4>
    12a4:	00140693          	addi	a3,s0,1
    12a8:	801407b7          	lui	a5,0x80140
    12ac:	10078783          	lb	a5,256(a5) # 80140100 <_DATA_LMA_START+0x60131d40>
    12b0:	00f40023          	sb	a5,0(s0)
    12b4:	801407b7          	lui	a5,0x80140
    12b8:	10278783          	lb	a5,258(a5) # 80140102 <_DATA_LMA_START+0x60131d42>
    12bc:	fe07fc5b          	bbs	a5,0,12b4 <flash_mspi_read_ram+0x148>
    12c0:	0705                	c.addi	a4,1
    12c2:	8436                	c.mv	s0,a3
    12c4:	fe9760e3          	bltu	a4,s1,12a4 <flash_mspi_read_ram+0x138>
    12c8:	80140737          	lui	a4,0x80140
    12cc:	10170783          	lb	a5,257(a4) # 80140101 <_DATA_LMA_START+0x60131d41>
    12d0:	0fe7f793          	andi	a5,a5,254
    12d4:	10f700a3          	sb	a5,257(a4)
    12d8:	0eb00793          	li	a5,235
    12dc:	00f90463          	beq	s2,a5,12e4 <flash_mspi_read_ram+0x178>
    12e0:	01b96adb          	bnec	s2,59,12f4 <flash_mspi_read_ram+0x188>
    12e4:	80140737          	lui	a4,0x80140
    12e8:	10170783          	lb	a5,257(a4) # 80140101 <_DATA_LMA_START+0x60131d41>
    12ec:	0f37f793          	andi	a5,a5,243
    12f0:	10f700a3          	sb	a5,257(a4)
    12f4:	80140737          	lui	a4,0x80140
    12f8:	10170783          	lb	a5,257(a4) # 80140101 <_DATA_LMA_START+0x60131d41>
    12fc:	0ff7f793          	andi	a5,a5,255
    1300:	0107e793          	ori	a5,a5,16
    1304:	10f700a3          	sb	a5,257(a4)
    1308:	0001                	c.nop
    130a:	0001                	c.nop
    130c:	0001                	c.nop
    130e:	0001                	c.nop
    1310:	0001                	c.nop
    1312:	85ce                	c.mv	a1,s3
    1314:	000007b7          	lui	a5,0x0
    1318:	1847c503          	lbu	a0,388(a5) # 184 <s_flash_preempt_config>
    131c:	265010ef          	jal	ra,2d80 <plic_exit_critical_sec>
    1320:	40f2                	c.lwsp	ra,28(sp)
    1322:	4462                	c.lwsp	s0,24(sp)
    1324:	44d2                	c.lwsp	s1,20(sp)
    1326:	4942                	c.lwsp	s2,16(sp)
    1328:	49b2                	c.lwsp	s3,12(sp)
    132a:	4a22                	c.lwsp	s4,8(sp)
    132c:	4a92                	c.lwsp	s5,4(sp)
    132e:	4b02                	c.lwsp	s6,0(sp)
    1330:	6105                	c.addi16sp	sp,32
    1332:	8082                	c.jr	ra

00001334 <flash_mspi_write_ram>:
    1334:	1101                	c.addi	sp,-32
    1336:	ce06                	c.swsp	ra,28(sp)
    1338:	cc22                	c.swsp	s0,24(sp)
    133a:	ca26                	c.swsp	s1,20(sp)
    133c:	c84a                	c.swsp	s2,16(sp)
    133e:	c64e                	c.swsp	s3,12(sp)
    1340:	c452                	c.swsp	s4,8(sp)
    1342:	c256                	c.swsp	s5,4(sp)
    1344:	892a                	c.mv	s2,a0
    1346:	8aae                	c.mv	s5,a1
    1348:	8a32                	c.mv	s4,a2
    134a:	84b6                	c.mv	s1,a3
    134c:	843a                	c.mv	s0,a4
    134e:	000007b7          	lui	a5,0x0
    1352:	18478793          	addi	a5,a5,388 # 184 <s_flash_preempt_config>
    1356:	0017c583          	lbu	a1,1(a5)
    135a:	0007c503          	lbu	a0,0(a5)
    135e:	27b010ef          	jal	ra,2dd8 <plic_enter_critical_sec>
    1362:	89aa                	c.mv	s3,a0
    1364:	801407b7          	lui	a5,0x80140
    1368:	10278783          	lb	a5,258(a5) # 80140102 <_DATA_LMA_START+0x60131d42>
    136c:	fe07fc5b          	bbs	a5,0,1364 <flash_mspi_write_ram+0x30>
    1370:	80140737          	lui	a4,0x80140
    1374:	10170783          	lb	a5,257(a4) # 80140101 <_DATA_LMA_START+0x60131d41>
    1378:	0ff7f793          	andi	a5,a5,255
    137c:	0107e793          	ori	a5,a5,16
    1380:	10f700a3          	sb	a5,257(a4)
    1384:	801407b7          	lui	a5,0x80140
    1388:	32878783          	lb	a5,808(a5) # 80140328 <_DATA_LMA_START+0x60131f68>
    138c:	be37fc5b          	bbc	a5,3,1384 <flash_mspi_write_ram+0x50>
    1390:	801407b7          	lui	a5,0x80140
    1394:	10178703          	lb	a4,257(a5) # 80140101 <_DATA_LMA_START+0x60131d41>
    1398:	0fd77713          	andi	a4,a4,253
    139c:	10e780a3          	sb	a4,257(a5)
    13a0:	10178703          	lb	a4,257(a5)
    13a4:	0f377713          	andi	a4,a4,243
    13a8:	10e780a3          	sb	a4,257(a5)
    13ac:	4519                	c.li	a0,6
    13ae:	3b39                	c.jal	10cc <flash_send_cmd>
    13b0:	854a                	c.mv	a0,s2
    13b2:	3b29                	c.jal	10cc <flash_send_cmd>
    13b4:	000a1663          	bnez	s4,13c0 <flash_mspi_write_ram+0x8c>
    13b8:	012958db          	beqc	s2,50,13c8 <flash_mspi_write_ram+0x94>
    13bc:	4701                	c.li	a4,0
    13be:	a099                	c.j	1404 <flash_mspi_write_ram+0xd0>
    13c0:	8556                	c.mv	a0,s5
    13c2:	397d                	c.jal	1080 <flash_send_addr>
    13c4:	ff5ff06f          	j	13b8 <flash_mspi_write_ram+0x84>
    13c8:	80140737          	lui	a4,0x80140
    13cc:	10170783          	lb	a5,257(a4) # 80140101 <_DATA_LMA_START+0x60131d41>
    13d0:	1c07b7db          	bfos	a5,a5,7,0
    13d4:	00c7e793          	ori	a5,a5,12
    13d8:	0ff7f793          	andi	a5,a5,255
    13dc:	10f700a3          	sb	a5,257(a4)
    13e0:	fddff06f          	j	13bc <flash_mspi_write_ram+0x88>
    13e4:	00e487b3          	add	a5,s1,a4
    13e8:	0007c683          	lbu	a3,0(a5)
    13ec:	801407b7          	lui	a5,0x80140
    13f0:	10d78023          	sb	a3,256(a5) # 80140100 <_DATA_LMA_START+0x60131d40>
    13f4:	801407b7          	lui	a5,0x80140
    13f8:	10278783          	lb	a5,258(a5) # 80140102 <_DATA_LMA_START+0x60131d42>
    13fc:	fe07fc5b          	bbs	a5,0,13f4 <flash_mspi_write_ram+0xc0>
    1400:	00170713          	addi	a4,a4,1
    1404:	fe8760e3          	bltu	a4,s0,13e4 <flash_mspi_write_ram+0xb0>
    1408:	80140737          	lui	a4,0x80140
    140c:	10170783          	lb	a5,257(a4) # 80140101 <_DATA_LMA_START+0x60131d41>
    1410:	0ff7f793          	andi	a5,a5,255
    1414:	0107e793          	ori	a5,a5,16
    1418:	10f700a3          	sb	a5,257(a4)
    141c:	032958db          	beqc	s2,50,144c <flash_mspi_write_ram+0x118>
    1420:	39d5                	c.jal	1114 <flash_wait_done>
    1422:	0001                	c.nop
    1424:	0001                	c.nop
    1426:	0001                	c.nop
    1428:	0001                	c.nop
    142a:	0001                	c.nop
    142c:	85ce                	c.mv	a1,s3
    142e:	000007b7          	lui	a5,0x0
    1432:	1847c503          	lbu	a0,388(a5) # 184 <s_flash_preempt_config>
    1436:	14b010ef          	jal	ra,2d80 <plic_exit_critical_sec>
    143a:	40f2                	c.lwsp	ra,28(sp)
    143c:	4462                	c.lwsp	s0,24(sp)
    143e:	44d2                	c.lwsp	s1,20(sp)
    1440:	4942                	c.lwsp	s2,16(sp)
    1442:	49b2                	c.lwsp	s3,12(sp)
    1444:	4a22                	c.lwsp	s4,8(sp)
    1446:	4a92                	c.lwsp	s5,4(sp)
    1448:	6105                	c.addi16sp	sp,32
    144a:	8082                	c.jr	ra
    144c:	10170783          	lb	a5,257(a4)
    1450:	0f37f793          	andi	a5,a5,243
    1454:	10f700a3          	sb	a5,257(a4)
    1458:	fc9ff06f          	j	1420 <flash_mspi_write_ram+0xec>

0000145c <flash_set_xip_config_sram>:
    145c:	1141                	c.addi	sp,-16
    145e:	c606                	c.swsp	ra,12(sp)
    1460:	c422                	c.swsp	s0,8(sp)
    1462:	842a                	c.mv	s0,a0
    1464:	000007b7          	lui	a5,0x0
    1468:	18478793          	addi	a5,a5,388 # 184 <s_flash_preempt_config>
    146c:	0017c583          	lbu	a1,1(a5)
    1470:	0007c503          	lbu	a0,0(a5)
    1474:	165010ef          	jal	ra,2dd8 <plic_enter_critical_sec>
    1478:	00a005b3          	add	a1,zero,a0
    147c:	801407b7          	lui	a5,0x80140
    1480:	10278783          	lb	a5,258(a5) # 80140102 <_DATA_LMA_START+0x60131d42>
    1484:	fe07fc5b          	bbs	a5,0,147c <flash_set_xip_config_sram+0x20>
    1488:	80140737          	lui	a4,0x80140
    148c:	10170783          	lb	a5,257(a4) # 80140101 <_DATA_LMA_START+0x60131d41>
    1490:	0ff7f793          	andi	a5,a5,255
    1494:	0107e793          	ori	a5,a5,16
    1498:	10f700a3          	sb	a5,257(a4)
    149c:	801407b7          	lui	a5,0x80140
    14a0:	32878783          	lb	a5,808(a5) # 80140328 <_DATA_LMA_START+0x60131f68>
    14a4:	be37fc5b          	bbc	a5,3,149c <flash_set_xip_config_sram+0x40>
    14a8:	801407b7          	lui	a5,0x80140
    14ac:	10879323          	sh	s0,262(a5) # 80140106 <_DATA_LMA_START+0x60131d46>
    14b0:	0001                	c.nop
    14b2:	0001                	c.nop
    14b4:	0001                	c.nop
    14b6:	0001                	c.nop
    14b8:	0001                	c.nop
    14ba:	000007b7          	lui	a5,0x0
    14be:	1847c503          	lbu	a0,388(a5) # 184 <s_flash_preempt_config>
    14c2:	0bf010ef          	jal	ra,2d80 <plic_exit_critical_sec>
    14c6:	40b2                	c.lwsp	ra,12(sp)
    14c8:	4422                	c.lwsp	s0,8(sp)
    14ca:	0141                	c.addi	sp,16
    14cc:	8082                	c.jr	ra
	...

000014d0 <mtime_set_value>:
    14d0:	e60007b7          	lui	a5,0xe6000
    14d4:	0007a023          	sw	zero,0(a5) # e6000000 <_DATA_LMA_START+0xc5ff1c40>
    14d8:	c3cc                	c.sw	a1,4(a5)
    14da:	c388                	c.sw	a0,0(a5)
    14dc:	00008067          	ret

000014e0 <mtime_get_value>:
    14e0:	e60007b7          	lui	a5,0xe6000
    14e4:	43cc                	c.lw	a1,4(a5)
    14e6:	4388                	c.lw	a0,0(a5)
    14e8:	43dc                	c.lw	a5,4(a5)
    14ea:	feb79be3          	bne	a5,a1,14e0 <mtime_get_value>
    14ee:	8082                	c.jr	ra

000014f0 <mtime_set_cmp_value>:
    14f0:	e60007b7          	lui	a5,0xe6000
    14f4:	577d                	c.li	a4,-1
    14f6:	c798                	c.sw	a4,8(a5)
    14f8:	c7cc                	c.sw	a1,12(a5)
    14fa:	c788                	c.sw	a0,8(a5)
    14fc:	00008067          	ret

00001500 <mtime_set_interval_ms>:
    1500:	1101                	c.addi	sp,-32
    1502:	ce06                	c.swsp	ra,28(sp)
    1504:	cc22                	c.swsp	s0,24(sp)
    1506:	ca26                	c.swsp	s1,20(sp)
    1508:	c84a                	c.swsp	s2,16(sp)
    150a:	c64e                	c.swsp	s3,12(sp)
    150c:	842a                	c.mv	s0,a0
    150e:	84ae                	c.mv	s1,a1
    1510:	3fc1                	c.jal	14e0 <mtime_get_value>
    1512:	892a                	c.mv	s2,a0
    1514:	89ae                	c.mv	s3,a1
    1516:	ae7fa7ab          	lwgp	a5,-1308 # 802e4 <mtime_clock_source>
    151a:	f087957f          	mulr64	a0,a5,s0
    151e:	c4f495ff          	maddr32	a1,s1,a5
    1522:	3e800613          	li	a2,1000
    1526:	4681                	c.li	a3,0
    1528:	2000b097          	auipc	ra,0x2000b
    152c:	590080e7          	jalr	1424(ra) # 2000cab8 <__udivdi3>
    1530:	c0a9157f          	add64	a0,s2,a0
    1534:	3f75                	c.jal	14f0 <mtime_set_cmp_value>
    1536:	40f2                	c.lwsp	ra,28(sp)
    1538:	4462                	c.lwsp	s0,24(sp)
    153a:	44d2                	c.lwsp	s1,20(sp)
    153c:	4942                	c.lwsp	s2,16(sp)
    153e:	49b2                	c.lwsp	s3,12(sp)
    1540:	6105                	c.addi16sp	sp,32
    1542:	8082                	c.jr	ra
    1544:	0001                	c.nop
	...

00001548 <spi_set_tx_dma>:
    1548:	1215565b          	beqc	a0,1,1674 <spi_set_tx_dma+0x12c>
    154c:	b75fa88b          	lbugp	a7,-1164 # 80374 <s_pspi_tx_dma_chn>
    1550:	01ec0e37          	lui	t3,0x1ec0
    1554:	f80e0813          	addi	a6,t3,-128 # 1ebff80 <FLASH_SIZE+0x1dbff80>
    1558:	03050833          	mul	a6,a0,a6
    155c:	001407b7          	lui	a5,0x140
    1560:	04f78693          	addi	a3,a5,79 # 14004f <FLASH_SIZE+0x4004f>
    1564:	96c2                	c.add	a3,a6
    1566:	80000337          	lui	t1,0x80000
    156a:	0066e6b3          	or	a3,a3,t1
    156e:	00068703          	lb	a4,0(a3) # 80000000 <_DATA_LMA_START+0x5fff1c40>
    1572:	1c07375b          	bfos	a4,a4,7,0
    1576:	f8f77713          	andi	a4,a4,-113
    157a:	04076713          	ori	a4,a4,64
    157e:	0ff77713          	andi	a4,a4,255
    1582:	00e68023          	sb	a4,0(a3)
    1586:	fff60713          	addi	a4,a2,-1 # 7fffffff <_DATA_LMA_START+0x5fff1c3f>
    158a:	f8ee0e13          	addi	t3,t3,-114
    158e:	03c50533          	mul	a0,a0,t3
    1592:	05378693          	addi	a3,a5,83
    1596:	96aa                	c.add	a3,a0
    1598:	0066e6b3          	or	a3,a3,t1
    159c:	5d072e5b          	bfoz	t3,a4,23,16
    15a0:	01c68023          	sb	t3,0(a3)
    15a4:	05278693          	addi	a3,a5,82
    15a8:	9536                	c.add	a0,a3
    15aa:	00656533          	or	a0,a0,t1
    15ae:	3c87275b          	bfoz	a4,a4,15,8
    15b2:	00e50023          	sb	a4,0(a0)
    15b6:	04378713          	addi	a4,a5,67
    15ba:	9742                	c.add	a4,a6
    15bc:	00676733          	or	a4,a4,t1
    15c0:	fff60693          	addi	a3,a2,-1
    15c4:	0ff6f693          	andi	a3,a3,255
    15c8:	00d70023          	sb	a3,0(a4)
    15cc:	04778793          	addi	a5,a5,71
    15d0:	97c2                	c.add	a5,a6
    15d2:	0067e7b3          	or	a5,a5,t1
    15d6:	00078703          	lb	a4,0(a5)
    15da:	f8076713          	ori	a4,a4,-128
    15de:	0ff77713          	andi	a4,a4,255
    15e2:	00e78023          	sb	a4,0(a5)
    15e6:	852e                	c.mv	a0,a1
    15e8:	80140737          	lui	a4,0x80140
    15ec:	04870713          	addi	a4,a4,72 # 80140048 <_DATA_LMA_START+0x60131c88>
    15f0:	9742                	c.add	a4,a6
    15f2:	000a07b7          	lui	a5,0xa0
    15f6:	00f5f563          	bgeu	a1,a5,1600 <spi_set_tx_dma+0xb8>
    15fa:	c0180537          	lui	a0,0xc0180
    15fe:	952e                	c.add	a0,a1
    1600:	47d1                	c.li	a5,20
    1602:	02f887b3          	mul	a5,a7,a5
    1606:	001006b7          	lui	a3,0x100
    160a:	44868693          	addi	a3,a3,1096 # 100448 <FLASH_SIZE+0x448>
    160e:	96be                	c.add	a3,a5
    1610:	800005b7          	lui	a1,0x80000
    1614:	8ecd                	c.or	a3,a1
    1616:	c288                	c.sw	a0,0(a3)
    1618:	000a06b7          	lui	a3,0xa0
    161c:	00d77863          	bgeu	a4,a3,162c <spi_set_tx_dma+0xe4>
    1620:	402c0737          	lui	a4,0x402c0
    1624:	04870713          	addi	a4,a4,72 # 402c0048 <_DATA_LMA_START+0x202b1c88>
    1628:	01070733          	add	a4,a4,a6
    162c:	001006b7          	lui	a3,0x100
    1630:	44c68593          	addi	a1,a3,1100 # 10044c <FLASH_SIZE+0x44c>
    1634:	95be                	c.add	a1,a5
    1636:	80000537          	lui	a0,0x80000
    163a:	8dc9                	c.or	a1,a0
    163c:	c198                	c.sw	a4,0(a1)
    163e:	00360593          	addi	a1,a2,3
    1642:	8189                	c.srli	a1,0x2
    1644:	065a                	c.slli	a2,0x16
    1646:	00c00737          	lui	a4,0xc00
    164a:	8e79                	c.and	a2,a4
    164c:	45068713          	addi	a4,a3,1104
    1650:	973e                	c.add	a4,a5
    1652:	8f49                	c.or	a4,a0
    1654:	8e4d                	c.or	a2,a1
    1656:	c310                	c.sw	a2,0(a4)
    1658:	44468693          	addi	a3,a3,1092
    165c:	97b6                	c.add	a5,a3
    165e:	8fc9                	c.or	a5,a0
    1660:	00078703          	lb	a4,0(a5) # a0000 <_STACK_TOP>
    1664:	0ff77713          	andi	a4,a4,255
    1668:	00176713          	ori	a4,a4,1
    166c:	00e78023          	sb	a4,0(a5)
    1670:	00008067          	ret
    1674:	b77fa88b          	lbugp	a7,-1162 # 80376 <s_hspi_tx_dma_chn>
    1678:	ed9ff06f          	j	1550 <spi_set_tx_dma+0x8>

0000167c <spi_set_rx_dma>:
    167c:	0e15545b          	beqc	a0,1,1764 <spi_set_rx_dma+0xe8>
    1680:	b73fe78b          	lbugp	a5,-1165 # 80373 <s_pspi_rx_dma_chn>
    1684:	01ec0737          	lui	a4,0x1ec0
    1688:	f8070713          	addi	a4,a4,-128 # 1ebff80 <FLASH_SIZE+0x1dbff80>
    168c:	02e50533          	mul	a0,a0,a4
    1690:	001406b7          	lui	a3,0x140
    1694:	04f68893          	addi	a7,a3,79 # 14004f <FLASH_SIZE+0x4004f>
    1698:	98aa                	c.add	a7,a0
    169a:	80000337          	lui	t1,0x80000
    169e:	0068e8b3          	or	a7,a7,t1
    16a2:	00088803          	lb	a6,0(a7)
    16a6:	1c08385b          	bfos	a6,a6,7,0
    16aa:	f8f87813          	andi	a6,a6,-113
    16ae:	05086813          	ori	a6,a6,80
    16b2:	0ff87813          	andi	a6,a6,255
    16b6:	01088023          	sb	a6,0(a7)
    16ba:	04768713          	addi	a4,a3,71
    16be:	972a                	c.add	a4,a0
    16c0:	00676733          	or	a4,a4,t1
    16c4:	00070683          	lb	a3,0(a4)
    16c8:	0ff6f693          	andi	a3,a3,255
    16cc:	0406e693          	ori	a3,a3,64
    16d0:	00d70023          	sb	a3,0(a4)
    16d4:	80140737          	lui	a4,0x80140
    16d8:	04870713          	addi	a4,a4,72 # 80140048 <_DATA_LMA_START+0x60131c88>
    16dc:	972a                	c.add	a4,a0
    16de:	882e                	c.mv	a6,a1
    16e0:	000a06b7          	lui	a3,0xa0
    16e4:	00d77863          	bgeu	a4,a3,16f4 <spi_set_rx_dma+0x78>
    16e8:	402c0737          	lui	a4,0x402c0
    16ec:	04870713          	addi	a4,a4,72 # 402c0048 <_DATA_LMA_START+0x202b1c88>
    16f0:	00a70733          	add	a4,a4,a0
    16f4:	46d1                	c.li	a3,20
    16f6:	02d787b3          	mul	a5,a5,a3
    16fa:	001006b7          	lui	a3,0x100
    16fe:	44868693          	addi	a3,a3,1096 # 100448 <FLASH_SIZE+0x448>
    1702:	96be                	c.add	a3,a5
    1704:	80000537          	lui	a0,0x80000
    1708:	8ec9                	c.or	a3,a0
    170a:	c298                	c.sw	a4,0(a3)
    170c:	000a0737          	lui	a4,0xa0
    1710:	00e87663          	bgeu	a6,a4,171c <spi_set_rx_dma+0xa0>
    1714:	c0180837          	lui	a6,0xc0180
    1718:	00b80833          	add	a6,a6,a1
    171c:	00100737          	lui	a4,0x100
    1720:	44c70693          	addi	a3,a4,1100 # 10044c <FLASH_SIZE+0x44c>
    1724:	96be                	c.add	a3,a5
    1726:	80000537          	lui	a0,0x80000
    172a:	8ec9                	c.or	a3,a0
    172c:	0106a023          	sw	a6,0(a3)
    1730:	00360593          	addi	a1,a2,3
    1734:	8189                	c.srli	a1,0x2
    1736:	065a                	c.slli	a2,0x16
    1738:	00c006b7          	lui	a3,0xc00
    173c:	8e75                	c.and	a2,a3
    173e:	45070693          	addi	a3,a4,1104
    1742:	96be                	c.add	a3,a5
    1744:	8ec9                	c.or	a3,a0
    1746:	8e4d                	c.or	a2,a1
    1748:	c290                	c.sw	a2,0(a3)
    174a:	44470713          	addi	a4,a4,1092
    174e:	97ba                	c.add	a5,a4
    1750:	8fc9                	c.or	a5,a0
    1752:	00078703          	lb	a4,0(a5)
    1756:	0ff77713          	andi	a4,a4,255
    175a:	00176713          	ori	a4,a4,1
    175e:	00e78023          	sb	a4,0(a5)
    1762:	8082                	c.jr	ra
    1764:	b75fe78b          	lbugp	a5,-1163 # 80375 <s_hspi_rx_dma_chn>
    1768:	f1dff06f          	j	1684 <spi_set_rx_dma+0x8>

0000176c <hspi_master_write_xip>:
    176c:	82000837          	lui	a6,0x82000
    1770:	fd880783          	lb	a5,-40(a6) # 81ffffd8 <_DATA_LMA_START+0x61ff1c18>
    1774:	1c07b7db          	bfos	a5,a5,7,0
    1778:	9bc1                	c.andi	a5,-16
    177a:	8b3d                	c.andi	a4,15
    177c:	8fd9                	c.or	a5,a4
    177e:	0ff7f793          	andi	a5,a5,255
    1782:	fcf80c23          	sb	a5,-40(a6)
    1786:	0ff5f793          	andi	a5,a1,255
    178a:	fcf80ca3          	sb	a5,-39(a6)
    178e:	3c85a7db          	bfoz	a5,a1,15,8
    1792:	fcf80d23          	sb	a5,-38(a6)
    1796:	5d05a7db          	bfoz	a5,a1,23,16
    179a:	fcf80da3          	sb	a5,-37(a6)
    179e:	81e1                	c.srli	a1,0x18
    17a0:	fcb80e23          	sb	a1,-36(a6)
    17a4:	fca80aa3          	sb	a0,-43(a6)
    17a8:	4701                	c.li	a4,0
    17aa:	a839                	c.j	17c8 <hspi_master_write_xip+0x5c>
    17ac:	00e605b3          	add	a1,a2,a4
    17b0:	010007b7          	lui	a5,0x1000
    17b4:	97ba                	c.add	a5,a4
    17b6:	80000537          	lui	a0,0x80000
    17ba:	8fc9                	c.or	a5,a0
    17bc:	0005c583          	lbu	a1,0(a1) # 80000000 <_DATA_LMA_START+0x5fff1c40>
    17c0:	00b78023          	sb	a1,0(a5) # 1000000 <FLASH_SIZE+0xf00000>
    17c4:	00170713          	addi	a4,a4,1
    17c8:	fed762e3          	bltu	a4,a3,17ac <hspi_master_write_xip+0x40>
    17cc:	00008067          	ret

000017d0 <hspi_master_read_xip>:
    17d0:	820007b7          	lui	a5,0x82000
    17d4:	fd878803          	lb	a6,-40(a5) # 81ffffd8 <_DATA_LMA_START+0x61ff1c18>
    17d8:	00f87813          	andi	a6,a6,15
    17dc:	0712                	c.slli	a4,0x4
    17de:	00e86833          	or	a6,a6,a4
    17e2:	0ff87813          	andi	a6,a6,255
    17e6:	fd078c23          	sb	a6,-40(a5)
    17ea:	0ff5f713          	andi	a4,a1,255
    17ee:	fce78ca3          	sb	a4,-39(a5)
    17f2:	3c85a75b          	bfoz	a4,a1,15,8
    17f6:	fce78d23          	sb	a4,-38(a5)
    17fa:	5d05a75b          	bfoz	a4,a1,23,16
    17fe:	fce78da3          	sb	a4,-37(a5)
    1802:	81e1                	c.srli	a1,0x18
    1804:	fcb78e23          	sb	a1,-36(a5)
    1808:	fca78b23          	sb	a0,-42(a5)
    180c:	4701                	c.li	a4,0
    180e:	a839                	c.j	182c <hspi_master_read_xip+0x5c>
    1810:	010007b7          	lui	a5,0x1000
    1814:	97ba                	c.add	a5,a4
    1816:	800005b7          	lui	a1,0x80000
    181a:	8fcd                	c.or	a5,a1
    181c:	00e605b3          	add	a1,a2,a4
    1820:	00078783          	lb	a5,0(a5) # 1000000 <FLASH_SIZE+0xf00000>
    1824:	00f58023          	sb	a5,0(a1) # 80000000 <_DATA_LMA_START+0x5fff1c40>
    1828:	00170713          	addi	a4,a4,1
    182c:	fed762e3          	bltu	a4,a3,1810 <hspi_master_read_xip+0x40>
    1830:	8082                	c.jr	ra
	...

00001834 <delay_us>:
    1834:	801407b7          	lui	a5,0x80140
    1838:	2007a683          	lw	a3,512(a5) # 80140200 <_DATA_LMA_START+0x60131e40>
    183c:	801407b7          	lui	a5,0x80140
    1840:	2007a783          	lw	a5,512(a5) # 80140200 <_DATA_LMA_START+0x60131e40>
    1844:	8f95                	c.sub	a5,a3
    1846:	00451713          	slli	a4,a0,0x4
    184a:	fef779e3          	bgeu	a4,a5,183c <delay_us+0x8>
    184e:	8082                	c.jr	ra

00001850 <delay_ms>:
    1850:	801407b7          	lui	a5,0x80140
    1854:	2007a683          	lw	a3,512(a5) # 80140200 <_DATA_LMA_START+0x60131e40>
    1858:	3e800793          	li	a5,1000
    185c:	02f507b3          	mul	a5,a0,a5
    1860:	80140737          	lui	a4,0x80140
    1864:	20072703          	lw	a4,512(a4) # 80140200 <_DATA_LMA_START+0x60131e40>
    1868:	8f15                	c.sub	a4,a3
    186a:	0792                	c.slli	a5,0x4
    186c:	fee7f6e3          	bgeu	a5,a4,1858 <delay_ms+0x8>
    1870:	8082                	c.jr	ra
    1872:	0001                	c.nop

00001874 <trap_entry>:
    1874:	7135                	c.addi16sp	sp,-160
    1876:	cf06                	c.swsp	ra,156(sp)
    1878:	cd16                	c.swsp	t0,152(sp)
    187a:	cb1a                	c.swsp	t1,148(sp)
    187c:	c91e                	c.swsp	t2,144(sp)
    187e:	c722                	c.swsp	s0,140(sp)
    1880:	c526                	c.swsp	s1,136(sp)
    1882:	c32a                	c.swsp	a0,132(sp)
    1884:	c12e                	c.swsp	a1,128(sp)
    1886:	deb2                	c.swsp	a2,124(sp)
    1888:	dcb6                	c.swsp	a3,120(sp)
    188a:	daba                	c.swsp	a4,116(sp)
    188c:	d8be                	c.swsp	a5,112(sp)
    188e:	d6c2                	c.swsp	a6,108(sp)
    1890:	d4c6                	c.swsp	a7,104(sp)
    1892:	d2ca                	c.swsp	s2,100(sp)
    1894:	d0f2                	c.swsp	t3,96(sp)
    1896:	cef6                	c.swsp	t4,92(sp)
    1898:	ccfa                	c.swsp	t5,88(sp)
    189a:	cafe                	c.swsp	t6,84(sp)
    189c:	e682                	c.fswsp	ft0,76(sp)
    189e:	e486                	c.fswsp	ft1,72(sp)
    18a0:	e28a                	c.fswsp	ft2,68(sp)
    18a2:	e08e                	c.fswsp	ft3,64(sp)
    18a4:	fe12                	c.fswsp	ft4,60(sp)
    18a6:	fc16                	c.fswsp	ft5,56(sp)
    18a8:	fa1a                	c.fswsp	ft6,52(sp)
    18aa:	f81e                	c.fswsp	ft7,48(sp)
    18ac:	f62a                	c.fswsp	fa0,44(sp)
    18ae:	f42e                	c.fswsp	fa1,40(sp)
    18b0:	f232                	c.fswsp	fa2,36(sp)
    18b2:	f036                	c.fswsp	fa3,32(sp)
    18b4:	ee3a                	c.fswsp	fa4,28(sp)
    18b6:	ec3e                	c.fswsp	fa5,24(sp)
    18b8:	ea42                	c.fswsp	fa6,20(sp)
    18ba:	e846                	c.fswsp	fa7,16(sp)
    18bc:	e672                	c.fswsp	ft8,12(sp)
    18be:	e476                	c.fswsp	ft9,8(sp)
    18c0:	e27a                	c.fswsp	ft10,4(sp)
    18c2:	e07e                	c.fswsp	ft11,0(sp)
    18c4:	34202773          	csrr	a4,mcause
    18c8:	86ba                	c.mv	a3,a4
    18ca:	000007b7          	lui	a5,0x0
    18ce:	1dc78783          	lb	a5,476(a5) # 1dc <g_plic_preempt_en>
    18d2:	0ff7f793          	andi	a5,a5,255
    18d6:	cbd9                	c.beqz	a5,196c <trap_entry+0xf8>
    18d8:	341024f3          	csrr	s1,mepc
    18dc:	30002973          	csrr	s2,mstatus
    18e0:	7c402473          	csrr	s0,mxstatus
    18e4:	0806c863          	bltz	a3,1974 <trap_entry+0x100>
    18e8:	0006d663          	bgez	a3,18f4 <trap_entry+0x80>
    18ec:	7807275b          	bfoz	a4,a4,30,0
    18f0:	0c37565b          	beqc	a4,3,19bc <trap_entry+0x148>
    18f4:	2000a097          	auipc	ra,0x2000a
    18f8:	104080e7          	jalr	260(ra) # 2000b9f8 <except_handler>
    18fc:	000007b7          	lui	a5,0x0
    1900:	1dc78783          	lb	a5,476(a5) # 1dc <g_plic_preempt_en>
    1904:	0ff7f793          	andi	a5,a5,255
    1908:	00078863          	beqz	a5,1918 <trap_entry+0xa4>
    190c:	30091073          	csrw	mstatus,s2
    1910:	34149073          	csrw	mepc,s1
    1914:	7c441073          	csrw	mxstatus,s0
    1918:	40fa                	c.lwsp	ra,156(sp)
    191a:	42ea                	c.lwsp	t0,152(sp)
    191c:	435a                	c.lwsp	t1,148(sp)
    191e:	43ca                	c.lwsp	t2,144(sp)
    1920:	443a                	c.lwsp	s0,140(sp)
    1922:	44aa                	c.lwsp	s1,136(sp)
    1924:	451a                	c.lwsp	a0,132(sp)
    1926:	458a                	c.lwsp	a1,128(sp)
    1928:	5676                	c.lwsp	a2,124(sp)
    192a:	56e6                	c.lwsp	a3,120(sp)
    192c:	5756                	c.lwsp	a4,116(sp)
    192e:	57c6                	c.lwsp	a5,112(sp)
    1930:	5836                	c.lwsp	a6,108(sp)
    1932:	58a6                	c.lwsp	a7,104(sp)
    1934:	5916                	c.lwsp	s2,100(sp)
    1936:	5e06                	c.lwsp	t3,96(sp)
    1938:	4ef6                	c.lwsp	t4,92(sp)
    193a:	4f66                	c.lwsp	t5,88(sp)
    193c:	4fd6                	c.lwsp	t6,84(sp)
    193e:	6036                	c.flwsp	ft0,76(sp)
    1940:	60a6                	c.flwsp	ft1,72(sp)
    1942:	6116                	c.flwsp	ft2,68(sp)
    1944:	6186                	c.flwsp	ft3,64(sp)
    1946:	7272                	c.flwsp	ft4,60(sp)
    1948:	72e2                	c.flwsp	ft5,56(sp)
    194a:	7352                	c.flwsp	ft6,52(sp)
    194c:	73c2                	c.flwsp	ft7,48(sp)
    194e:	7532                	c.flwsp	fa0,44(sp)
    1950:	75a2                	c.flwsp	fa1,40(sp)
    1952:	7612                	c.flwsp	fa2,36(sp)
    1954:	7682                	c.flwsp	fa3,32(sp)
    1956:	6772                	c.flwsp	fa4,28(sp)
    1958:	67e2                	c.flwsp	fa5,24(sp)
    195a:	6852                	c.flwsp	fa6,20(sp)
    195c:	68c2                	c.flwsp	fa7,16(sp)
    195e:	6e32                	c.flwsp	ft8,12(sp)
    1960:	6ea2                	c.flwsp	ft9,8(sp)
    1962:	6f12                	c.flwsp	ft10,4(sp)
    1964:	6f82                	c.flwsp	ft11,0(sp)
    1966:	610d                	c.addi16sp	sp,160
    1968:	30200073          	mret
    196c:	4401                	c.li	s0,0
    196e:	4901                	c.li	s2,0
    1970:	4481                	c.li	s1,0
    1972:	bf8d                	c.j	18e4 <trap_entry+0x70>
    1974:	780727db          	bfoz	a5,a4,30,0
    1978:	b677e85b          	bnec	a5,7,18e8 <trap_entry+0x74>
    197c:	000007b7          	lui	a5,0x0
    1980:	1dc78783          	lb	a5,476(a5) # 1dc <g_plic_preempt_en>
    1984:	0ff7f793          	andi	a5,a5,255
    1988:	00078863          	beqz	a5,1998 <trap_entry+0x124>
    198c:	08000793          	li	a5,128
    1990:	3047b7f3          	csrrc	a5,mie,a5
    1994:	300467f3          	csrrsi	a5,mstatus,8
    1998:	2000a097          	auipc	ra,0x2000a
    199c:	058080e7          	jalr	88(ra) # 2000b9f0 <mtime_irq_handler>
    19a0:	000007b7          	lui	a5,0x0
    19a4:	1dc78783          	lb	a5,476(a5) # 1dc <g_plic_preempt_en>
    19a8:	0ff7f793          	andi	a5,a5,255
    19ac:	dba1                	c.beqz	a5,18fc <trap_entry+0x88>
    19ae:	300477f3          	csrrci	a5,mstatus,8
    19b2:	08000793          	li	a5,128
    19b6:	3047a7f3          	csrrs	a5,mie,a5
    19ba:	b789                	c.j	18fc <trap_entry+0x88>
    19bc:	e66007b7          	lui	a5,0xe6600
    19c0:	43dc                	c.lw	a5,4(a5)
    19c2:	000007b7          	lui	a5,0x0
    19c6:	1dc78783          	lb	a5,476(a5) # 1dc <g_plic_preempt_en>
    19ca:	0ff7f793          	andi	a5,a5,255
    19ce:	c399                	c.beqz	a5,19d4 <trap_entry+0x160>
    19d0:	300467f3          	csrrsi	a5,mstatus,8
    19d4:	2000a097          	auipc	ra,0x2000a
    19d8:	020080e7          	jalr	32(ra) # 2000b9f4 <mswi_irq_handler>
    19dc:	000007b7          	lui	a5,0x0
    19e0:	1dc78783          	lb	a5,476(a5) # 1dc <g_plic_preempt_en>
    19e4:	0ff7f793          	andi	a5,a5,255
    19e8:	00078463          	beqz	a5,19f0 <trap_entry+0x17c>
    19ec:	300477f3          	csrrci	a5,mstatus,8
    19f0:	e66007b7          	lui	a5,0xe6600
    19f4:	4705                	c.li	a4,1
    19f6:	c3d8                	c.sw	a4,4(a5)
    19f8:	b711                	c.j	18fc <trap_entry+0x88>
	...

000019fc <dr_putchar>:
    19fc:	1101                	c.addi	sp,-32
    19fe:	ce06                	c.swsp	ra,28(sp)
    1a00:	cc22                	c.swsp	s0,24(sp)
    1a02:	ca26                	c.swsp	s1,20(sp)
    1a04:	00a00433          	add	s0,zero,a0
    1a08:	b0dfa78b          	lbugp	a5,-1268 # 8030c <init_flag.4915>
    1a0c:	0817d85b          	beqc	a5,1,1a9c <dr_putchar+0xa0>
    1a10:	801407b7          	lui	a5,0x80140
    1a14:	30378703          	lb	a4,771(a5) # 80140303 <_DATA_LMA_START+0x60131f43>
    1a18:	0fe77713          	andi	a4,a4,254
    1a1c:	30378783          	lb	a5,771(a5)
    1a20:	0ff7f793          	andi	a5,a5,255
    1a24:	0017e793          	ori	a5,a5,1
    1a28:	00e10223          	sb	a4,4(sp)
    1a2c:	0a047a5b          	bbc	s0,0,1ae0 <dr_putchar+0xe4>
    1a30:	00f006b3          	add	a3,zero,a5
    1a34:	00d102a3          	sb	a3,5(sp)
    1a38:	0a14765b          	bbc	s0,1,1ae4 <dr_putchar+0xe8>
    1a3c:	00f006b3          	add	a3,zero,a5
    1a40:	00d10323          	sb	a3,6(sp)
    1a44:	0a24725b          	bbc	s0,2,1ae8 <dr_putchar+0xec>
    1a48:	00f006b3          	add	a3,zero,a5
    1a4c:	00d103a3          	sb	a3,7(sp)
    1a50:	08347e5b          	bbc	s0,3,1aec <dr_putchar+0xf0>
    1a54:	00f006b3          	add	a3,zero,a5
    1a58:	00d10423          	sb	a3,8(sp)
    1a5c:	08447a5b          	bbc	s0,4,1af0 <dr_putchar+0xf4>
    1a60:	00f006b3          	add	a3,zero,a5
    1a64:	00d104a3          	sb	a3,9(sp)
    1a68:	0854765b          	bbc	s0,5,1af4 <dr_putchar+0xf8>
    1a6c:	00f006b3          	add	a3,zero,a5
    1a70:	00d10523          	sb	a3,10(sp)
    1a74:	0864725b          	bbc	s0,6,1af8 <dr_putchar+0xfc>
    1a78:	00f006b3          	add	a3,zero,a5
    1a7c:	00d105a3          	sb	a3,11(sp)
    1a80:	801d                	c.srli	s0,0x7
    1a82:	c019                	c.beqz	s0,1a88 <dr_putchar+0x8c>
    1a84:	00f00733          	add	a4,zero,a5
    1a88:	00e10623          	sb	a4,12(sp)
    1a8c:	00f106a3          	sb	a5,13(sp)
    1a90:	801407b7          	lui	a5,0x80140
    1a94:	2007a603          	lw	a2,512(a5) # 80140200 <_DATA_LMA_START+0x60131e40>
    1a98:	4581                	c.li	a1,0
    1a9a:	a849                	c.j	1b2c <dr_putchar+0x130>
    1a9c:	801404b7          	lui	s1,0x80140
    1aa0:	30648783          	lb	a5,774(s1) # 80140306 <_DATA_LMA_START+0x60131f46>
    1aa4:	0ff7f793          	andi	a5,a5,255
    1aa8:	0017e793          	ori	a5,a5,1
    1aac:	30f48323          	sb	a5,774(s1)
    1ab0:	4585                	c.li	a1,1
    1ab2:	4505                	c.li	a0,1
    1ab4:	20006097          	auipc	ra,0x20006
    1ab8:	bd0080e7          	jalr	-1072(ra) # 20007684 <gpio_set_up_down_res>
    1abc:	30248783          	lb	a5,770(s1)
    1ac0:	0fe7f793          	andi	a5,a5,254
    1ac4:	30f48123          	sb	a5,770(s1)
    1ac8:	30348783          	lb	a5,771(s1)
    1acc:	0ff7f793          	andi	a5,a5,255
    1ad0:	0017e793          	ori	a5,a5,1
    1ad4:	30f481a3          	sb	a5,771(s1)
    1ad8:	b00fb68b          	sbgp	zero,-1268 # 8030c <init_flag.4915>
    1adc:	f35ff06f          	j	1a10 <dr_putchar+0x14>
    1ae0:	86ba                	c.mv	a3,a4
    1ae2:	bf89                	c.j	1a34 <dr_putchar+0x38>
    1ae4:	86ba                	c.mv	a3,a4
    1ae6:	bfa9                	c.j	1a40 <dr_putchar+0x44>
    1ae8:	86ba                	c.mv	a3,a4
    1aea:	b78d                	c.j	1a4c <dr_putchar+0x50>
    1aec:	86ba                	c.mv	a3,a4
    1aee:	b7ad                	c.j	1a58 <dr_putchar+0x5c>
    1af0:	86ba                	c.mv	a3,a4
    1af2:	bf8d                	c.j	1a64 <dr_putchar+0x68>
    1af4:	86ba                	c.mv	a3,a4
    1af6:	bfad                	c.j	1a70 <dr_putchar+0x74>
    1af8:	86ba                	c.mv	a3,a4
    1afa:	b749                	c.j	1a7c <dr_putchar+0x80>
    1afc:	801407b7          	lui	a5,0x80140
    1b00:	2007a703          	lw	a4,512(a5) # 80140200 <_DATA_LMA_START+0x60131e40>
    1b04:	40c707b3          	sub	a5,a4,a2
    1b08:	08900693          	li	a3,137
    1b0c:	fef6f8e3          	bgeu	a3,a5,1afc <dr_putchar+0x100>
    1b10:	0808                	c.addi4spn	a0,sp,16
    1b12:	00b507b3          	add	a5,a0,a1
    1b16:	ff47c683          	lbu	a3,-12(a5)
    1b1a:	801407b7          	lui	a5,0x80140
    1b1e:	30d781a3          	sb	a3,771(a5) # 80140303 <_DATA_LMA_START+0x60131f43>
    1b22:	0585                	c.addi	a1,1
    1b24:	0ff5f593          	andi	a1,a1,255
    1b28:	00e00633          	add	a2,zero,a4
    1b2c:	47a5                	c.li	a5,9
    1b2e:	00b7e563          	bltu	a5,a1,1b38 <dr_putchar+0x13c>
    1b32:	8732                	c.mv	a4,a2
    1b34:	fd1ff06f          	j	1b04 <dr_putchar+0x108>
    1b38:	40f2                	c.lwsp	ra,28(sp)
    1b3a:	4462                	c.lwsp	s0,24(sp)
    1b3c:	44d2                	c.lwsp	s1,20(sp)
    1b3e:	6105                	c.addi16sp	sp,32
    1b40:	8082                	c.jr	ra
    1b42:	0001                	c.nop

00001b44 <mspi_as_gpio>:
    1b44:	801407b7          	lui	a5,0x80140
    1b48:	32b78703          	lb	a4,811(a5) # 8014032b <_DATA_LMA_START+0x60131f6b>
    1b4c:	0ff77713          	andi	a4,a4,255
    1b50:	02076713          	ori	a4,a4,32
    1b54:	32e785a3          	sb	a4,811(a5)
    1b58:	32a78703          	lb	a4,810(a5)
    1b5c:	0df77713          	andi	a4,a4,223
    1b60:	32e78523          	sb	a4,810(a5)
    1b64:	32e78703          	lb	a4,814(a5)
    1b68:	0ff77713          	andi	a4,a4,255
    1b6c:	02076713          	ori	a4,a4,32
    1b70:	32e78723          	sb	a4,814(a5)
    1b74:	00008067          	ret

00001b78 <mspi_as_mspi>:
    1b78:	801407b7          	lui	a5,0x80140
    1b7c:	32b78703          	lb	a4,811(a5) # 8014032b <_DATA_LMA_START+0x60131f6b>
    1b80:	0df77713          	andi	a4,a4,223
    1b84:	32e785a3          	sb	a4,811(a5)
    1b88:	32a78703          	lb	a4,810(a5)
    1b8c:	0ff77713          	andi	a4,a4,255
    1b90:	02076713          	ori	a4,a4,32
    1b94:	32e78523          	sb	a4,810(a5)
    1b98:	32e78703          	lb	a4,814(a5)
    1b9c:	0df77713          	andi	a4,a4,223
    1ba0:	32e78723          	sb	a4,814(a5)
    1ba4:	00008067          	ret

00001ba8 <flash_enter_test_mode>:
    1ba8:	1141                	c.addi	sp,-16
    1baa:	c606                	c.swsp	ra,12(sp)
    1bac:	c422                	c.swsp	s0,8(sp)
    1bae:	c226                	c.swsp	s1,4(sp)
    1bb0:	84aa                	c.mv	s1,a0
    1bb2:	80140437          	lui	s0,0x80140
    1bb6:	10140783          	lb	a5,257(s0) # 80140101 <_DATA_LMA_START+0x60131d41>
    1bba:	0fd7f793          	andi	a5,a5,253
    1bbe:	10f400a3          	sb	a5,257(s0)
    1bc2:	10140783          	lb	a5,257(s0)
    1bc6:	0ff7f793          	andi	a5,a5,255
    1bca:	0107e793          	ori	a5,a5,16
    1bce:	10f400a3          	sb	a5,257(s0)
    1bd2:	4505                	c.li	a0,1
    1bd4:	c61ff0ef          	jal	ra,1834 <delay_us>
    1bd8:	10140783          	lb	a5,257(s0)
    1bdc:	0ef7f793          	andi	a5,a5,239
    1be0:	10f400a3          	sb	a5,257(s0)
    1be4:	0004c783          	lbu	a5,0(s1)
    1be8:	10f40023          	sb	a5,256(s0)
    1bec:	801407b7          	lui	a5,0x80140
    1bf0:	10278783          	lb	a5,258(a5) # 80140102 <_DATA_LMA_START+0x60131d42>
    1bf4:	fe07fc5b          	bbs	a5,0,1bec <flash_enter_test_mode+0x44>
    1bf8:	80140437          	lui	s0,0x80140
    1bfc:	10140783          	lb	a5,257(s0) # 80140101 <_DATA_LMA_START+0x60131d41>
    1c00:	0ff7f793          	andi	a5,a5,255
    1c04:	0107e793          	ori	a5,a5,16
    1c08:	10f400a3          	sb	a5,257(s0)
    1c0c:	4505                	c.li	a0,1
    1c0e:	311d                	c.jal	1834 <delay_us>
    1c10:	10140783          	lb	a5,257(s0)
    1c14:	0ef7f793          	andi	a5,a5,239
    1c18:	10f400a3          	sb	a5,257(s0)
    1c1c:	0014c783          	lbu	a5,1(s1)
    1c20:	10f40023          	sb	a5,256(s0)
    1c24:	801407b7          	lui	a5,0x80140
    1c28:	10278783          	lb	a5,258(a5) # 80140102 <_DATA_LMA_START+0x60131d42>
    1c2c:	fe07fc5b          	bbs	a5,0,1c24 <flash_enter_test_mode+0x7c>
    1c30:	80140437          	lui	s0,0x80140
    1c34:	10140783          	lb	a5,257(s0) # 80140101 <_DATA_LMA_START+0x60131d41>
    1c38:	0ff7f793          	andi	a5,a5,255
    1c3c:	0107e793          	ori	a5,a5,16
    1c40:	10f400a3          	sb	a5,257(s0)
    1c44:	4505                	c.li	a0,1
    1c46:	36fd                	c.jal	1834 <delay_us>
    1c48:	10140783          	lb	a5,257(s0)
    1c4c:	0ef7f793          	andi	a5,a5,239
    1c50:	10f400a3          	sb	a5,257(s0)
    1c54:	0024c783          	lbu	a5,2(s1)
    1c58:	10f40023          	sb	a5,256(s0)
    1c5c:	801407b7          	lui	a5,0x80140
    1c60:	10278783          	lb	a5,258(a5) # 80140102 <_DATA_LMA_START+0x60131d42>
    1c64:	fe07fc5b          	bbs	a5,0,1c5c <flash_enter_test_mode+0xb4>
    1c68:	80140737          	lui	a4,0x80140
    1c6c:	10170783          	lb	a5,257(a4) # 80140101 <_DATA_LMA_START+0x60131d41>
    1c70:	0ff7f793          	andi	a5,a5,255
    1c74:	0107e793          	ori	a5,a5,16
    1c78:	10f700a3          	sb	a5,257(a4)
    1c7c:	40b2                	c.lwsp	ra,12(sp)
    1c7e:	4422                	c.lwsp	s0,8(sp)
    1c80:	4492                	c.lwsp	s1,4(sp)
    1c82:	0141                	c.addi	sp,16
    1c84:	00008067          	ret

00001c88 <flash_exit_test_mode>:
    1c88:	1141                	c.addi	sp,-16
    1c8a:	c606                	c.swsp	ra,12(sp)
    1c8c:	c422                	c.swsp	s0,8(sp)
    1c8e:	80140437          	lui	s0,0x80140
    1c92:	32b40783          	lb	a5,811(s0) # 8014032b <_DATA_LMA_START+0x60131f6b>
    1c96:	0ff7f793          	andi	a5,a5,255
    1c9a:	0207e793          	ori	a5,a5,32
    1c9e:	32f405a3          	sb	a5,811(s0)
    1ca2:	4505                	c.li	a0,1
    1ca4:	b91ff0ef          	jal	ra,1834 <delay_us>
    1ca8:	32b40783          	lb	a5,811(s0)
    1cac:	0df7f793          	andi	a5,a5,223
    1cb0:	32f405a3          	sb	a5,811(s0)
    1cb4:	06600793          	li	a5,102
    1cb8:	10f40023          	sb	a5,256(s0)
    1cbc:	801407b7          	lui	a5,0x80140
    1cc0:	10278783          	lb	a5,258(a5) # 80140102 <_DATA_LMA_START+0x60131d42>
    1cc4:	fe07fc5b          	bbs	a5,0,1cbc <flash_exit_test_mode+0x34>
    1cc8:	80140437          	lui	s0,0x80140
    1ccc:	32b40783          	lb	a5,811(s0) # 8014032b <_DATA_LMA_START+0x60131f6b>
    1cd0:	0ff7f793          	andi	a5,a5,255
    1cd4:	0207e793          	ori	a5,a5,32
    1cd8:	32f405a3          	sb	a5,811(s0)
    1cdc:	4505                	c.li	a0,1
    1cde:	3e99                	c.jal	1834 <delay_us>
    1ce0:	32b40783          	lb	a5,811(s0)
    1ce4:	0df7f793          	andi	a5,a5,223
    1ce8:	32f405a3          	sb	a5,811(s0)
    1cec:	f9900793          	li	a5,-103
    1cf0:	10f40023          	sb	a5,256(s0)
    1cf4:	801407b7          	lui	a5,0x80140
    1cf8:	10278783          	lb	a5,258(a5) # 80140102 <_DATA_LMA_START+0x60131d42>
    1cfc:	fe07fc5b          	bbs	a5,0,1cf4 <flash_exit_test_mode+0x6c>
    1d00:	80140737          	lui	a4,0x80140
    1d04:	32b70783          	lb	a5,811(a4) # 8014032b <_DATA_LMA_START+0x60131f6b>
    1d08:	0ff7f793          	andi	a5,a5,255
    1d0c:	0207e793          	ori	a5,a5,32
    1d10:	32f705a3          	sb	a5,811(a4)
    1d14:	10170783          	lb	a5,257(a4)
    1d18:	0ff7f793          	andi	a5,a5,255
    1d1c:	0107e793          	ori	a5,a5,16
    1d20:	10f700a3          	sb	a5,257(a4)
    1d24:	40b2                	c.lwsp	ra,12(sp)
    1d26:	4422                	c.lwsp	s0,8(sp)
    1d28:	0141                	c.addi	sp,16
    1d2a:	8082                	c.jr	ra

00001d2c <flash_read_testmode>:
    1d2c:	1101                	c.addi	sp,-32
    1d2e:	ce06                	c.swsp	ra,28(sp)
    1d30:	cc22                	c.swsp	s0,24(sp)
    1d32:	ca26                	c.swsp	s1,20(sp)
    1d34:	c84a                	c.swsp	s2,16(sp)
    1d36:	c64e                	c.swsp	s3,12(sp)
    1d38:	c452                	c.swsp	s4,8(sp)
    1d3a:	8a2a                	c.mv	s4,a0
    1d3c:	892e                	c.mv	s2,a1
    1d3e:	84b2                	c.mv	s1,a2
    1d40:	8436                	c.mv	s0,a3
    1d42:	801409b7          	lui	s3,0x80140
    1d46:	32b98783          	lb	a5,811(s3) # 8014032b <_DATA_LMA_START+0x60131f6b>
    1d4a:	0ff7f793          	andi	a5,a5,255
    1d4e:	0207e793          	ori	a5,a5,32
    1d52:	32f985a3          	sb	a5,811(s3)
    1d56:	4505                	c.li	a0,1
    1d58:	addff0ef          	jal	ra,1834 <delay_us>
    1d5c:	32b98783          	lb	a5,811(s3)
    1d60:	0df7f793          	andi	a5,a5,223
    1d64:	32f985a3          	sb	a5,811(s3)
    1d68:	11498023          	sb	s4,256(s3)
    1d6c:	801407b7          	lui	a5,0x80140
    1d70:	10278783          	lb	a5,258(a5) # 80140102 <_DATA_LMA_START+0x60131d42>
    1d74:	fe07fc5b          	bbs	a5,0,1d6c <flash_read_testmode+0x40>
    1d78:	5d0927db          	bfoz	a5,s2,23,16
    1d7c:	80140737          	lui	a4,0x80140
    1d80:	10f70023          	sb	a5,256(a4) # 80140100 <_DATA_LMA_START+0x60131d40>
    1d84:	801407b7          	lui	a5,0x80140
    1d88:	10278783          	lb	a5,258(a5) # 80140102 <_DATA_LMA_START+0x60131d42>
    1d8c:	fe07fc5b          	bbs	a5,0,1d84 <flash_read_testmode+0x58>
    1d90:	3c8927db          	bfoz	a5,s2,15,8
    1d94:	80140737          	lui	a4,0x80140
    1d98:	10f70023          	sb	a5,256(a4) # 80140100 <_DATA_LMA_START+0x60131d40>
    1d9c:	801407b7          	lui	a5,0x80140
    1da0:	10278783          	lb	a5,258(a5) # 80140102 <_DATA_LMA_START+0x60131d42>
    1da4:	fe07fc5b          	bbs	a5,0,1d9c <flash_read_testmode+0x70>
    1da8:	0ff97913          	andi	s2,s2,255
    1dac:	801407b7          	lui	a5,0x80140
    1db0:	11278023          	sb	s2,256(a5) # 80140100 <_DATA_LMA_START+0x60131d40>
    1db4:	801407b7          	lui	a5,0x80140
    1db8:	10278783          	lb	a5,258(a5) # 80140102 <_DATA_LMA_START+0x60131d42>
    1dbc:	fe07fc5b          	bbs	a5,0,1db4 <flash_read_testmode+0x88>
    1dc0:	801407b7          	lui	a5,0x80140
    1dc4:	10078023          	sb	zero,256(a5) # 80140100 <_DATA_LMA_START+0x60131d40>
    1dc8:	801407b7          	lui	a5,0x80140
    1dcc:	10278783          	lb	a5,258(a5) # 80140102 <_DATA_LMA_START+0x60131d42>
    1dd0:	fe07fc5b          	bbs	a5,0,1dc8 <flash_read_testmode+0x9c>
    1dd4:	80140737          	lui	a4,0x80140
    1dd8:	10170783          	lb	a5,257(a4) # 80140101 <_DATA_LMA_START+0x60131d41>
    1ddc:	0ff7f793          	andi	a5,a5,255
    1de0:	0017e793          	ori	a5,a5,1
    1de4:	10f700a3          	sb	a5,257(a4)
    1de8:	801407b7          	lui	a5,0x80140
    1dec:	10278783          	lb	a5,258(a5) # 80140102 <_DATA_LMA_START+0x60131d42>
    1df0:	fe07fc5b          	bbs	a5,0,1de8 <flash_read_testmode+0xbc>
    1df4:	4701                	c.li	a4,0
    1df6:	a00d                	c.j	1e18 <flash_read_testmode+0xec>
    1df8:	00140693          	addi	a3,s0,1
    1dfc:	801407b7          	lui	a5,0x80140
    1e00:	10078783          	lb	a5,256(a5) # 80140100 <_DATA_LMA_START+0x60131d40>
    1e04:	00f40023          	sb	a5,0(s0)
    1e08:	801407b7          	lui	a5,0x80140
    1e0c:	10278783          	lb	a5,258(a5) # 80140102 <_DATA_LMA_START+0x60131d42>
    1e10:	fe07fc5b          	bbs	a5,0,1e08 <flash_read_testmode+0xdc>
    1e14:	0705                	c.addi	a4,1
    1e16:	8436                	c.mv	s0,a3
    1e18:	fe9760e3          	bltu	a4,s1,1df8 <flash_read_testmode+0xcc>
    1e1c:	80140737          	lui	a4,0x80140
    1e20:	10170783          	lb	a5,257(a4) # 80140101 <_DATA_LMA_START+0x60131d41>
    1e24:	0fe7f793          	andi	a5,a5,254
    1e28:	10f700a3          	sb	a5,257(a4)
    1e2c:	32b70783          	lb	a5,811(a4)
    1e30:	0ff7f793          	andi	a5,a5,255
    1e34:	0207e793          	ori	a5,a5,32
    1e38:	32f705a3          	sb	a5,811(a4)
    1e3c:	0001                	c.nop
    1e3e:	0001                	c.nop
    1e40:	0001                	c.nop
    1e42:	0001                	c.nop
    1e44:	0001                	c.nop
    1e46:	40f2                	c.lwsp	ra,28(sp)
    1e48:	4462                	c.lwsp	s0,24(sp)
    1e4a:	44d2                	c.lwsp	s1,20(sp)
    1e4c:	4942                	c.lwsp	s2,16(sp)
    1e4e:	49b2                	c.lwsp	s3,12(sp)
    1e50:	4a22                	c.lwsp	s4,8(sp)
    1e52:	6105                	c.addi16sp	sp,32
    1e54:	00008067          	ret

00001e58 <flash_write_testmode>:
    1e58:	1101                	c.addi	sp,-32
    1e5a:	ce06                	c.swsp	ra,28(sp)
    1e5c:	cc22                	c.swsp	s0,24(sp)
    1e5e:	ca26                	c.swsp	s1,20(sp)
    1e60:	c84a                	c.swsp	s2,16(sp)
    1e62:	c64e                	c.swsp	s3,12(sp)
    1e64:	c452                	c.swsp	s4,8(sp)
    1e66:	8a2a                	c.mv	s4,a0
    1e68:	892e                	c.mv	s2,a1
    1e6a:	8432                	c.mv	s0,a2
    1e6c:	84b6                	c.mv	s1,a3
    1e6e:	801409b7          	lui	s3,0x80140
    1e72:	32b98783          	lb	a5,811(s3) # 8014032b <_DATA_LMA_START+0x60131f6b>
    1e76:	0ff7f793          	andi	a5,a5,255
    1e7a:	0207e793          	ori	a5,a5,32
    1e7e:	32f985a3          	sb	a5,811(s3)
    1e82:	4505                	c.li	a0,1
    1e84:	9b1ff0ef          	jal	ra,1834 <delay_us>
    1e88:	32b98783          	lb	a5,811(s3)
    1e8c:	0df7f793          	andi	a5,a5,223
    1e90:	32f985a3          	sb	a5,811(s3)
    1e94:	11498023          	sb	s4,256(s3)
    1e98:	801407b7          	lui	a5,0x80140
    1e9c:	10278783          	lb	a5,258(a5) # 80140102 <_DATA_LMA_START+0x60131d42>
    1ea0:	fe07fc5b          	bbs	a5,0,1e98 <flash_write_testmode+0x40>
    1ea4:	5d0927db          	bfoz	a5,s2,23,16
    1ea8:	80140737          	lui	a4,0x80140
    1eac:	10f70023          	sb	a5,256(a4) # 80140100 <_DATA_LMA_START+0x60131d40>
    1eb0:	801407b7          	lui	a5,0x80140
    1eb4:	10278783          	lb	a5,258(a5) # 80140102 <_DATA_LMA_START+0x60131d42>
    1eb8:	fe07fc5b          	bbs	a5,0,1eb0 <flash_write_testmode+0x58>
    1ebc:	3c8927db          	bfoz	a5,s2,15,8
    1ec0:	80140737          	lui	a4,0x80140
    1ec4:	10f70023          	sb	a5,256(a4) # 80140100 <_DATA_LMA_START+0x60131d40>
    1ec8:	801407b7          	lui	a5,0x80140
    1ecc:	10278783          	lb	a5,258(a5) # 80140102 <_DATA_LMA_START+0x60131d42>
    1ed0:	fe07fc5b          	bbs	a5,0,1ec8 <flash_write_testmode+0x70>
    1ed4:	0ff97913          	andi	s2,s2,255
    1ed8:	801407b7          	lui	a5,0x80140
    1edc:	11278023          	sb	s2,256(a5) # 80140100 <_DATA_LMA_START+0x60131d40>
    1ee0:	801407b7          	lui	a5,0x80140
    1ee4:	10278783          	lb	a5,258(a5) # 80140102 <_DATA_LMA_START+0x60131d42>
    1ee8:	fe07fc5b          	bbs	a5,0,1ee0 <flash_write_testmode+0x88>
    1eec:	4701                	c.li	a4,0
    1eee:	a00d                	c.j	1f10 <flash_write_testmode+0xb8>
    1ef0:	00e487b3          	add	a5,s1,a4
    1ef4:	0007c683          	lbu	a3,0(a5)
    1ef8:	801407b7          	lui	a5,0x80140
    1efc:	10d78023          	sb	a3,256(a5) # 80140100 <_DATA_LMA_START+0x60131d40>
    1f00:	801407b7          	lui	a5,0x80140
    1f04:	10278783          	lb	a5,258(a5) # 80140102 <_DATA_LMA_START+0x60131d42>
    1f08:	fe07fc5b          	bbs	a5,0,1f00 <flash_write_testmode+0xa8>
    1f0c:	00170713          	addi	a4,a4,1
    1f10:	fe8760e3          	bltu	a4,s0,1ef0 <flash_write_testmode+0x98>
    1f14:	80140737          	lui	a4,0x80140
    1f18:	32b70783          	lb	a5,811(a4) # 8014032b <_DATA_LMA_START+0x60131f6b>
    1f1c:	0ff7f793          	andi	a5,a5,255
    1f20:	0207e793          	ori	a5,a5,32
    1f24:	32f705a3          	sb	a5,811(a4)
    1f28:	40f2                	c.lwsp	ra,28(sp)
    1f2a:	4462                	c.lwsp	s0,24(sp)
    1f2c:	44d2                	c.lwsp	s1,20(sp)
    1f2e:	4942                	c.lwsp	s2,16(sp)
    1f30:	49b2                	c.lwsp	s3,12(sp)
    1f32:	4a22                	c.lwsp	s4,8(sp)
    1f34:	6105                	c.addi16sp	sp,32
    1f36:	8082                	c.jr	ra

00001f38 <flash_power_off_on_ram>:
    1f38:	1141                	c.addi	sp,-16
    1f3a:	c606                	c.swsp	ra,12(sp)
    1f3c:	c422                	c.swsp	s0,8(sp)
    1f3e:	c226                	c.swsp	s1,4(sp)
    1f40:	c04a                	c.swsp	s2,0(sp)
    1f42:	84aa                	c.mv	s1,a0
    1f44:	801407b7          	lui	a5,0x80140
    1f48:	10278783          	lb	a5,258(a5) # 80140102 <_DATA_LMA_START+0x60131d42>
    1f4c:	fe07fc5b          	bbs	a5,0,1f44 <flash_power_off_on_ram+0xc>
    1f50:	80140737          	lui	a4,0x80140
    1f54:	10170783          	lb	a5,257(a4) # 80140101 <_DATA_LMA_START+0x60131d41>
    1f58:	0ff7f793          	andi	a5,a5,255
    1f5c:	0107e793          	ori	a5,a5,16
    1f60:	10f700a3          	sb	a5,257(a4)
    1f64:	801407b7          	lui	a5,0x80140
    1f68:	32878783          	lb	a5,808(a5) # 80140328 <_DATA_LMA_START+0x60131f68>
    1f6c:	be37fc5b          	bbc	a5,3,1f64 <flash_power_off_on_ram+0x2c>
    1f70:	4529                	c.li	a0,10
    1f72:	8d3fe0ef          	jal	ra,844 <analog_read_reg8>
    1f76:	892a                	c.mv	s2,a0
    1f78:	4529                	c.li	a0,10
    1f7a:	8cbfe0ef          	jal	ra,844 <analog_read_reg8>
    1f7e:	1c0535db          	bfos	a1,a0,7,0
    1f82:	99f1                	c.andi	a1,-4
    1f84:	0025e593          	ori	a1,a1,2
    1f88:	0fe5f593          	andi	a1,a1,254
    1f8c:	4529                	c.li	a0,10
    1f8e:	907fe0ef          	jal	ra,894 <analog_write_reg8>
    1f92:	452d                	c.li	a0,11
    1f94:	8b1fe0ef          	jal	ra,844 <analog_read_reg8>
    1f98:	00356593          	ori	a1,a0,3
    1f9c:	0ff5f593          	andi	a1,a1,255
    1fa0:	452d                	c.li	a0,11
    1fa2:	8f3fe0ef          	jal	ra,894 <analog_write_reg8>
    1fa6:	80140437          	lui	s0,0x80140
    1faa:	32e40783          	lb	a5,814(s0) # 8014032e <_DATA_LMA_START+0x60131f6e>
    1fae:	0ff7f793          	andi	a5,a5,255
    1fb2:	03f7e793          	ori	a5,a5,63
    1fb6:	32f40723          	sb	a5,814(s0)
    1fba:	32a40783          	lb	a5,810(s0)
    1fbe:	0c07f793          	andi	a5,a5,192
    1fc2:	32f40523          	sb	a5,810(s0)
    1fc6:	32b40783          	lb	a5,811(s0)
    1fca:	0c07f793          	andi	a5,a5,192
    1fce:	32f405a3          	sb	a5,811(s0)
    1fd2:	8526                	c.mv	a0,s1
    1fd4:	87dff0ef          	jal	ra,1850 <delay_ms>
    1fd8:	32a40783          	lb	a5,810(s0)
    1fdc:	0ff7f793          	andi	a5,a5,255
    1fe0:	03f7e793          	ori	a5,a5,63
    1fe4:	32f40523          	sb	a5,810(s0)
    1fe8:	32e40783          	lb	a5,814(s0)
    1fec:	0c07f793          	andi	a5,a5,192
    1ff0:	32f40723          	sb	a5,814(s0)
    1ff4:	85ca                	c.mv	a1,s2
    1ff6:	4529                	c.li	a0,10
    1ff8:	89dfe0ef          	jal	ra,894 <analog_write_reg8>
    1ffc:	4505                	c.li	a0,1
    1ffe:	20003097          	auipc	ra,0x20003
    2002:	d9a080e7          	jalr	-614(ra) # 20004d98 <audio_set_codec_supply>
    2006:	4505                	c.li	a0,1
    2008:	849ff0ef          	jal	ra,1850 <delay_ms>
    200c:	40b2                	c.lwsp	ra,12(sp)
    200e:	4422                	c.lwsp	s0,8(sp)
    2010:	4492                	c.lwsp	s1,4(sp)
    2012:	4902                	c.lwsp	s2,0(sp)
    2014:	0141                	c.addi	sp,16
    2016:	8082                	c.jr	ra

00002018 <flash_write_enable_cmd_testmode>:
    2018:	1141                	c.addi	sp,-16
    201a:	c606                	c.swsp	ra,12(sp)
    201c:	c422                	c.swsp	s0,8(sp)
    201e:	80140437          	lui	s0,0x80140
    2022:	32b40783          	lb	a5,811(s0) # 8014032b <_DATA_LMA_START+0x60131f6b>
    2026:	0ff7f793          	andi	a5,a5,255
    202a:	0207e793          	ori	a5,a5,32
    202e:	32f405a3          	sb	a5,811(s0)
    2032:	4505                	c.li	a0,1
    2034:	801ff0ef          	jal	ra,1834 <delay_us>
    2038:	32b40783          	lb	a5,811(s0)
    203c:	0df7f793          	andi	a5,a5,223
    2040:	32f405a3          	sb	a5,811(s0)
    2044:	00600793          	li	a5,6
    2048:	10f40023          	sb	a5,256(s0)
    204c:	801407b7          	lui	a5,0x80140
    2050:	10278783          	lb	a5,258(a5) # 80140102 <_DATA_LMA_START+0x60131d42>
    2054:	fe07fc5b          	bbs	a5,0,204c <flash_write_enable_cmd_testmode+0x34>
    2058:	80140737          	lui	a4,0x80140
    205c:	32b70783          	lb	a5,811(a4) # 8014032b <_DATA_LMA_START+0x60131f6b>
    2060:	0ff7f793          	andi	a5,a5,255
    2064:	0207e793          	ori	a5,a5,32
    2068:	32f705a3          	sb	a5,811(a4)
    206c:	40b2                	c.lwsp	ra,12(sp)
    206e:	4422                	c.lwsp	s0,8(sp)
    2070:	0141                	c.addi	sp,16
    2072:	8082                	c.jr	ra

00002074 <flash_wait_done_testomode>:
    2074:	1141                	c.addi	sp,-16
    2076:	c606                	c.swsp	ra,12(sp)
    2078:	c422                	c.swsp	s0,8(sp)
    207a:	80140437          	lui	s0,0x80140
    207e:	32b40783          	lb	a5,811(s0) # 8014032b <_DATA_LMA_START+0x60131f6b>
    2082:	0ff7f793          	andi	a5,a5,255
    2086:	0207e793          	ori	a5,a5,32
    208a:	32f405a3          	sb	a5,811(s0)
    208e:	4505                	c.li	a0,1
    2090:	fa4ff0ef          	jal	ra,1834 <delay_us>
    2094:	32b40783          	lb	a5,811(s0)
    2098:	0df7f793          	andi	a5,a5,223
    209c:	32f405a3          	sb	a5,811(s0)
    20a0:	00500793          	li	a5,5
    20a4:	10f40023          	sb	a5,256(s0)
    20a8:	801407b7          	lui	a5,0x80140
    20ac:	10278783          	lb	a5,258(a5) # 80140102 <_DATA_LMA_START+0x60131d42>
    20b0:	fe07fc5b          	bbs	a5,0,20a8 <flash_wait_done_testomode+0x34>
    20b4:	00000713          	li	a4,0
    20b8:	009897b7          	lui	a5,0x989
    20bc:	67f78793          	addi	a5,a5,1663 # 98967f <FLASH_SIZE+0x88967f>
    20c0:	02e7c463          	blt	a5,a4,20e8 <flash_wait_done_testomode+0x74>
    20c4:	801407b7          	lui	a5,0x80140
    20c8:	10078023          	sb	zero,256(a5) # 80140100 <_DATA_LMA_START+0x60131d40>
    20cc:	801407b7          	lui	a5,0x80140
    20d0:	10278783          	lb	a5,258(a5) # 80140102 <_DATA_LMA_START+0x60131d42>
    20d4:	fe07fc5b          	bbs	a5,0,20cc <flash_wait_done_testomode+0x58>
    20d8:	801407b7          	lui	a5,0x80140
    20dc:	10078783          	lb	a5,256(a5) # 80140100 <_DATA_LMA_START+0x60131d40>
    20e0:	0007f45b          	bbc	a5,0,20e8 <flash_wait_done_testomode+0x74>
    20e4:	0705                	c.addi	a4,1
    20e6:	bfc9                	c.j	20b8 <flash_wait_done_testomode+0x44>
    20e8:	80140737          	lui	a4,0x80140
    20ec:	32b70783          	lb	a5,811(a4) # 8014032b <_DATA_LMA_START+0x60131f6b>
    20f0:	0ff7f793          	andi	a5,a5,255
    20f4:	0207e793          	ori	a5,a5,32
    20f8:	32f705a3          	sb	a5,811(a4)
    20fc:	40b2                	c.lwsp	ra,12(sp)
    20fe:	4422                	c.lwsp	s0,8(sp)
    2100:	0141                	c.addi	sp,16
    2102:	8082                	c.jr	ra

00002104 <flash_wait_done_common>:
    2104:	1141                	c.addi	sp,-16
    2106:	c606                	c.swsp	ra,12(sp)
    2108:	c422                	c.swsp	s0,8(sp)
    210a:	80140437          	lui	s0,0x80140
    210e:	10140783          	lb	a5,257(s0) # 80140101 <_DATA_LMA_START+0x60131d41>
    2112:	0ff7f793          	andi	a5,a5,255
    2116:	0107e793          	ori	a5,a5,16
    211a:	10f400a3          	sb	a5,257(s0)
    211e:	4505                	c.li	a0,1
    2120:	f14ff0ef          	jal	ra,1834 <delay_us>
    2124:	10140783          	lb	a5,257(s0)
    2128:	0ef7f793          	andi	a5,a5,239
    212c:	10f400a3          	sb	a5,257(s0)
    2130:	00500793          	li	a5,5
    2134:	10f40023          	sb	a5,256(s0)
    2138:	801407b7          	lui	a5,0x80140
    213c:	10278783          	lb	a5,258(a5) # 80140102 <_DATA_LMA_START+0x60131d42>
    2140:	fe07fc5b          	bbs	a5,0,2138 <flash_wait_done_common+0x34>
    2144:	00000713          	li	a4,0
    2148:	009897b7          	lui	a5,0x989
    214c:	67f78793          	addi	a5,a5,1663 # 98967f <FLASH_SIZE+0x88967f>
    2150:	02e7c463          	blt	a5,a4,2178 <flash_wait_done_common+0x74>
    2154:	801407b7          	lui	a5,0x80140
    2158:	10078023          	sb	zero,256(a5) # 80140100 <_DATA_LMA_START+0x60131d40>
    215c:	801407b7          	lui	a5,0x80140
    2160:	10278783          	lb	a5,258(a5) # 80140102 <_DATA_LMA_START+0x60131d42>
    2164:	fe07fc5b          	bbs	a5,0,215c <flash_wait_done_common+0x58>
    2168:	801407b7          	lui	a5,0x80140
    216c:	10078783          	lb	a5,256(a5) # 80140100 <_DATA_LMA_START+0x60131d40>
    2170:	0007f45b          	bbc	a5,0,2178 <flash_wait_done_common+0x74>
    2174:	0705                	c.addi	a4,1
    2176:	bfc9                	c.j	2148 <flash_wait_done_common+0x44>
    2178:	80140737          	lui	a4,0x80140
    217c:	10170783          	lb	a5,257(a4) # 80140101 <_DATA_LMA_START+0x60131d41>
    2180:	0ff7f793          	andi	a5,a5,255
    2184:	0107e793          	ori	a5,a5,16
    2188:	10f700a3          	sb	a5,257(a4)
    218c:	40b2                	c.lwsp	ra,12(sp)
    218e:	4422                	c.lwsp	s0,8(sp)
    2190:	0141                	c.addi	sp,16
    2192:	8082                	c.jr	ra

00002194 <flash_erase_chip_scratch_testmode>:
    2194:	1141                	c.addi	sp,-16
    2196:	c606                	c.swsp	ra,12(sp)
    2198:	c422                	c.swsp	s0,8(sp)
    219a:	3dbd                	c.jal	2018 <flash_write_enable_cmd_testmode>
    219c:	80140437          	lui	s0,0x80140
    21a0:	32b40783          	lb	a5,811(s0) # 8014032b <_DATA_LMA_START+0x60131f6b>
    21a4:	0ff7f793          	andi	a5,a5,255
    21a8:	0207e793          	ori	a5,a5,32
    21ac:	32f405a3          	sb	a5,811(s0)
    21b0:	00100513          	li	a0,1
    21b4:	e80ff0ef          	jal	ra,1834 <delay_us>
    21b8:	32b40783          	lb	a5,811(s0)
    21bc:	0df7f793          	andi	a5,a5,223
    21c0:	32f405a3          	sb	a5,811(s0)
    21c4:	06000793          	li	a5,96
    21c8:	10f40023          	sb	a5,256(s0)
    21cc:	801407b7          	lui	a5,0x80140
    21d0:	10278783          	lb	a5,258(a5) # 80140102 <_DATA_LMA_START+0x60131d42>
    21d4:	fe07fc5b          	bbs	a5,0,21cc <flash_erase_chip_scratch_testmode+0x38>
    21d8:	80140737          	lui	a4,0x80140
    21dc:	32b70783          	lb	a5,811(a4) # 8014032b <_DATA_LMA_START+0x60131f6b>
    21e0:	0ff7f793          	andi	a5,a5,255
    21e4:	0207e793          	ori	a5,a5,32
    21e8:	32f705a3          	sb	a5,811(a4)
    21ec:	3561                	c.jal	2074 <flash_wait_done_testomode>
    21ee:	40b2                	c.lwsp	ra,12(sp)
    21f0:	4422                	c.lwsp	s0,8(sp)
    21f2:	0141                	c.addi	sp,16
    21f4:	00008067          	ret

000021f8 <flash_write_config_scratch_testmode>:
    21f8:	1141                	c.addi	sp,-16
    21fa:	c606                	c.swsp	ra,12(sp)
    21fc:	86b2                	c.mv	a3,a2
    21fe:	862e                	c.mv	a2,a1
    2200:	85aa                	c.mv	a1,a0
    2202:	0d000513          	li	a0,208
    2206:	3989                	c.jal	1e58 <flash_write_testmode>
    2208:	35b5                	c.jal	2074 <flash_wait_done_testomode>
    220a:	40b2                	c.lwsp	ra,12(sp)
    220c:	0141                	c.addi	sp,16
    220e:	8082                	c.jr	ra

00002210 <flash_plane_program_scratch_testmode>:
    2210:	1141                	c.addi	sp,-16
    2212:	c606                	c.swsp	ra,12(sp)
    2214:	86b2                	c.mv	a3,a2
    2216:	862e                	c.mv	a2,a1
    2218:	85aa                	c.mv	a1,a0
    221a:	0da00513          	li	a0,218
    221e:	392d                	c.jal	1e58 <flash_write_testmode>
    2220:	3d91                	c.jal	2074 <flash_wait_done_testomode>
    2222:	40b2                	c.lwsp	ra,12(sp)
    2224:	0141                	c.addi	sp,16
    2226:	8082                	c.jr	ra

00002228 <flash_page_program_scratch_testmode>:
    2228:	1141                	c.addi	sp,-16
    222a:	c606                	c.swsp	ra,12(sp)
    222c:	c422                	c.swsp	s0,8(sp)
    222e:	c226                	c.swsp	s1,4(sp)
    2230:	c04a                	c.swsp	s2,0(sp)
    2232:	842a                	c.mv	s0,a0
    2234:	84ae                	c.mv	s1,a1
    2236:	8932                	c.mv	s2,a2
    2238:	33c5                	c.jal	2018 <flash_write_enable_cmd_testmode>
    223a:	86ca                	c.mv	a3,s2
    223c:	8626                	c.mv	a2,s1
    223e:	85a2                	c.mv	a1,s0
    2240:	4509                	c.li	a0,2
    2242:	3919                	c.jal	1e58 <flash_write_testmode>
    2244:	3d05                	c.jal	2074 <flash_wait_done_testomode>
    2246:	40b2                	c.lwsp	ra,12(sp)
    2248:	4422                	c.lwsp	s0,8(sp)
    224a:	4492                	c.lwsp	s1,4(sp)
    224c:	4902                	c.lwsp	s2,0(sp)
    224e:	0141                	c.addi	sp,16
    2250:	00008067          	ret

00002254 <flash_scratch_ram>:
    2254:	1141                	c.addi	sp,-16
    2256:	c606                	c.swsp	ra,12(sp)
    2258:	c422                	c.swsp	s0,8(sp)
    225a:	c226                	c.swsp	s1,4(sp)
    225c:	801407b7          	lui	a5,0x80140
    2260:	10278483          	lb	s1,258(a5) # 80140102 <_DATA_LMA_START+0x60131d42>
    2264:	8885                	c.andi	s1,1
    2266:	f8fd                	c.bnez	s1,225c <flash_scratch_ram+0x8>
    2268:	80140737          	lui	a4,0x80140
    226c:	10170783          	lb	a5,257(a4) # 80140101 <_DATA_LMA_START+0x60131d41>
    2270:	0ff7f793          	andi	a5,a5,255
    2274:	0107e793          	ori	a5,a5,16
    2278:	10f700a3          	sb	a5,257(a4)
    227c:	801407b7          	lui	a5,0x80140
    2280:	32878783          	lb	a5,808(a5) # 80140328 <_DATA_LMA_START+0x60131f68>
    2284:	be37fc5b          	bbc	a5,3,227c <flash_scratch_ram+0x28>
    2288:	8bdff0ef          	jal	ra,1b44 <mspi_as_gpio>
    228c:	80140737          	lui	a4,0x80140
    2290:	10170783          	lb	a5,257(a4) # 80140101 <_DATA_LMA_START+0x60131d41>
    2294:	0f37f793          	andi	a5,a5,243
    2298:	10f700a3          	sb	a5,257(a4)
    229c:	b11f950b          	addigp	a0,-1264 # 80310 <enter_cmd_scratch>
    22a0:	909ff0ef          	jal	ra,1ba8 <flash_enter_test_mode>
    22a4:	3dc5                	c.jal	2194 <flash_erase_chip_scratch_testmode>
    22a6:	8426                	c.mv	s0,s1
    22a8:	0200006f          	j	22c8 <flash_scratch_ram+0x74>
    22ac:	911f978b          	addigp	a5,-1776 # 80110 <program_buff>
    22b0:	0c8787db          	lea.w	a5,a5,s0
    22b4:	911f960b          	addigp	a2,-1776 # 80110 <program_buff>
    22b8:	10000593          	li	a1,256
    22bc:	1007a503          	lw	a0,256(a5)
    22c0:	3f81                	c.jal	2210 <flash_plane_program_scratch_testmode>
    22c2:	0405                	c.addi	s0,1
    22c4:	0ff47413          	andi	s0,s0,255
    22c8:	47bd                	c.li	a5,15
    22ca:	fe87f1e3          	bgeu	a5,s0,22ac <flash_scratch_ram+0x58>
    22ce:	8426                	c.mv	s0,s1
    22d0:	0200006f          	j	22f0 <flash_scratch_ram+0x9c>
    22d4:	911f978b          	addigp	a5,-1776 # 80110 <program_buff>
    22d8:	0c8787db          	lea.w	a5,a5,s0
    22dc:	b15f960b          	addigp	a2,-1260 # 80314 <config_write_buff>
    22e0:	9622                	c.add	a2,s0
    22e2:	4585                	c.li	a1,1
    22e4:	1407a503          	lw	a0,320(a5)
    22e8:	3f01                	c.jal	21f8 <flash_write_config_scratch_testmode>
    22ea:	0405                	c.addi	s0,1
    22ec:	0ff47413          	andi	s0,s0,255
    22f0:	478d                	c.li	a5,3
    22f2:	fe87f1e3          	bgeu	a5,s0,22d4 <flash_scratch_ram+0x80>
    22f6:	a839                	c.j	2314 <flash_scratch_ram+0xc0>
    22f8:	911f978b          	addigp	a5,-1776 # 80110 <program_buff>
    22fc:	0c9787db          	lea.w	a5,a5,s1
    2300:	911f960b          	addigp	a2,-1776 # 80110 <program_buff>
    2304:	10000593          	li	a1,256
    2308:	1507a503          	lw	a0,336(a5)
    230c:	3f31                	c.jal	2228 <flash_page_program_scratch_testmode>
    230e:	0485                	c.addi	s1,1
    2310:	0ff4f493          	andi	s1,s1,255
    2314:	479d                	c.li	a5,7
    2316:	fe97f1e3          	bgeu	a5,s1,22f8 <flash_scratch_ram+0xa4>
    231a:	4501                	c.li	a0,0
    231c:	40b2                	c.lwsp	ra,12(sp)
    231e:	4422                	c.lwsp	s0,8(sp)
    2320:	4492                	c.lwsp	s1,4(sp)
    2322:	0141                	c.addi	sp,16
    2324:	00008067          	ret

00002328 <flash_erase_chip_ram>:
    2328:	1141                	c.addi	sp,-16
    232a:	c606                	c.swsp	ra,12(sp)
    232c:	c422                	c.swsp	s0,8(sp)
    232e:	c226                	c.swsp	s1,4(sp)
    2330:	300024f3          	csrr	s1,mstatus
    2334:	88a1                	c.andi	s1,8
    2336:	c489                	c.beqz	s1,2340 <flash_erase_chip_ram+0x18>
    2338:	300477f3          	csrrci	a5,mstatus,8
    233c:	0ff0000f          	fence
    2340:	801407b7          	lui	a5,0x80140
    2344:	10278783          	lb	a5,258(a5) # 80140102 <_DATA_LMA_START+0x60131d42>
    2348:	fe07fc5b          	bbs	a5,0,2340 <flash_erase_chip_ram+0x18>
    234c:	80140737          	lui	a4,0x80140
    2350:	10170783          	lb	a5,257(a4) # 80140101 <_DATA_LMA_START+0x60131d41>
    2354:	0ff7f793          	andi	a5,a5,255
    2358:	0107e793          	ori	a5,a5,16
    235c:	10f700a3          	sb	a5,257(a4)
    2360:	801407b7          	lui	a5,0x80140
    2364:	32878783          	lb	a5,808(a5) # 80140328 <_DATA_LMA_START+0x60131f68>
    2368:	be37fc5b          	bbc	a5,3,2360 <flash_erase_chip_ram+0x38>
    236c:	80140437          	lui	s0,0x80140
    2370:	10140783          	lb	a5,257(s0) # 80140101 <_DATA_LMA_START+0x60131d41>
    2374:	0fd7f793          	andi	a5,a5,253
    2378:	10f400a3          	sb	a5,257(s0)
    237c:	10140783          	lb	a5,257(s0)
    2380:	0f37f793          	andi	a5,a5,243
    2384:	10f400a3          	sb	a5,257(s0)
    2388:	10140783          	lb	a5,257(s0)
    238c:	0ff7f793          	andi	a5,a5,255
    2390:	0107e793          	ori	a5,a5,16
    2394:	10f400a3          	sb	a5,257(s0)
    2398:	4505                	c.li	a0,1
    239a:	c9aff0ef          	jal	ra,1834 <delay_us>
    239e:	10140783          	lb	a5,257(s0)
    23a2:	0ef7f793          	andi	a5,a5,239
    23a6:	10f400a3          	sb	a5,257(s0)
    23aa:	4799                	c.li	a5,6
    23ac:	10f40023          	sb	a5,256(s0)
    23b0:	801407b7          	lui	a5,0x80140
    23b4:	10278783          	lb	a5,258(a5) # 80140102 <_DATA_LMA_START+0x60131d42>
    23b8:	fe07fc5b          	bbs	a5,0,23b0 <flash_erase_chip_ram+0x88>
    23bc:	80140437          	lui	s0,0x80140
    23c0:	10140783          	lb	a5,257(s0) # 80140101 <_DATA_LMA_START+0x60131d41>
    23c4:	0ff7f793          	andi	a5,a5,255
    23c8:	0107e793          	ori	a5,a5,16
    23cc:	10f400a3          	sb	a5,257(s0)
    23d0:	00100513          	li	a0,1
    23d4:	c60ff0ef          	jal	ra,1834 <delay_us>
    23d8:	10140783          	lb	a5,257(s0)
    23dc:	0ef7f793          	andi	a5,a5,239
    23e0:	10f400a3          	sb	a5,257(s0)
    23e4:	06000793          	li	a5,96
    23e8:	10f40023          	sb	a5,256(s0)
    23ec:	801407b7          	lui	a5,0x80140
    23f0:	10278783          	lb	a5,258(a5) # 80140102 <_DATA_LMA_START+0x60131d42>
    23f4:	fe07fc5b          	bbs	a5,0,23ec <flash_erase_chip_ram+0xc4>
    23f8:	80140737          	lui	a4,0x80140
    23fc:	10170783          	lb	a5,257(a4) # 80140101 <_DATA_LMA_START+0x60131d41>
    2400:	0ff7f793          	andi	a5,a5,255
    2404:	0107e793          	ori	a5,a5,16
    2408:	10f700a3          	sb	a5,257(a4)
    240c:	39e5                	c.jal	2104 <flash_wait_done_common>
    240e:	c489                	c.beqz	s1,2418 <flash_erase_chip_ram+0xf0>
    2410:	3004a4f3          	csrrs	s1,mstatus,s1
    2414:	0ff0000f          	fence
    2418:	40b2                	c.lwsp	ra,12(sp)
    241a:	4422                	c.lwsp	s0,8(sp)
    241c:	4492                	c.lwsp	s1,4(sp)
    241e:	0141                	c.addi	sp,16
    2420:	8082                	c.jr	ra
    2422:	0001                	c.nop

00002424 <flash_read_status_trim_testmode>:
    2424:	1141                	c.addi	sp,-16
    2426:	c606                	c.swsp	ra,12(sp)
    2428:	c422                	c.swsp	s0,8(sp)
    242a:	80140437          	lui	s0,0x80140
    242e:	32b40783          	lb	a5,811(s0) # 8014032b <_DATA_LMA_START+0x60131f6b>
    2432:	0ff7f793          	andi	a5,a5,255
    2436:	0207e793          	ori	a5,a5,32
    243a:	32f405a3          	sb	a5,811(s0)
    243e:	4505                	c.li	a0,1
    2440:	bf4ff0ef          	jal	ra,1834 <delay_us>
    2444:	32b40783          	lb	a5,811(s0)
    2448:	0df7f793          	andi	a5,a5,223
    244c:	32f405a3          	sb	a5,811(s0)
    2450:	00600793          	li	a5,6
    2454:	10f40023          	sb	a5,256(s0)
    2458:	801407b7          	lui	a5,0x80140
    245c:	10278783          	lb	a5,258(a5) # 80140102 <_DATA_LMA_START+0x60131d42>
    2460:	fe07fc5b          	bbs	a5,0,2458 <flash_read_status_trim_testmode+0x34>
    2464:	80140437          	lui	s0,0x80140
    2468:	32b40783          	lb	a5,811(s0) # 8014032b <_DATA_LMA_START+0x60131f6b>
    246c:	0ff7f793          	andi	a5,a5,255
    2470:	0207e793          	ori	a5,a5,32
    2474:	32f405a3          	sb	a5,811(s0)
    2478:	4505                	c.li	a0,1
    247a:	bbaff0ef          	jal	ra,1834 <delay_us>
    247e:	32b40783          	lb	a5,811(s0)
    2482:	0df7f793          	andi	a5,a5,223
    2486:	32f405a3          	sb	a5,811(s0)
    248a:	4795                	c.li	a5,5
    248c:	10f40023          	sb	a5,256(s0)
    2490:	801407b7          	lui	a5,0x80140
    2494:	10278783          	lb	a5,258(a5) # 80140102 <_DATA_LMA_START+0x60131d42>
    2498:	fe07fc5b          	bbs	a5,0,2490 <flash_read_status_trim_testmode+0x6c>
    249c:	801407b7          	lui	a5,0x80140
    24a0:	10078023          	sb	zero,256(a5) # 80140100 <_DATA_LMA_START+0x60131d40>
    24a4:	801407b7          	lui	a5,0x80140
    24a8:	10278783          	lb	a5,258(a5) # 80140102 <_DATA_LMA_START+0x60131d42>
    24ac:	fe07fc5b          	bbs	a5,0,24a4 <flash_read_status_trim_testmode+0x80>
    24b0:	80140737          	lui	a4,0x80140
    24b4:	10070503          	lb	a0,256(a4) # 80140100 <_DATA_LMA_START+0x60131d40>
    24b8:	32b70783          	lb	a5,811(a4)
    24bc:	0ff7f793          	andi	a5,a5,255
    24c0:	0207e793          	ori	a5,a5,32
    24c4:	32f705a3          	sb	a5,811(a4)
    24c8:	0ff57513          	andi	a0,a0,255
    24cc:	40b2                	c.lwsp	ra,12(sp)
    24ce:	4422                	c.lwsp	s0,8(sp)
    24d0:	0141                	c.addi	sp,16
    24d2:	8082                	c.jr	ra

000024d4 <flash_erase_trim_testmode>:
    24d4:	1141                	c.addi	sp,-16
    24d6:	c606                	c.swsp	ra,12(sp)
    24d8:	c422                	c.swsp	s0,8(sp)
    24da:	80140437          	lui	s0,0x80140
    24de:	32b40783          	lb	a5,811(s0) # 8014032b <_DATA_LMA_START+0x60131f6b>
    24e2:	0ff7f793          	andi	a5,a5,255
    24e6:	0207e793          	ori	a5,a5,32
    24ea:	32f405a3          	sb	a5,811(s0)
    24ee:	4505                	c.li	a0,1
    24f0:	b44ff0ef          	jal	ra,1834 <delay_us>
    24f4:	32b40783          	lb	a5,811(s0)
    24f8:	0df7f793          	andi	a5,a5,223
    24fc:	32f405a3          	sb	a5,811(s0)
    2500:	fd500793          	li	a5,-43
    2504:	10f40023          	sb	a5,256(s0)
    2508:	801407b7          	lui	a5,0x80140
    250c:	10278783          	lb	a5,258(a5) # 80140102 <_DATA_LMA_START+0x60131d42>
    2510:	fe07fc5b          	bbs	a5,0,2508 <flash_erase_trim_testmode+0x34>
    2514:	801407b7          	lui	a5,0x80140
    2518:	10078023          	sb	zero,256(a5) # 80140100 <_DATA_LMA_START+0x60131d40>
    251c:	801407b7          	lui	a5,0x80140
    2520:	10278783          	lb	a5,258(a5) # 80140102 <_DATA_LMA_START+0x60131d42>
    2524:	fe07fc5b          	bbs	a5,0,251c <flash_erase_trim_testmode+0x48>
    2528:	801407b7          	lui	a5,0x80140
    252c:	01200713          	li	a4,18
    2530:	10e78023          	sb	a4,256(a5) # 80140100 <_DATA_LMA_START+0x60131d40>
    2534:	801407b7          	lui	a5,0x80140
    2538:	10278783          	lb	a5,258(a5) # 80140102 <_DATA_LMA_START+0x60131d42>
    253c:	fe07fc5b          	bbs	a5,0,2534 <flash_erase_trim_testmode+0x60>
    2540:	801407b7          	lui	a5,0x80140
    2544:	10078023          	sb	zero,256(a5) # 80140100 <_DATA_LMA_START+0x60131d40>
    2548:	801407b7          	lui	a5,0x80140
    254c:	10278783          	lb	a5,258(a5) # 80140102 <_DATA_LMA_START+0x60131d42>
    2550:	fe07fc5b          	bbs	a5,0,2548 <flash_erase_trim_testmode+0x74>
    2554:	80140737          	lui	a4,0x80140
    2558:	32b70783          	lb	a5,811(a4) # 8014032b <_DATA_LMA_START+0x60131f6b>
    255c:	0ff7f793          	andi	a5,a5,255
    2560:	0207e793          	ori	a5,a5,32
    2564:	32f705a3          	sb	a5,811(a4)
    2568:	4565                	c.li	a0,25
    256a:	ae6ff0ef          	jal	ra,1850 <delay_ms>
    256e:	40b2                	c.lwsp	ra,12(sp)
    2570:	4422                	c.lwsp	s0,8(sp)
    2572:	0141                	c.addi	sp,16
    2574:	00008067          	ret

00002578 <flash_read_trim_testmode>:
    2578:	1141                	c.addi	sp,-16
    257a:	c606                	c.swsp	ra,12(sp)
    257c:	86b2                	c.mv	a3,a2
    257e:	862e                	c.mv	a2,a1
    2580:	85aa                	c.mv	a1,a0
    2582:	0d700513          	li	a0,215
    2586:	fa6ff0ef          	jal	ra,1d2c <flash_read_testmode>
    258a:	40b2                	c.lwsp	ra,12(sp)
    258c:	0141                	c.addi	sp,16
    258e:	8082                	c.jr	ra

00002590 <flash_page_program_trim_testmode>:
    2590:	1141                	c.addi	sp,-16
    2592:	c606                	c.swsp	ra,12(sp)
    2594:	86b2                	c.mv	a3,a2
    2596:	862e                	c.mv	a2,a1
    2598:	85aa                	c.mv	a1,a0
    259a:	0d600513          	li	a0,214
    259e:	8bbff0ef          	jal	ra,1e58 <flash_write_testmode>
    25a2:	4515                	c.li	a0,5
    25a4:	aacff0ef          	jal	ra,1850 <delay_ms>
    25a8:	40b2                	c.lwsp	ra,12(sp)
    25aa:	0141                	c.addi	sp,16
    25ac:	00008067          	ret

000025b0 <flash_trim_ram>:
    25b0:	1101                	c.addi	sp,-32
    25b2:	ce06                	c.swsp	ra,28(sp)
    25b4:	cc22                	c.swsp	s0,24(sp)
    25b6:	d8eff0ef          	jal	ra,1b44 <mspi_as_gpio>
    25ba:	80140737          	lui	a4,0x80140
    25be:	10170783          	lb	a5,257(a4) # 80140101 <_DATA_LMA_START+0x60131d41>
    25c2:	0f37f793          	andi	a5,a5,243
    25c6:	10f700a3          	sb	a5,257(a4)
    25ca:	b19f950b          	addigp	a0,-1256 # 80318 <enter_cmd_trim>
    25ce:	ddaff0ef          	jal	ra,1ba8 <flash_enter_test_mode>
    25d2:	3d89                	c.jal	2424 <flash_read_status_trim_testmode>
    25d4:	0825645b          	bnec	a0,2,265c <flash_trim_ram+0xac>
    25d8:	57b1                	c.li	a5,-20
    25da:	00f10023          	sb	a5,0(sp)
    25de:	f9f00793          	li	a5,-97
    25e2:	00f100a3          	sb	a5,1(sp)
    25e6:	57ad                	c.li	a5,-21
    25e8:	00f10123          	sb	a5,2(sp)
    25ec:	57fd                	c.li	a5,-1
    25ee:	00f101a3          	sb	a5,3(sp)
    25f2:	fcd00793          	li	a5,-51
    25f6:	00f10223          	sb	a5,4(sp)
    25fa:	c402                	c.swsp	zero,8(sp)
    25fc:	00010623          	sb	zero,12(sp)
    2600:	3dd1                	c.jal	24d4 <flash_erase_trim_testmode>
    2602:	860a                	c.mv	a2,sp
    2604:	4595                	c.li	a1,5
    2606:	6405                	c.lui	s0,0x1
    2608:	20040513          	addi	a0,s0,512 # 1200 <flash_mspi_read_ram+0x94>
    260c:	3751                	c.jal	2590 <flash_page_program_trim_testmode>
    260e:	0030                	c.addi4spn	a2,sp,8
    2610:	4595                	c.li	a1,5
    2612:	20040513          	addi	a0,s0,512
    2616:	378d                	c.jal	2578 <flash_read_trim_testmode>
    2618:	4781                	c.li	a5,0
    261a:	4401                	c.li	s0,0
    261c:	0080006f          	j	2624 <flash_trim_ram+0x74>
    2620:	00178793          	addi	a5,a5,1
    2624:	4711                	c.li	a4,4
    2626:	00f74d63          	blt	a4,a5,2640 <flash_trim_ram+0x90>
    262a:	0810                	c.addi4spn	a2,sp,16
    262c:	00f60733          	add	a4,a2,a5
    2630:	ff074683          	lbu	a3,-16(a4)
    2634:	ff874703          	lbu	a4,-8(a4)
    2638:	fee684e3          	beq	a3,a4,2620 <flash_trim_ram+0x70>
    263c:	4405                	c.li	s0,1
    263e:	b7cd                	c.j	2620 <flash_trim_ram+0x70>
    2640:	e48ff0ef          	jal	ra,1c88 <flash_exit_test_mode>
    2644:	d34ff0ef          	jal	ra,1b78 <mspi_as_mspi>
    2648:	00100513          	li	a0,1
    264c:	9e8ff0ef          	jal	ra,1834 <delay_us>
    2650:	8522                	c.mv	a0,s0
    2652:	40f2                	c.lwsp	ra,28(sp)
    2654:	4462                	c.lwsp	s0,24(sp)
    2656:	6105                	c.addi16sp	sp,32
    2658:	00008067          	ret
    265c:	d1cff0ef          	jal	ra,1b78 <mspi_as_mspi>
    2660:	4505                	c.li	a0,1
    2662:	9d2ff0ef          	jal	ra,1834 <delay_us>
    2666:	4409                	c.li	s0,2
    2668:	fe9ff06f          	j	2650 <flash_trim_ram+0xa0>

0000266c <flash_trim_check_ram>:
    266c:	1101                	c.addi	sp,-32
    266e:	ce06                	c.swsp	ra,28(sp)
    2670:	cc22                	c.swsp	s0,24(sp)
    2672:	cd2ff0ef          	jal	ra,1b44 <mspi_as_gpio>
    2676:	80140737          	lui	a4,0x80140
    267a:	10170783          	lb	a5,257(a4) # 80140101 <_DATA_LMA_START+0x60131d41>
    267e:	0f37f793          	andi	a5,a5,243
    2682:	10f700a3          	sb	a5,257(a4)
    2686:	b19f950b          	addigp	a0,-1256 # 80318 <enter_cmd_trim>
    268a:	d1eff0ef          	jal	ra,1ba8 <flash_enter_test_mode>
    268e:	3b59                	c.jal	2424 <flash_read_status_trim_testmode>
    2690:	06256e5b          	bnec	a0,2,270c <flash_trim_check_ram+0xa0>
    2694:	57b1                	c.li	a5,-20
    2696:	00f10023          	sb	a5,0(sp)
    269a:	f9f00793          	li	a5,-97
    269e:	00f100a3          	sb	a5,1(sp)
    26a2:	57ad                	c.li	a5,-21
    26a4:	00f10123          	sb	a5,2(sp)
    26a8:	57fd                	c.li	a5,-1
    26aa:	00f101a3          	sb	a5,3(sp)
    26ae:	fcd00793          	li	a5,-51
    26b2:	00f10223          	sb	a5,4(sp)
    26b6:	c402                	c.swsp	zero,8(sp)
    26b8:	00010623          	sb	zero,12(sp)
    26bc:	0030                	c.addi4spn	a2,sp,8
    26be:	4595                	c.li	a1,5
    26c0:	6505                	c.lui	a0,0x1
    26c2:	20050513          	addi	a0,a0,512 # 1200 <flash_mspi_read_ram+0x94>
    26c6:	3d4d                	c.jal	2578 <flash_read_trim_testmode>
    26c8:	4781                	c.li	a5,0
    26ca:	4401                	c.li	s0,0
    26cc:	0080006f          	j	26d4 <flash_trim_check_ram+0x68>
    26d0:	00178793          	addi	a5,a5,1
    26d4:	4711                	c.li	a4,4
    26d6:	00f74d63          	blt	a4,a5,26f0 <flash_trim_check_ram+0x84>
    26da:	0810                	c.addi4spn	a2,sp,16
    26dc:	00f60733          	add	a4,a2,a5
    26e0:	ff074683          	lbu	a3,-16(a4)
    26e4:	ff874703          	lbu	a4,-8(a4)
    26e8:	fee684e3          	beq	a3,a4,26d0 <flash_trim_check_ram+0x64>
    26ec:	4405                	c.li	s0,1
    26ee:	b7cd                	c.j	26d0 <flash_trim_check_ram+0x64>
    26f0:	d98ff0ef          	jal	ra,1c88 <flash_exit_test_mode>
    26f4:	c84ff0ef          	jal	ra,1b78 <mspi_as_mspi>
    26f8:	00100513          	li	a0,1
    26fc:	938ff0ef          	jal	ra,1834 <delay_us>
    2700:	8522                	c.mv	a0,s0
    2702:	40f2                	c.lwsp	ra,28(sp)
    2704:	4462                	c.lwsp	s0,24(sp)
    2706:	6105                	c.addi16sp	sp,32
    2708:	00008067          	ret
    270c:	c6cff0ef          	jal	ra,1b78 <mspi_as_mspi>
    2710:	4505                	c.li	a0,1
    2712:	922ff0ef          	jal	ra,1834 <delay_us>
    2716:	4409                	c.li	s0,2
    2718:	b7e5                	c.j	2700 <flash_trim_check_ram+0x94>
    271a:	0001                	c.nop

0000271c <pm_wait_bbpll_done>:
    271c:	1101                	c.addi	sp,-32
    271e:	08100513          	li	a0,129
    2722:	cc22                	c.swsp	s0,24(sp)
    2724:	ca26                	c.swsp	s1,20(sp)
    2726:	c84a                	c.swsp	s2,16(sp)
    2728:	00112e23          	sw	ra,28(sp)
    272c:	918fe0ef          	jal	ra,844 <analog_read_reg8>
    2730:	04056593          	ori	a1,a0,64
    2734:	892a                	c.mv	s2,a0
    2736:	0ff5f593          	andi	a1,a1,255
    273a:	08100513          	li	a0,129
    273e:	0bf97913          	andi	s2,s2,191
    2742:	4481                	c.li	s1,0
    2744:	01d00413          	li	s0,29
    2748:	94cfe0ef          	jal	ra,894 <analog_write_reg8>
    274c:	000107a3          	sb	zero,15(sp)
    2750:	00f10783          	lb	a5,15(sp)
    2754:	0ff7f793          	andi	a5,a5,255
    2758:	02f46063          	bltu	s0,a5,2778 <pm_wait_bbpll_done+0x5c>
    275c:	0001                	c.nop
    275e:	00f10783          	lb	a5,15(sp)
    2762:	0785                	c.addi	a5,1
    2764:	0ff7f793          	andi	a5,a5,255
    2768:	00f107a3          	sb	a5,15(sp)
    276c:	00f10783          	lb	a5,15(sp)
    2770:	0ff7f793          	andi	a5,a5,255
    2774:	fef474e3          	bgeu	s0,a5,275c <pm_wait_bbpll_done+0x40>
    2778:	08800513          	li	a0,136
    277c:	8c8fe0ef          	jal	ra,844 <analog_read_reg8>
    2780:	4255765b          	bbs	a0,5,27ac <pm_wait_bbpll_done+0x90>
    2784:	cc95                	c.beqz	s1,27c0 <pm_wait_bbpll_done+0xa4>
    2786:	0414d55b          	beqc	s1,1,27d0 <pm_wait_bbpll_done+0xb4>
    278a:	85ca                	c.mv	a1,s2
    278c:	08100513          	li	a0,129
    2790:	904fe0ef          	jal	ra,894 <analog_write_reg8>
    2794:	0024d65b          	beqc	s1,2,27a0 <pm_wait_bbpll_done+0x84>
    2798:	0485                	c.addi	s1,1
    279a:	0ff4f493          	andi	s1,s1,255
    279e:	b77d                	c.j	274c <pm_wait_bbpll_done+0x30>
    27a0:	40f2                	c.lwsp	ra,28(sp)
    27a2:	4462                	c.lwsp	s0,24(sp)
    27a4:	44d2                	c.lwsp	s1,20(sp)
    27a6:	4942                	c.lwsp	s2,16(sp)
    27a8:	6105                	c.addi16sp	sp,32
    27aa:	8082                	c.jr	ra
    27ac:	4462                	c.lwsp	s0,24(sp)
    27ae:	40f2                	c.lwsp	ra,28(sp)
    27b0:	44d2                	c.lwsp	s1,20(sp)
    27b2:	85ca                	c.mv	a1,s2
    27b4:	4942                	c.lwsp	s2,16(sp)
    27b6:	08100513          	li	a0,129
    27ba:	6105                	c.addi16sp	sp,32
    27bc:	8d8fe06f          	j	894 <analog_write_reg8>
    27c0:	04600593          	li	a1,70
    27c4:	00100513          	li	a0,1
    27c8:	8ccfe0ef          	jal	ra,894 <analog_write_reg8>
    27cc:	fcdff06f          	j	2798 <pm_wait_bbpll_done+0x7c>
    27d0:	04300593          	li	a1,67
    27d4:	00100513          	li	a0,1
    27d8:	8bcfe0ef          	jal	ra,894 <analog_write_reg8>
    27dc:	fbdff06f          	j	2798 <pm_wait_bbpll_done+0x7c>

000027e0 <pm_sleep_start>:
    27e0:	1101                	c.addi	sp,-32
    27e2:	baffa72b          	lwgp	a4,-1108 # 803ac <g_chip_version>
    27e6:	000006b7          	lui	a3,0x0
    27ea:	ce06                	c.swsp	ra,28(sp)
    27ec:	cc22                	c.swsp	s0,24(sp)
    27ee:	ca26                	c.swsp	s1,20(sp)
    27f0:	0ff00793          	li	a5,255
    27f4:	1906c583          	lbu	a1,400(a3) # 190 <g_pm_suspend_power_cfg>
    27f8:	00f71a63          	bne	a4,a5,280c <pm_sleep_start+0x2c>
    27fc:	0fe5f593          	andi	a1,a1,254
    2800:	07d00513          	li	a0,125
    2804:	890fe0ef          	jal	ra,894 <analog_write_reg8>
    2808:	00c0006f          	j	2814 <pm_sleep_start+0x34>
    280c:	07d00513          	li	a0,125
    2810:	884fe0ef          	jal	ra,894 <analog_write_reg8>
    2814:	801406b7          	lui	a3,0x80140
    2818:	10268783          	lb	a5,258(a3) # 80140102 <_DATA_LMA_START+0x60131d42>
    281c:	fe07fe5b          	bbs	a5,0,2818 <pm_sleep_start+0x38>
    2820:	10168703          	lb	a4,257(a3)
    2824:	801407b7          	lui	a5,0x80140
    2828:	0ff77713          	andi	a4,a4,255
    282c:	01076713          	ori	a4,a4,16
    2830:	10e680a3          	sb	a4,257(a3)
    2834:	32878703          	lb	a4,808(a5) # 80140328 <_DATA_LMA_START+0x60131f68>
    2838:	be377e5b          	bbc	a4,3,2834 <pm_sleep_start+0x54>
    283c:	10178703          	lb	a4,257(a5)
    2840:	80140437          	lui	s0,0x80140
    2844:	0fd77713          	andi	a4,a4,253
    2848:	10e780a3          	sb	a4,257(a5)
    284c:	10178703          	lb	a4,257(a5)
    2850:	0ef77713          	andi	a4,a4,239
    2854:	10e780a3          	sb	a4,257(a5)
    2858:	fb900713          	li	a4,-71
    285c:	10e78023          	sb	a4,256(a5)
    2860:	10240783          	lb	a5,258(s0) # 80140102 <_DATA_LMA_START+0x60131d42>
    2864:	fe07fe5b          	bbs	a5,0,2860 <pm_sleep_start+0x80>
    2868:	10140783          	lb	a5,257(s0)
    286c:	00b00513          	li	a0,11
    2870:	0ff7f793          	andi	a5,a5,255
    2874:	0107e793          	ori	a5,a5,16
    2878:	10f400a3          	sb	a5,257(s0)
    287c:	320404a3          	sb	zero,809(s0)
    2880:	fc5fd0ef          	jal	ra,844 <analog_read_reg8>
    2884:	0fc57593          	andi	a1,a0,252
    2888:	00b00513          	li	a0,11
    288c:	808fe0ef          	jal	ra,894 <analog_write_reg8>
    2890:	08100513          	li	a0,129
    2894:	fb1fd0ef          	jal	ra,844 <analog_read_reg8>
    2898:	f8056593          	ori	a1,a0,-128
    289c:	0ff5f593          	andi	a1,a1,255
    28a0:	08100513          	li	a0,129
    28a4:	ff1fd0ef          	jal	ra,894 <analog_write_reg8>
    28a8:	f8000793          	li	a5,-128
    28ac:	1ef407a3          	sb	a5,495(s0)
    28b0:	03f00493          	li	s1,63
    28b4:	00012423          	sw	zero,8(sp)
    28b8:	47a2                	c.lwsp	a5,8(sp)
    28ba:	00f4e763          	bltu	s1,a5,28c8 <pm_sleep_start+0xe8>
    28be:	0001                	c.nop
    28c0:	47a2                	c.lwsp	a5,8(sp)
    28c2:	0785                	c.addi	a5,1
    28c4:	c43e                	c.swsp	a5,8(sp)
    28c6:	bfcd                	c.j	28b8 <pm_sleep_start+0xd8>
    28c8:	08100513          	li	a0,129
    28cc:	f79fd0ef          	jal	ra,844 <analog_read_reg8>
    28d0:	07f57593          	andi	a1,a0,127
    28d4:	08100513          	li	a0,129
    28d8:	fbdfd0ef          	jal	ra,894 <analog_write_reg8>
    28dc:	00b00513          	li	a0,11
    28e0:	f65fd0ef          	jal	ra,844 <analog_read_reg8>
    28e4:	00356593          	ori	a1,a0,3
    28e8:	0ff5f593          	andi	a1,a1,255
    28ec:	00b00513          	li	a0,11
    28f0:	fa5fd0ef          	jal	ra,894 <analog_write_reg8>
    28f4:	08000593          	li	a1,128
    28f8:	07d00513          	li	a0,125
    28fc:	f99fd0ef          	jal	ra,894 <analog_write_reg8>
    2900:	801407b7          	lui	a5,0x80140
    2904:	329784a3          	sb	s1,809(a5) # 80140329 <_DATA_LMA_START+0x60131f69>
    2908:	10178683          	lb	a3,257(a5)
    290c:	80140737          	lui	a4,0x80140
    2910:	0ef6f693          	andi	a3,a3,239
    2914:	10d780a3          	sb	a3,257(a5)
    2918:	fab00693          	li	a3,-85
    291c:	10d78023          	sb	a3,256(a5)
    2920:	10270783          	lb	a5,258(a4) # 80140102 <_DATA_LMA_START+0x60131d42>
    2924:	fe07fe5b          	bbs	a5,0,2920 <pm_sleep_start+0x140>
    2928:	10170783          	lb	a5,257(a4)
    292c:	12b00693          	li	a3,299
    2930:	0ff7f793          	andi	a5,a5,255
    2934:	0107e793          	ori	a5,a5,16
    2938:	10f700a3          	sb	a5,257(a4)
    293c:	00012623          	sw	zero,12(sp)
    2940:	47b2                	c.lwsp	a5,12(sp)
    2942:	00f6e763          	bltu	a3,a5,2950 <pm_sleep_start+0x170>
    2946:	0001                	c.nop
    2948:	47b2                	c.lwsp	a5,12(sp)
    294a:	0785                	c.addi	a5,1
    294c:	c63e                	c.swsp	a5,12(sp)
    294e:	bfcd                	c.j	2940 <pm_sleep_start+0x160>
    2950:	08800513          	li	a0,136
    2954:	ef1fd0ef          	jal	ra,844 <analog_read_reg8>
    2958:	be757c5b          	bbc	a0,7,2950 <pm_sleep_start+0x170>
    295c:	08800513          	li	a0,136
    2960:	ee5fd0ef          	jal	ra,844 <analog_read_reg8>
    2964:	be757c5b          	bbc	a0,7,295c <pm_sleep_start+0x17c>
    2968:	08800513          	li	a0,136
    296c:	ed9fd0ef          	jal	ra,844 <analog_read_reg8>
    2970:	be757c5b          	bbc	a0,7,2968 <pm_sleep_start+0x188>
    2974:	4462                	c.lwsp	s0,24(sp)
    2976:	40f2                	c.lwsp	ra,28(sp)
    2978:	44d2                	c.lwsp	s1,20(sp)
    297a:	6105                	c.addi16sp	sp,32
    297c:	da1ff06f          	j	271c <pm_wait_bbpll_done>

00002980 <pm_stimer_recover>:
    2980:	1141                	c.addi	sp,-16
    2982:	80140737          	lui	a4,0x80140
    2986:	c606                	c.swsp	ra,12(sp)
    2988:	00200793          	li	a5,2
    298c:	20f70c23          	sb	a5,536(a4) # 80140218 <_DATA_LMA_START+0x60131e58>
    2990:	20a70783          	lb	a5,522(a4)
    2994:	0ff7f793          	andi	a5,a5,255
    2998:	00c7e793          	ori	a5,a5,12
    299c:	20f70523          	sb	a5,522(a4)
    29a0:	c14fe0ef          	jal	ra,db4 <clock_get_32k_tick>
    29a4:	000007b7          	lui	a5,0x0
    29a8:	19078713          	addi	a4,a5,400 # 190 <g_pm_suspend_power_cfg>
    29ac:	00174703          	lbu	a4,1(a4)
    29b0:	19078793          	addi	a5,a5,400
    29b4:	cf01                	c.beqz	a4,29cc <pm_stimer_recover+0x4c>
    29b6:	47d8                	c.lw	a4,12(a5)
    29b8:	5bd0                	c.lw	a2,52(a5)
    29ba:	40e50733          	sub	a4,a0,a4
    29be:	4794                	c.lw	a3,8(a5)
    29c0:	0705                	c.addi	a4,1
    29c2:	8315                	c.srli	a4,0x5
    29c4:	c4c716ff          	maddr32	a3,a4,a2
    29c8:	c3d4                	c.sw	a3,4(a5)
    29ca:	a829                	c.j	29e4 <pm_stimer_recover+0x64>
    29cc:	47d8                	c.lw	a4,12(a5)
    29ce:	5bd4                	c.lw	a3,52(a5)
    29d0:	40e50733          	sub	a4,a0,a4
    29d4:	0705                	c.addi	a4,1
    29d6:	02d70733          	mul	a4,a4,a3
    29da:	4794                	c.lw	a3,8(a5)
    29dc:	8315                	c.srli	a4,0x5
    29de:	9736                	c.add	a4,a3
    29e0:	00e7a223          	sw	a4,4(a5)
    29e4:	47d8                	c.lw	a4,12(a5)
    29e6:	43d4                	c.lw	a3,4(a5)
    29e8:	40e50733          	sub	a4,a0,a4
    29ec:	0705                	c.addi	a4,1
    29ee:	0505                	c.addi	a0,1
    29f0:	0685                	c.addi	a3,1
    29f2:	d3c8                	c.sw	a0,36(a5)
    29f4:	02e7a023          	sw	a4,32(a5)
    29f8:	80140637          	lui	a2,0x80140
    29fc:	801407b7          	lui	a5,0x80140
    2a00:	20d7a023          	sw	a3,512(a5) # 80140200 <_DATA_LMA_START+0x60131e40>
    2a04:	20b60783          	lb	a5,523(a2) # 8014020b <_DATA_LMA_START+0x60131e4b>
    2a08:	be77fe5b          	bbc	a5,7,2a04 <pm_stimer_recover+0x84>
    2a0c:	20060c23          	sb	zero,536(a2)
    2a10:	40b2                	c.lwsp	ra,12(sp)
    2a12:	0141                	c.addi	sp,16
    2a14:	00008067          	ret

00002a18 <pm_sleep_wakeup_ram.constprop.1>:
    2a18:	7179                	c.addi16sp	sp,-48
    2a1a:	ce4e                	c.swsp	s3,28(sp)
    2a1c:	89aa                	c.mv	s3,a0
    2a1e:	d606                	c.swsp	ra,44(sp)
    2a20:	d422                	c.swsp	s0,40(sp)
    2a22:	d226                	c.swsp	s1,36(sp)
    2a24:	d04a                	c.swsp	s2,32(sp)
    2a26:	cc52                	c.swsp	s4,24(sp)
    2a28:	ca56                	c.swsp	s5,20(sp)
    2a2a:	c85a                	c.swsp	s6,16(sp)
    2a2c:	01712623          	sw	s7,12(sp)
    2a30:	30002973          	csrr	s2,mstatus
    2a34:	00897913          	andi	s2,s2,8
    2a38:	00090663          	beqz	s2,2a44 <pm_sleep_wakeup_ram.constprop.1+0x2c>
    2a3c:	300477f3          	csrrci	a5,mstatus,8
    2a40:	0ff0000f          	fence
    2a44:	0cc2278b          	lbugp	a5,4300 # 818cc <g_clk_32k_src>
    2a48:	04079863          	bnez	a5,2a98 <pm_sleep_wakeup_ram.constprop.1+0x80>
    2a4c:	801407b7          	lui	a5,0x80140
    2a50:	2147a703          	lw	a4,532(a5) # 80140214 <_DATA_LMA_START+0x60131e54>
    2a54:	df75                	c.beqz	a4,2a50 <pm_sleep_wakeup_ram.constprop.1+0x38>
    2a56:	00000737          	lui	a4,0x0
    2a5a:	19070613          	addi	a2,a4,400 # 190 <g_pm_suspend_power_cfg>
    2a5e:	2147a783          	lw	a5,532(a5)
    2a62:	4e54                	c.lw	a3,28(a2)
    2a64:	d65c                	c.sw	a5,44(a2)
    2a66:	19070713          	addi	a4,a4,400
    2a6a:	0792                	c.slli	a5,0x4
    2a6c:	ca91                	c.beqz	a3,2a80 <pm_sleep_wakeup_ram.constprop.1+0x68>
    2a6e:	03074583          	lbu	a1,48(a4)
    2a72:	4611                	c.li	a2,4
    2a74:	8f95                	c.sub	a5,a3
    2a76:	8e0d                	c.sub	a2,a1
    2a78:	40c7d7b3          	sra	a5,a5,a2
    2a7c:	00d787b3          	add	a5,a5,a3
    2a80:	cf5c                	c.sw	a5,28(a4)
    2a82:	4f5c                	c.lw	a5,28(a4)
    2a84:	4b14                	c.lw	a3,16(a4)
    2a86:	8791                	c.srai	a5,0x4
    2a88:	02d786b3          	mul	a3,a5,a3
    2a8c:	86c9                	c.srai	a3,0x12
    2a8e:	97b6                	c.add	a5,a3
    2a90:	0786                	c.slli	a5,0x1
    2a92:	db5c                	c.sw	a5,52(a4)
    2a94:	0140006f          	j	2aa8 <pm_sleep_wakeup_ram.constprop.1+0x90>
    2a98:	000047b7          	lui	a5,0x4
    2a9c:	00000737          	lui	a4,0x0
    2aa0:	d0978793          	addi	a5,a5,-759 # 3d09 <_RAMCODE_VMA_END+0xdad>
    2aa4:	1cf72223          	sw	a5,452(a4) # 1c4 <g_pm_tick_32k_calib>
    2aa8:	801404b7          	lui	s1,0x80140
    2aac:	2004aa03          	lw	s4,512(s1) # 80140200 <_DATA_LMA_START+0x60131e40>
    2ab0:	e00007b7          	lui	a5,0xe0000
    2ab4:	41498a33          	sub	s4,s3,s4
    2ab8:	0347f063          	bgeu	a5,s4,2ad8 <pm_sleep_wakeup_ram.constprop.1+0xc0>
    2abc:	00090663          	beqz	s2,2ac8 <pm_sleep_wakeup_ram.constprop.1+0xb0>
    2ac0:	30092973          	csrrs	s2,mstatus,s2
    2ac4:	0ff0000f          	fence
    2ac8:	06400513          	li	a0,100
    2acc:	d79fd0ef          	jal	ra,844 <analog_read_reg8>
    2ad0:	01f57513          	andi	a0,a0,31
    2ad4:	2940006f          	j	2d68 <pm_sleep_wakeup_ram.constprop.1+0x350>
    2ad8:	00000437          	lui	s0,0x0
    2adc:	19040793          	addi	a5,s0,400 # 190 <g_pm_suspend_power_cfg>
    2ae0:	03e79783          	lh	a5,62(a5) # e000003e <_DATA_LMA_START+0xbfff1c7e>
    2ae4:	19040413          	addi	s0,s0,400
    2ae8:	1137a7db          	bfoz	a5,a5,4,19
    2aec:	04fa7063          	bgeu	s4,a5,2b2c <pm_sleep_wakeup_ram.constprop.1+0x114>
    2af0:	01f00593          	li	a1,31
    2af4:	06400513          	li	a0,100
    2af8:	801409b7          	lui	s3,0x80140
    2afc:	2004a403          	lw	s0,512(s1)
    2b00:	d95fd0ef          	jal	ra,894 <analog_write_reg8>
    2b04:	06400513          	li	a0,100
    2b08:	d3dfd0ef          	jal	ra,844 <analog_read_reg8>
    2b0c:	2009a783          	lw	a5,512(s3) # 80140200 <_DATA_LMA_START+0x60131e40>
    2b10:	897d                	c.andi	a0,31
    2b12:	8f81                	c.sub	a5,s0
    2b14:	0147f463          	bgeu	a5,s4,2b1c <pm_sleep_wakeup_ram.constprop.1+0x104>
    2b18:	fe0506e3          	beqz	a0,2b04 <pm_sleep_wakeup_ram.constprop.1+0xec>
    2b1c:	24090663          	beqz	s2,2d68 <pm_sleep_wakeup_ram.constprop.1+0x350>
    2b20:	30092973          	csrrs	s2,mstatus,s2
    2b24:	0ff0000f          	fence
    2b28:	2400006f          	j	2d68 <pm_sleep_wakeup_ram.constprop.1+0x350>
    2b2c:	1e848a03          	lb	s4,488(s1)
    2b30:	03442b83          	lw	s7,52(s0)
    2b34:	00fa7793          	andi	a5,s4,15
    2b38:	1ef48423          	sb	a5,488(s1)
    2b3c:	1d848a83          	lb	s5,472(s1)
    2b40:	0f8af793          	andi	a5,s5,248
    2b44:	1cf48c23          	sb	a5,472(s1)
    2b48:	00100793          	li	a5,1
    2b4c:	20f48c23          	sb	a5,536(s1)
    2b50:	20a48783          	lb	a5,522(s1)
    2b54:	0f77f793          	andi	a5,a5,247
    2b58:	20f48523          	sb	a5,522(s1)
    2b5c:	a58fe0ef          	jal	ra,db4 <clock_get_32k_tick>
    2b60:	2004a703          	lw	a4,512(s1)
    2b64:	20b48783          	lb	a5,523(s1)
    2b68:	5054                	c.lw	a3,36(s0)
    2b6a:	0ff7f793          	andi	a5,a5,255
    2b6e:	0027e793          	ori	a5,a5,2
    2b72:	c028                	c.sw	a0,64(s0)
    2b74:	c058                	c.sw	a4,4(s0)
    2b76:	03044603          	lbu	a2,48(s0)
    2b7a:	40d506b3          	sub	a3,a0,a3
    2b7e:	20f485a3          	sb	a5,523(s1)
    2b82:	d414                	c.sw	a3,40(s0)
    2b84:	e215                	c.bnez	a2,2ba8 <pm_sleep_wakeup_ram.constprop.1+0x190>
    2b86:	441c                	c.lw	a5,8(s0)
    2b88:	c385                	c.beqz	a5,2ba8 <pm_sleep_wakeup_ram.constprop.1+0x190>
    2b8a:	04444783          	lbu	a5,68(s0)
    2b8e:	ef89                	c.bnez	a5,2ba8 <pm_sleep_wakeup_ram.constprop.1+0x190>
    2b90:	00c42783          	lw	a5,12(s0)
    2b94:	000276b7          	lui	a3,0x27
    2b98:	40f507b3          	sub	a5,a0,a5
    2b9c:	6c07a7db          	bfoz	a5,a5,27,0
    2ba0:	10068693          	addi	a3,a3,256 # 27100 <BIN_SIZE+0x189fa>
    2ba4:	00f6f863          	bgeu	a3,a5,2bb4 <pm_sleep_wakeup_ram.constprop.1+0x19c>
    2ba8:	00176713          	ori	a4,a4,1
    2bac:	02040823          	sb	zero,48(s0)
    2bb0:	c448                	c.sw	a0,12(s0)
    2bb2:	c418                	c.sw	a4,8(s0)
    2bb4:	02000593          	li	a1,32
    2bb8:	04b00513          	li	a0,75
    2bbc:	cd9fd0ef          	jal	ra,894 <analog_write_reg8>
    2bc0:	01f00593          	li	a1,31
    2bc4:	06400513          	li	a0,100
    2bc8:	ccdfd0ef          	jal	ra,894 <analog_write_reg8>
    2bcc:	03000593          	li	a1,48
    2bd0:	07e00513          	li	a0,126
    2bd4:	cc1fd0ef          	jal	ra,894 <analog_write_reg8>
    2bd8:	0f900593          	li	a1,249
    2bdc:	04d00513          	li	a0,77
    2be0:	cb5fd0ef          	jal	ra,894 <analog_write_reg8>
    2be4:	00100593          	li	a1,1
    2be8:	07f00513          	li	a0,127
    2bec:	ca9fd0ef          	jal	ra,894 <analog_write_reg8>
    2bf0:	03c41783          	lh	a5,60(s0)
    2bf4:	0cc2270b          	lbugp	a4,4300 # 818cc <g_clk_32k_src>
    2bf8:	1137a7db          	bfoz	a5,a5,4,19
    2bfc:	40f984b3          	sub	s1,s3,a5
    2c00:	00071a63          	bnez	a4,2c14 <pm_sleep_wakeup_ram.constprop.1+0x1fc>
    2c04:	0ee00593          	li	a1,238
    2c08:	04c00513          	li	a0,76
    2c0c:	c89fd0ef          	jal	ra,894 <analog_write_reg8>
    2c10:	0100006f          	j	2c20 <pm_sleep_wakeup_ram.constprop.1+0x208>
    2c14:	0ed00593          	li	a1,237
    2c18:	04c00513          	li	a0,76
    2c1c:	c79fd0ef          	jal	ra,894 <analog_write_reg8>
    2c20:	04841583          	lh	a1,72(s0)
    2c24:	04000513          	li	a0,64
    2c28:	0ff5f593          	andi	a1,a1,255
    2c2c:	c69fd0ef          	jal	ra,894 <analog_write_reg8>
    2c30:	441c                	c.lw	a5,8(s0)
    2c32:	07ff0737          	lui	a4,0x7ff0
    2c36:	40f487b3          	sub	a5,s1,a5
    2c3a:	00f77763          	bgeu	a4,a5,2c48 <pm_sleep_wakeup_ram.constprop.1+0x230>
    2c3e:	4705                	c.li	a4,1
    2c40:	00e400a3          	sb	a4,1(s0)
    2c44:	0080006f          	j	2c4c <pm_sleep_wakeup_ram.constprop.1+0x234>
    2c48:	000400a3          	sb	zero,1(s0)
    2c4c:	00144683          	lbu	a3,1(s0)
    2c50:	4448                	c.lw	a0,12(s0)
    2c52:	5858                	c.lw	a4,52(s0)
    2c54:	c691                	c.beqz	a3,2c60 <pm_sleep_wakeup_ram.constprop.1+0x248>
    2c56:	02e7d7b3          	divu	a5,a5,a4
    2c5a:	0796                	c.slli	a5,0x5
    2c5c:	953e                	c.add	a0,a5
    2c5e:	a809                	c.j	2c70 <pm_sleep_wakeup_ram.constprop.1+0x258>
    2c60:	001bdb93          	srli	s7,s7,0x1
    2c64:	0796                	c.slli	a5,0x5
    2c66:	97de                	c.add	a5,s7
    2c68:	02e7d7b3          	divu	a5,a5,a4
    2c6c:	00f50533          	add	a0,a0,a5
    2c70:	974fe0ef          	jal	ra,de4 <clock_set_32k_tick>
    2c74:	06400513          	li	a0,100
    2c78:	bcdfd0ef          	jal	ra,844 <analog_read_reg8>
    2c7c:	01f57513          	andi	a0,a0,31
    2c80:	e901                	c.bnez	a0,2c90 <pm_sleep_wakeup_ram.constprop.1+0x278>
    2c82:	3eb9                	c.jal	27e0 <pm_sleep_start>
    2c84:	00100593          	li	a1,1
    2c88:	07f00513          	li	a0,127
    2c8c:	c09fd0ef          	jal	ra,894 <analog_write_reg8>
    2c90:	80140737          	lui	a4,0x80140
    2c94:	02000793          	li	a5,32
    2c98:	1ef707a3          	sb	a5,495(a4) # 801401ef <_DATA_LMA_START+0x60131e2f>
    2c9c:	00200793          	li	a5,2
    2ca0:	20f70c23          	sb	a5,536(a4)
    2ca4:	20a70783          	lb	a5,522(a4)
    2ca8:	0ff7f793          	andi	a5,a5,255
    2cac:	00c7e793          	ori	a5,a5,12
    2cb0:	20f70523          	sb	a5,522(a4)
    2cb4:	900fe0ef          	jal	ra,db4 <clock_get_32k_tick>
    2cb8:	00144783          	lbu	a5,1(s0)
    2cbc:	cf81                	c.beqz	a5,2cd4 <pm_sleep_wakeup_ram.constprop.1+0x2bc>
    2cbe:	445c                	c.lw	a5,12(s0)
    2cc0:	5854                	c.lw	a3,52(s0)
    2cc2:	40f507b3          	sub	a5,a0,a5
    2cc6:	4418                	c.lw	a4,8(s0)
    2cc8:	0785                	c.addi	a5,1
    2cca:	8395                	c.srli	a5,0x5
    2ccc:	c4d7977f          	maddr32	a4,a5,a3
    2cd0:	c058                	c.sw	a4,4(s0)
    2cd2:	a829                	c.j	2cec <pm_sleep_wakeup_ram.constprop.1+0x2d4>
    2cd4:	445c                	c.lw	a5,12(s0)
    2cd6:	5858                	c.lw	a4,52(s0)
    2cd8:	40f507b3          	sub	a5,a0,a5
    2cdc:	0785                	c.addi	a5,1
    2cde:	02e787b3          	mul	a5,a5,a4
    2ce2:	4418                	c.lw	a4,8(s0)
    2ce4:	8395                	c.srli	a5,0x5
    2ce6:	97ba                	c.add	a5,a4
    2ce8:	00f42223          	sw	a5,4(s0)
    2cec:	445c                	c.lw	a5,12(s0)
    2cee:	4054                	c.lw	a3,4(s0)
    2cf0:	40f507b3          	sub	a5,a0,a5
    2cf4:	0785                	c.addi	a5,1
    2cf6:	0505                	c.addi	a0,1
    2cf8:	d01c                	c.sw	a5,32(s0)
    2cfa:	0685                	c.addi	a3,1
    2cfc:	02a42223          	sw	a0,36(s0)
    2d00:	801407b7          	lui	a5,0x80140
    2d04:	80140737          	lui	a4,0x80140
    2d08:	20d7a023          	sw	a3,512(a5) # 80140200 <_DATA_LMA_START+0x60131e40>
    2d0c:	20b70783          	lb	a5,523(a4) # 8014020b <_DATA_LMA_START+0x60131e4b>
    2d10:	be77fe5b          	bbc	a5,7,2d0c <pm_sleep_wakeup_ram.constprop.1+0x2f4>
    2d14:	20070c23          	sb	zero,536(a4)
    2d18:	1d570c23          	sb	s5,472(a4)
    2d1c:	06400513          	li	a0,100
    2d20:	1f470423          	sb	s4,488(a4)
    2d24:	b21fd0ef          	jal	ra,844 <analog_read_reg8>
    2d28:	bb1f970b          	addigp	a4,-1104 # 803b0 <g_pm_status_info>
    2d2c:	00a700a3          	sb	a0,1(a4)
    2d30:	bb1f978b          	addigp	a5,-1104 # 803b0 <g_pm_status_info>
    2d34:	00157c5b          	bbc	a0,1,2d4c <pm_sleep_wakeup_ram.constprop.1+0x334>
    2d38:	80140637          	lui	a2,0x80140
    2d3c:	400006b7          	lui	a3,0x40000
    2d40:	20062703          	lw	a4,512(a2) # 80140200 <_DATA_LMA_START+0x60131e40>
    2d44:	41370733          	sub	a4,a4,s3
    2d48:	fee6ece3          	bltu	a3,a4,2d40 <pm_sleep_wakeup_ram.constprop.1+0x328>
    2d4c:	00090663          	beqz	s2,2d58 <pm_sleep_wakeup_ram.constprop.1+0x340>
    2d50:	30092973          	csrrs	s2,mstatus,s2
    2d54:	0ff0000f          	fence
    2d58:	0017c783          	lbu	a5,1(a5)
    2d5c:	10000513          	li	a0,256
    2d60:	c781                	c.beqz	a5,2d68 <pm_sleep_wakeup_ram.constprop.1+0x350>
    2d62:	40000537          	lui	a0,0x40000
    2d66:	8d5d                	c.or	a0,a5
    2d68:	50b2                	c.lwsp	ra,44(sp)
    2d6a:	5422                	c.lwsp	s0,40(sp)
    2d6c:	5492                	c.lwsp	s1,36(sp)
    2d6e:	5902                	c.lwsp	s2,32(sp)
    2d70:	49f2                	c.lwsp	s3,28(sp)
    2d72:	4a62                	c.lwsp	s4,24(sp)
    2d74:	4ad2                	c.lwsp	s5,20(sp)
    2d76:	4b42                	c.lwsp	s6,16(sp)
    2d78:	4bb2                	c.lwsp	s7,12(sp)
    2d7a:	6145                	c.addi16sp	sp,48
    2d7c:	00008067          	ret

00002d80 <plic_exit_critical_sec>:
    2d80:	000007b7          	lui	a5,0x0
    2d84:	19078793          	addi	a5,a5,400 # 190 <g_pm_suspend_power_cfg>
    2d88:	04c78783          	lb	a5,76(a5)
    2d8c:	0ff7f793          	andi	a5,a5,255
    2d90:	c795                	c.beqz	a5,2dbc <plic_exit_critical_sec+0x3c>
    2d92:	c50d                	c.beqz	a0,2dbc <plic_exit_critical_sec+0x3c>
    2d94:	300027f3          	csrr	a5,mstatus
    2d98:	8ba1                	c.andi	a5,8
    2d9a:	0ff5f593          	andi	a1,a1,255
    2d9e:	c78d                	c.beqz	a5,2dc8 <plic_exit_critical_sec+0x48>
    2da0:	30047773          	csrrci	a4,mstatus,8
    2da4:	0ff0000f          	fence
    2da8:	e4200737          	lui	a4,0xe4200
    2dac:	c30c                	c.sw	a1,0(a4)
    2dae:	0ff0000f          	fence
    2db2:	3007a7f3          	csrrs	a5,mstatus,a5
    2db6:	0ff0000f          	fence
    2dba:	8082                	c.jr	ra
    2dbc:	cd81                	c.beqz	a1,2dd4 <plic_exit_critical_sec+0x54>
    2dbe:	3005a5f3          	csrrs	a1,mstatus,a1
    2dc2:	0ff0000f          	fence
    2dc6:	8082                	c.jr	ra
    2dc8:	e42007b7          	lui	a5,0xe4200
    2dcc:	00b7a023          	sw	a1,0(a5) # e4200000 <_DATA_LMA_START+0xc41f1c40>
    2dd0:	0ff0000f          	fence
    2dd4:	00008067          	ret

00002dd8 <plic_enter_critical_sec>:
    2dd8:	000007b7          	lui	a5,0x0
    2ddc:	19078793          	addi	a5,a5,400 # 190 <g_pm_suspend_power_cfg>
    2de0:	04c78783          	lb	a5,76(a5)
    2de4:	0ff7f793          	andi	a5,a5,255
    2de8:	cb85                	c.beqz	a5,2e18 <plic_enter_critical_sec+0x40>
    2dea:	c51d                	c.beqz	a0,2e18 <plic_enter_critical_sec+0x40>
    2dec:	e4200737          	lui	a4,0xe4200
    2df0:	4308                	c.lw	a0,0(a4)
    2df2:	04b57163          	bgeu	a0,a1,2e34 <plic_enter_critical_sec+0x5c>
    2df6:	300027f3          	csrr	a5,mstatus
    2dfa:	8ba1                	c.andi	a5,8
    2dfc:	cb85                	c.beqz	a5,2e2c <plic_enter_critical_sec+0x54>
    2dfe:	300476f3          	csrrci	a3,mstatus,8
    2e02:	0ff0000f          	fence
    2e06:	c30c                	c.sw	a1,0(a4)
    2e08:	0ff0000f          	fence
    2e0c:	3007a7f3          	csrrs	a5,mstatus,a5
    2e10:	0ff0000f          	fence
    2e14:	00008067          	ret
    2e18:	30002573          	csrr	a0,mstatus
    2e1c:	8921                	c.andi	a0,8
    2e1e:	c919                	c.beqz	a0,2e34 <plic_enter_critical_sec+0x5c>
    2e20:	300477f3          	csrrci	a5,mstatus,8
    2e24:	0ff0000f          	fence
    2e28:	00008067          	ret
    2e2c:	00b72023          	sw	a1,0(a4) # e4200000 <_DATA_LMA_START+0xc41f1c40>
    2e30:	0ff0000f          	fence
    2e34:	00008067          	ret

00002e38 <rf_set_rxmode>:
    2e38:	801417b7          	lui	a5,0x80141
    2e3c:	04500713          	li	a4,69
    2e40:	a0e78123          	sb	a4,-1534(a5) # 80140a02 <_DATA_LMA_START+0x60132642>
    2e44:	c2078703          	lb	a4,-992(a5)
    2e48:	0ff77713          	andi	a4,a4,255
    2e4c:	00876713          	ori	a4,a4,8
    2e50:	c2e78023          	sb	a4,-992(a5)
    2e54:	a0278703          	lb	a4,-1534(a5)
    2e58:	0ff77713          	andi	a4,a4,255
    2e5c:	02076713          	ori	a4,a4,32
    2e60:	a0e78123          	sb	a4,-1534(a5)
    2e64:	82878703          	lb	a4,-2008(a5)
    2e68:	0ff77713          	andi	a4,a4,255
    2e6c:	00176713          	ori	a4,a4,1
    2e70:	82e78423          	sb	a4,-2008(a5)
    2e74:	00008067          	ret

00002e78 <rf_start_stx>:
    2e78:	000a07b7          	lui	a5,0xa0
    2e7c:	00f57663          	bgeu	a0,a5,2e88 <rf_start_stx+0x10>
    2e80:	c01807b7          	lui	a5,0xc0180
    2e84:	00f50533          	add	a0,a0,a5
    2e88:	801007b7          	lui	a5,0x80100
    2e8c:	44a7a423          	sw	a0,1096(a5) # 80100448 <_DATA_LMA_START+0x600f2088>
    2e90:	80141737          	lui	a4,0x80141
    2e94:	a0b72c23          	sw	a1,-1512(a4) # 80140a18 <_DATA_LMA_START+0x60132658>
    2e98:	a1670783          	lb	a5,-1514(a4)
    2e9c:	0ff7f793          	andi	a5,a5,255
    2ea0:	0047e793          	ori	a5,a5,4
    2ea4:	a0f70b23          	sb	a5,-1514(a4)
    2ea8:	f8500793          	li	a5,-123
    2eac:	a0f70023          	sb	a5,-1536(a4)
    2eb0:	00008067          	ret

00002eb4 <rf_set_chn>:
    2eb4:	6685                	c.lui	a3,0x1
    2eb6:	96068793          	addi	a5,a3,-1696 # 960 <analog_write_reg16+0x34>
    2eba:	953e                	c.add	a0,a5
    2ebc:	9d768793          	addi	a5,a3,-1577
    2ec0:	02000713          	li	a4,32
    2ec4:	04a7c263          	blt	a5,a0,2f08 <rf_set_chn+0x54>
    2ec8:	9be68793          	addi	a5,a3,-1602
    2ecc:	04000713          	li	a4,64
    2ed0:	02a7cc63          	blt	a5,a0,2f08 <rf_set_chn+0x54>
    2ed4:	9a068793          	addi	a5,a3,-1632
    2ed8:	06000713          	li	a4,96
    2edc:	02a7e663          	bltu	a5,a0,2f08 <rf_set_chn+0x54>
    2ee0:	98268793          	addi	a5,a3,-1662
    2ee4:	f8000713          	li	a4,-128
    2ee8:	02a7e063          	bltu	a5,a0,2f08 <rf_set_chn+0x54>
    2eec:	96468793          	addi	a5,a3,-1692
    2ef0:	fa000713          	li	a4,-96
    2ef4:	00a7ea63          	bltu	a5,a0,2f08 <rf_set_chn+0x54>
    2ef8:	94b68693          	addi	a3,a3,-1717
    2efc:	fe000713          	li	a4,-32
    2f00:	00a6f463          	bgeu	a3,a0,2f08 <rf_set_chn+0x54>
    2f04:	fc000713          	li	a4,-64
    2f08:	801417b7          	lui	a5,0x80141
    2f0c:	bb5f858b          	lbgp	a1,-1100 # 803b4 <g_single_tong_freqoffset>
    2f10:	e4478683          	lb	a3,-444(a5) # 80140e44 <_DATA_LMA_START+0x60132a84>
    2f14:	0ff5f593          	andi	a1,a1,255
    2f18:	0ff6f693          	andi	a3,a3,255
    2f1c:	0016e693          	ori	a3,a3,1
    2f20:	e4d78223          	sb	a3,-444(a5)
    2f24:	e4478603          	lb	a2,-444(a5)
    2f28:	0aa5855b          	lea.h	a0,a1,a0
    2f2c:	047526db          	bfoz	a3,a0,1,7
    2f30:	8a05                	c.andi	a2,1
    2f32:	8ed1                	c.or	a3,a2
    2f34:	e4d78223          	sb	a3,-444(a5)
    2f38:	e4578683          	lb	a3,-443(a5)
    2f3c:	3875255b          	bfoz	a0,a0,14,7
    2f40:	0c06f693          	andi	a3,a3,192
    2f44:	8d55                	c.or	a0,a3
    2f46:	e4a782a3          	sb	a0,-443(a5)
    2f4a:	e2978683          	lb	a3,-471(a5)
    2f4e:	8afd                	c.andi	a3,31
    2f50:	8f55                	c.or	a4,a3
    2f52:	0ff77713          	andi	a4,a4,255
    2f56:	e2e784a3          	sb	a4,-471(a5)
    2f5a:	8082                	c.jr	ra

Disassembly of section .text:

200030c0 <user_init>:
200030c0:	1141                	c.addi	sp,-16
200030c2:	c606                	c.swsp	ra,12(sp)
200030c4:	c422                	c.swsp	s0,8(sp)
200030c6:	80140437          	lui	s0,0x80140
200030ca:	30e40783          	lb	a5,782(s0) # 8014030e <_DATA_LMA_START+0x60131f4e>
200030ce:	0ff7f793          	andi	a5,a5,255
200030d2:	0107e793          	ori	a5,a5,16
200030d6:	30f40723          	sb	a5,782(s0)
200030da:	30a40783          	lb	a5,778(s0)
200030de:	0ef7f793          	andi	a5,a5,239
200030e2:	30f40523          	sb	a5,778(s0)
200030e6:	11000513          	li	a0,272
200030ea:	56f030ef          	jal	ra,20006e58 <gpio_input_dis>
200030ee:	30e40783          	lb	a5,782(s0)
200030f2:	0ff7f793          	andi	a5,a5,255
200030f6:	0207e793          	ori	a5,a5,32
200030fa:	30f40723          	sb	a5,782(s0)
200030fe:	30a40783          	lb	a5,778(s0)
20003102:	0df7f793          	andi	a5,a5,223
20003106:	30f40523          	sb	a5,778(s0)
2000310a:	12000513          	li	a0,288
2000310e:	54b030ef          	jal	ra,20006e58 <gpio_input_dis>
20003112:	30e40783          	lb	a5,782(s0)
20003116:	0ff7f793          	andi	a5,a5,255
2000311a:	0407e793          	ori	a5,a5,64
2000311e:	30f40723          	sb	a5,782(s0)
20003122:	30a40783          	lb	a5,778(s0)
20003126:	0bf7f793          	andi	a5,a5,191
2000312a:	30f40523          	sb	a5,778(s0)
2000312e:	14000513          	li	a0,320
20003132:	527030ef          	jal	ra,20006e58 <gpio_input_dis>
20003136:	30e40783          	lb	a5,782(s0)
2000313a:	f807e793          	ori	a5,a5,-128
2000313e:	0ff7f793          	andi	a5,a5,255
20003142:	30f40723          	sb	a5,782(s0)
20003146:	30a40783          	lb	a5,778(s0)
2000314a:	07f7f793          	andi	a5,a5,127
2000314e:	30f40523          	sb	a5,778(s0)
20003152:	18000513          	li	a0,384
20003156:	503030ef          	jal	ra,20006e58 <gpio_input_dis>
2000315a:	2000e537          	lui	a0,0x2000e
2000315e:	c5050513          	addi	a0,a0,-944 # 2000dc50 <__riscv_restore_0+0xc>
20003162:	663090ef          	jal	ra,2000cfc4 <puts>
20003166:	65a9                	c.lui	a1,0xa
20003168:	0585                	c.addi	a1,1
2000316a:	2000e537          	lui	a0,0x2000e
2000316e:	c5450513          	addi	a0,a0,-940 # 2000dc54 <__riscv_restore_0+0x10>
20003172:	635090ef          	jal	ra,2000cfa6 <printf>
20003176:	7e400593          	li	a1,2020
2000317a:	2000e537          	lui	a0,0x2000e
2000317e:	c6c50513          	addi	a0,a0,-916 # 2000dc6c <__riscv_restore_0+0x28>
20003182:	625090ef          	jal	ra,2000cfa6 <printf>
20003186:	2000e5b7          	lui	a1,0x2000e
2000318a:	c8458593          	addi	a1,a1,-892 # 2000dc84 <__riscv_restore_0+0x40>
2000318e:	2000e537          	lui	a0,0x2000e
20003192:	c9050513          	addi	a0,a0,-880 # 2000dc90 <__riscv_restore_0+0x4c>
20003196:	611090ef          	jal	ra,2000cfa6 <printf>
2000319a:	40b2                	c.lwsp	ra,12(sp)
2000319c:	4422                	c.lwsp	s0,8(sp)
2000319e:	0141                	c.addi	sp,16
200031a0:	00008067          	ret

200031a4 <main_loop>:
200031a4:	1141                	c.addi	sp,-16
200031a6:	c606                	c.swsp	ra,12(sp)
200031a8:	2000e537          	lui	a0,0x2000e
200031ac:	cb850513          	addi	a0,a0,-840 # 2000dcb8 <__riscv_restore_0+0x74>
200031b0:	615090ef          	jal	ra,2000cfc4 <puts>
200031b4:	801407b7          	lui	a5,0x80140
200031b8:	30b78703          	lb	a4,779(a5) # 8014030b <_DATA_LMA_START+0x60131f4b>
200031bc:	01074713          	xori	a4,a4,16
200031c0:	0ff77713          	andi	a4,a4,255
200031c4:	30e785a3          	sb	a4,779(a5)
200031c8:	30b78703          	lb	a4,779(a5)
200031cc:	02074713          	xori	a4,a4,32
200031d0:	0ff77713          	andi	a4,a4,255
200031d4:	30e785a3          	sb	a4,779(a5)
200031d8:	30b78703          	lb	a4,779(a5)
200031dc:	04074713          	xori	a4,a4,64
200031e0:	0ff77713          	andi	a4,a4,255
200031e4:	30e785a3          	sb	a4,779(a5)
200031e8:	30b78703          	lb	a4,779(a5)
200031ec:	f8074713          	xori	a4,a4,-128
200031f0:	0ff77713          	andi	a4,a4,255
200031f4:	30e785a3          	sb	a4,779(a5)
200031f8:	3e800513          	li	a0,1000
200031fc:	dfffe097          	auipc	ra,0xdfffe
20003200:	654080e7          	jalr	1620(ra) # 1850 <delay_ms>
20003204:	40b2                	c.lwsp	ra,12(sp)
20003206:	0141                	c.addi	sp,16
20003208:	8082                	c.jr	ra
	...

2000320c <main>:
2000320c:	1141                	c.addi	sp,-16
2000320e:	c606                	c.swsp	ra,12(sp)
20003210:	4581                	c.li	a1,0
20003212:	4501                	c.li	a0,0
20003214:	7c0080ef          	jal	ra,2000b9d4 <platform_init>
20003218:	4791                	c.li	a5,4
2000321a:	4705                	c.li	a4,1
2000321c:	4685                	c.li	a3,1
2000321e:	4621                	c.li	a2,8
20003220:	4589                	c.li	a1,2
20003222:	6531                	c.lui	a0,0xc
20003224:	04250513          	addi	a0,a0,66 # c042 <_RAMCODE_VMA_END+0x90e6>
20003228:	581020ef          	jal	ra,20005fa8 <clock_init>
2000322c:	e95ff0ef          	jal	ra,200030c0 <user_init>
20003230:	3f95                	c.jal	200031a4 <main_loop>
20003232:	bffd                	c.j	20003230 <main+0x24>
20003234:	0001                	c.nop
	...

20003238 <default_irq_entry>:
20003238:	a001                	c.j	20003238 <default_irq_entry>

2000323a <trap_handler>:
2000323a:	a001                	c.j	2000323a <trap_handler>
2000323c:	0001                	c.nop
	...

20003240 <bt_dbg_set_pin>:
20003240:	00f57793          	andi	a5,a0,15
20003244:	c3d1                	c.beqz	a5,200032c8 <bt_dbg_set_pin+0x88>
20003246:	873e                	c.mv	a4,a5
20003248:	00000793          	li	a5,0
2000324c:	0785                	c.addi	a5,1
2000324e:	0ff7f793          	andi	a5,a5,255
20003252:	8305                	c.srli	a4,0x1
20003254:	ff65                	c.bnez	a4,2000324c <bt_dbg_set_pin+0xc>
20003256:	17fd                	c.addi	a5,-1
20003258:	00179713          	slli	a4,a5,0x1
2000325c:	00300793          	li	a5,3
20003260:	00e797b3          	sll	a5,a5,a4
20003264:	0ff7f793          	andi	a5,a5,255
20003268:	fff7c613          	not	a2,a5
2000326c:	0ff67613          	andi	a2,a2,255
20003270:	00855713          	srli	a4,a0,0x8
20003274:	00300693          	li	a3,3
20003278:	08e6e263          	bltu	a3,a4,200032fc <bt_dbg_set_pin+0xbc>
2000327c:	001406b7          	lui	a3,0x140
20003280:	33068693          	addi	a3,a3,816 # 140330 <FLASH_SIZE+0x40330>
20003284:	0ae685db          	lea.h	a1,a3,a4
20003288:	0f057693          	andi	a3,a0,240
2000328c:	00d036b3          	snez	a3,a3
20003290:	96ae                	c.add	a3,a1
20003292:	800005b7          	lui	a1,0x80000
20003296:	8ecd                	c.or	a3,a1
20003298:	00068803          	lb	a6,0(a3)
2000329c:	01067633          	and	a2,a2,a6
200032a0:	8fd1                	c.or	a5,a2
200032a2:	00f68023          	sb	a5,0(a3)
200032a6:	001407b7          	lui	a5,0x140
200032aa:	30678793          	addi	a5,a5,774 # 140306 <FLASH_SIZE+0x40306>
200032ae:	0ee7875b          	lea.d	a4,a5,a4
200032b2:	8f4d                	c.or	a4,a1
200032b4:	00070683          	lb	a3,0(a4)
200032b8:	fff54793          	not	a5,a0
200032bc:	8ff5                	c.and	a5,a3
200032be:	0ff7f793          	andi	a5,a5,255
200032c2:	00f70023          	sb	a5,0(a4)
200032c6:	8082                	c.jr	ra
200032c8:	0f057793          	andi	a5,a0,240
200032cc:	c795                	c.beqz	a5,200032f8 <bt_dbg_set_pin+0xb8>
200032ce:	1c45275b          	bfoz	a4,a0,7,4
200032d2:	4781                	c.li	a5,0
200032d4:	0785                	c.addi	a5,1
200032d6:	0ff7f793          	andi	a5,a5,255
200032da:	8305                	c.srli	a4,0x1
200032dc:	ff65                	c.bnez	a4,200032d4 <bt_dbg_set_pin+0x94>
200032de:	17fd                	c.addi	a5,-1
200032e0:	00179713          	slli	a4,a5,0x1
200032e4:	478d                	c.li	a5,3
200032e6:	00e797b3          	sll	a5,a5,a4
200032ea:	0ff7f793          	andi	a5,a5,255
200032ee:	fff7c613          	not	a2,a5
200032f2:	0ff67613          	andi	a2,a2,255
200032f6:	bfad                	c.j	20003270 <bt_dbg_set_pin+0x30>
200032f8:	0000006f          	j	200032f8 <bt_dbg_set_pin+0xb8>
200032fc:	001406b7          	lui	a3,0x140
20003300:	35068593          	addi	a1,a3,848 # 140350 <FLASH_SIZE+0x40350>
20003304:	f85ff06f          	j	20003288 <bt_dbg_set_pin+0x48>

20003308 <bt_dbg_set_signal>:
20003308:	77fd                	c.lui	a5,0xfffff
2000330a:	8fe9                	c.and	a5,a0
2000330c:	16078863          	beqz	a5,2000347c <bt_dbg_set_signal+0x174>
20003310:	1141                	c.addi	sp,-16
20003312:	c606                	c.swsp	ra,12(sp)
20003314:	872a                	c.mv	a4,a0
20003316:	6689                	c.lui	a3,0x2
20003318:	0ad50063          	beq	a0,a3,200033b8 <bt_dbg_set_signal+0xb0>
2000331c:	02a6f863          	bgeu	a3,a0,2000334c <bt_dbg_set_signal+0x44>
20003320:	6691                	c.lui	a3,0x4
20003322:	0cd50f63          	beq	a0,a3,20003400 <bt_dbg_set_signal+0xf8>
20003326:	66a1                	c.lui	a3,0x8
20003328:	02d51663          	bne	a0,a3,20003354 <bt_dbg_set_signal+0x4c>
2000332c:	01859793          	slli	a5,a1,0x18
20003330:	810006b7          	lui	a3,0x81000
20003334:	16fd                	c.addi	a3,-1
20003336:	8efd                	c.and	a3,a5
20003338:	10068c63          	beqz	a3,20003450 <bt_dbg_set_signal+0x148>
2000333c:	2000e537          	lui	a0,0x2000e
20003340:	d8850513          	addi	a0,a0,-632 # 2000dd88 <__riscv_restore_0+0x144>
20003344:	481090ef          	jal	ra,2000cfc4 <puts>
20003348:	0000006f          	j	20003348 <bt_dbg_set_signal+0x40>
2000334c:	000016b7          	lui	a3,0x1
20003350:	02d50663          	beq	a0,a3,2000337c <bt_dbg_set_signal+0x74>
20003354:	801406b7          	lui	a3,0x80140
20003358:	35469783          	lh	a5,852(a3) # 80140354 <_DATA_LMA_START+0x60131f94>
2000335c:	3c07a7db          	bfoz	a5,a5,15,0
20003360:	8f5d                	c.or	a4,a5
20003362:	34e69a23          	sh	a4,852(a3)
20003366:	35469783          	lh	a5,852(a3)
2000336a:	3c07a7db          	bfoz	a5,a5,15,0
2000336e:	1007e793          	ori	a5,a5,256
20003372:	34f69a23          	sh	a5,852(a3)
20003376:	40b2                	c.lwsp	ra,12(sp)
20003378:	0141                	c.addi	sp,16
2000337a:	8082                	c.jr	ra
2000337c:	f805f693          	andi	a3,a1,-128
20003380:	00068a63          	beqz	a3,20003394 <bt_dbg_set_signal+0x8c>
20003384:	2000e537          	lui	a0,0x2000e
20003388:	cc850513          	addi	a0,a0,-824 # 2000dcc8 <__riscv_restore_0+0x84>
2000338c:	439090ef          	jal	ra,2000cfc4 <puts>
20003390:	0000006f          	j	20003390 <bt_dbg_set_signal+0x88>
20003394:	801606b7          	lui	a3,0x80160
20003398:	4506a603          	lw	a2,1104(a3) # 80160450 <_DATA_LMA_START+0x60152090>
2000339c:	f8067613          	andi	a2,a2,-128
200033a0:	00c5e7b3          	or	a5,a1,a2
200033a4:	44f6a823          	sw	a5,1104(a3)
200033a8:	4506a783          	lw	a5,1104(a3)
200033ac:	0807e793          	ori	a5,a5,128
200033b0:	44f6a823          	sw	a5,1104(a3)
200033b4:	fa1ff06f          	j	20003354 <bt_dbg_set_signal+0x4c>
200033b8:	00859793          	slli	a5,a1,0x8
200033bc:	76e1                	c.lui	a3,0xffff8
200033be:	0ff68693          	addi	a3,a3,255 # ffff80ff <_DATA_LMA_START+0xdffe9d3f>
200033c2:	8efd                	c.and	a3,a5
200033c4:	00068a63          	beqz	a3,200033d8 <bt_dbg_set_signal+0xd0>
200033c8:	2000e537          	lui	a0,0x2000e
200033cc:	d0850513          	addi	a0,a0,-760 # 2000dd08 <__riscv_restore_0+0xc4>
200033d0:	3f5090ef          	jal	ra,2000cfc4 <puts>
200033d4:	0000006f          	j	200033d4 <bt_dbg_set_signal+0xcc>
200033d8:	801606b7          	lui	a3,0x80160
200033dc:	4506a583          	lw	a1,1104(a3) # 80160450 <_DATA_LMA_START+0x60152090>
200033e0:	7661                	c.lui	a2,0xffff8
200033e2:	0ff60513          	addi	a0,a2,255 # ffff80ff <_DATA_LMA_START+0xdffe9d3f>
200033e6:	8de9                	c.and	a1,a0
200033e8:	8fcd                	c.or	a5,a1
200033ea:	44f6a823          	sw	a5,1104(a3)
200033ee:	4506a783          	lw	a5,1104(a3)
200033f2:	167d                	c.addi	a2,-1
200033f4:	8ff1                	c.and	a5,a2
200033f6:	6621                	c.lui	a2,0x8
200033f8:	8fd1                	c.or	a5,a2
200033fa:	44f6a823          	sw	a5,1104(a3)
200033fe:	bf99                	c.j	20003354 <bt_dbg_set_signal+0x4c>
20003400:	01059793          	slli	a5,a1,0x10
20003404:	ff8106b7          	lui	a3,0xff810
20003408:	16fd                	c.addi	a3,-1
2000340a:	8efd                	c.and	a3,a5
2000340c:	00068a63          	beqz	a3,20003420 <bt_dbg_set_signal+0x118>
20003410:	2000e537          	lui	a0,0x2000e
20003414:	d4850513          	addi	a0,a0,-696 # 2000dd48 <__riscv_restore_0+0x104>
20003418:	3ad090ef          	jal	ra,2000cfc4 <puts>
2000341c:	0000006f          	j	2000341c <bt_dbg_set_signal+0x114>
20003420:	801606b7          	lui	a3,0x80160
20003424:	4506a603          	lw	a2,1104(a3) # 80160450 <_DATA_LMA_START+0x60152090>
20003428:	ff8105b7          	lui	a1,0xff810
2000342c:	15fd                	c.addi	a1,-1
2000342e:	8e6d                	c.and	a2,a1
20003430:	8fd1                	c.or	a5,a2
20003432:	44f6a823          	sw	a5,1104(a3)
20003436:	4506a783          	lw	a5,1104(a3)
2000343a:	ff800637          	lui	a2,0xff800
2000343e:	167d                	c.addi	a2,-1
20003440:	8ff1                	c.and	a5,a2
20003442:	00800637          	lui	a2,0x800
20003446:	8fd1                	c.or	a5,a2
20003448:	44f6a823          	sw	a5,1104(a3)
2000344c:	f09ff06f          	j	20003354 <bt_dbg_set_signal+0x4c>
20003450:	801606b7          	lui	a3,0x80160
20003454:	4506a603          	lw	a2,1104(a3) # 80160450 <_DATA_LMA_START+0x60152090>
20003458:	810005b7          	lui	a1,0x81000
2000345c:	15fd                	c.addi	a1,-1
2000345e:	8e6d                	c.and	a2,a1
20003460:	8fd1                	c.or	a5,a2
20003462:	44f6a823          	sw	a5,1104(a3)
20003466:	4506a783          	lw	a5,1104(a3)
2000346a:	7807a7db          	bfoz	a5,a5,30,0
2000346e:	80000637          	lui	a2,0x80000
20003472:	8fd1                	c.or	a5,a2
20003474:	44f6a823          	sw	a5,1104(a3)
20003478:	eddff06f          	j	20003354 <bt_dbg_set_signal+0x4c>
2000347c:	a001                	c.j	2000347c <bt_dbg_set_signal+0x174>
	...

20003480 <myudb_set_txfifo_local>:
20003480:	801f978b          	addigp	a5,-2048 # 80000 <myudb_txfifo>
20003484:	b2ffcfab          	swgp	a5,-1220 # 8033c <myudb_fifo>
20003488:	00008067          	ret

2000348c <myudb_set_txfifo>:
2000348c:	b2afcfab          	swgp	a0,-1220 # 8033c <myudb_fifo>
20003490:	00008067          	ret

20003494 <myudb_usb_send_response>:
20003494:	b4dfd7ab          	lhugp	a5,-1204 # 8034c <myudb_g_response_len>
20003498:	471d                	c.li	a4,7
2000349a:	00f77b63          	bgeu	a4,a5,200034b0 <myudb_usb_send_response+0x1c>
2000349e:	4721                	c.li	a4,8
200034a0:	8f99                	c.sub	a5,a4
200034a2:	b4ff86ab          	shgp	a5,-1204 # 8034c <myudb_g_response_len>
200034a6:	801017b7          	lui	a5,0x80101
200034aa:	80078023          	sb	zero,-2048(a5) # 80100800 <_DATA_LMA_START+0x600f2440>
200034ae:	a00d                	c.j	200034d0 <myudb_usb_send_response+0x3c>
200034b0:	873e                	c.mv	a4,a5
200034b2:	b7fd                	c.j	200034a0 <myudb_usb_send_response+0xc>
200034b4:	b53fa6ab          	lwgp	a3,-1200 # 80350 <myudb_g_response>
200034b8:	0006c603          	lbu	a2,0(a3)
200034bc:	801016b7          	lui	a3,0x80101
200034c0:	80c680a3          	sb	a2,-2047(a3) # 80100801 <_DATA_LMA_START+0x600f2441>
200034c4:	b53fa6ab          	lwgp	a3,-1200 # 80350 <myudb_g_response>
200034c8:	0685                	c.addi	a3,1
200034ca:	b4dfc9ab          	swgp	a3,-1200 # 80350 <myudb_g_response>
200034ce:	873e                	c.mv	a4,a5
200034d0:	fff70793          	addi	a5,a4,-1
200034d4:	3c07a7db          	bfoz	a5,a5,15,0
200034d8:	ff71                	c.bnez	a4,200034b4 <myudb_usb_send_response+0x20>
200034da:	8082                	c.jr	ra

200034dc <myudb_usb_prepare_desc_data>:
200034dc:	1141                	c.addi	sp,-16
